ARM GAS  C:\Users\JEPPES~1\AppData\Local\Temp\ccyJ8pUE.s 			page 1


   1              		.cpu cortex-m0
   2              		.fpu softvfp
   3              		.eabi_attribute 20, 1
   4              		.eabi_attribute 21, 1
   5              		.eabi_attribute 23, 3
   6              		.eabi_attribute 24, 1
   7              		.eabi_attribute 25, 1
   8              		.eabi_attribute 26, 1
   9              		.eabi_attribute 30, 1
  10              		.eabi_attribute 34, 0
  11              		.eabi_attribute 18, 4
  12              		.code	16
  13              		.file	"i2c.c"
  14              		.text
  15              	.Ltext0:
  16              		.cfi_sections	.debug_frame
  17              		.section	.text.i2c_init,"ax",%progbits
  18              		.align	2
  19              		.global	i2c_init
  20              		.code	16
  21              		.thumb_func
  22              		.type	i2c_init, %function
  23              	i2c_init:
  24              	.LFB34:
  25              		.file 1 ".\\i2c.c"
   1:.\i2c.c       **** /* ========================================
   2:.\i2c.c       ****  *
   3:.\i2c.c       ****  * File: i2c.c
   4:.\i2c.c       ****  * Description: 
   5:.\i2c.c       ****  *
   6:.\i2c.c       ****  * University: AARHUS UNIVERSITY SCHOOL OF ENGINEERING
   7:.\i2c.c       ****  * Project: F16 - E3PRJ3-02 Semesterprojekt 3 [240501U178]
   8:.\i2c.c       ****  * Group: 1
   9:.\i2c.c       ****  * 
  10:.\i2c.c       ****  * Author: Jeppe Stærk
  11:.\i2c.c       ****  * Matriculation number: 201271201
  12:.\i2c.c       ****  *
  13:.\i2c.c       ****  * Version: 1.0
  14:.\i2c.c       ****  * Date: 13-05-2016
  15:.\i2c.c       ****  *
  16:.\i2c.c       ****  * ========================================
  17:.\i2c.c       **** */
  18:.\i2c.c       **** 
  19:.\i2c.c       **** #include "i2c.h"
  20:.\i2c.c       **** #include "data.h"
  21:.\i2c.c       **** #include "queue.h"
  22:.\i2c.c       **** 
  23:.\i2c.c       **** uint8 i2cTxBuffer[I2C_BUFFER_SIZE] = {I2C_PACKET_SOP, I2C_STS_CMD_FAIL, I2C_STS_CMD_FAIL, I2C_PACKE
  24:.\i2c.c       **** uint8 i2cRxBuffer[I2C_BUFFER_SIZE];
  25:.\i2c.c       **** 
  26:.\i2c.c       **** void i2c_init()
  27:.\i2c.c       **** {
  26              		.loc 1 27 0
  27              		.cfi_startproc
  28 0000 08B5     		push	{r3, lr}
  29              		.cfi_def_cfa_offset 8
  30              		.cfi_offset 3, -8
ARM GAS  C:\Users\JEPPES~1\AppData\Local\Temp\ccyJ8pUE.s 			page 2


  31              		.cfi_offset 14, -4
  28:.\i2c.c       ****     I2CS_I2CSlaveInitReadBuf(i2cTxBuffer, I2C_BUFFER_SIZE);
  32              		.loc 1 28 0
  33 0002 0948     		ldr	r0, .L2
  34 0004 0421     		mov	r1, #4
  35 0006 FFF7FEFF 		bl	I2CS_I2CSlaveInitReadBuf
  36              	.LVL0:
  29:.\i2c.c       ****     I2CS_I2CSlaveClearReadBuf();
  37              		.loc 1 29 0
  38 000a FFF7FEFF 		bl	I2CS_I2CSlaveClearReadBuf
  39              	.LVL1:
  30:.\i2c.c       ****     I2CS_I2CSlaveClearReadStatus();
  40              		.loc 1 30 0
  41 000e FFF7FEFF 		bl	I2CS_I2CSlaveClearReadStatus
  42              	.LVL2:
  31:.\i2c.c       ****     
  32:.\i2c.c       ****     I2CS_I2CSlaveInitWriteBuf(i2cRxBuffer, I2C_BUFFER_SIZE);
  43              		.loc 1 32 0
  44 0012 0648     		ldr	r0, .L2+4
  45 0014 0421     		mov	r1, #4
  46 0016 FFF7FEFF 		bl	I2CS_I2CSlaveInitWriteBuf
  47              	.LVL3:
  33:.\i2c.c       ****     I2CS_I2CSlaveClearWriteBuf();
  48              		.loc 1 33 0
  49 001a FFF7FEFF 		bl	I2CS_I2CSlaveClearWriteBuf
  50              	.LVL4:
  34:.\i2c.c       ****     I2CS_I2CSlaveClearWriteStatus();
  51              		.loc 1 34 0
  52 001e FFF7FEFF 		bl	I2CS_I2CSlaveClearWriteStatus
  53              	.LVL5:
  35:.\i2c.c       ****     
  36:.\i2c.c       ****     I2CS_Start();
  54              		.loc 1 36 0
  55 0022 FFF7FEFF 		bl	I2CS_Start
  56              	.LVL6:
  37:.\i2c.c       **** }
  57              		.loc 1 37 0
  58              		@ sp needed
  59 0026 08BD     		pop	{r3, pc}
  60              	.L3:
  61              		.align	2
  62              	.L2:
  63 0028 00000000 		.word	.LANCHOR0
  64 002c 00000000 		.word	i2cRxBuffer
  65              		.cfi_endproc
  66              	.LFE34:
  67              		.size	i2c_init, .-i2c_init
  68              		.section	.text.i2c_rx,"ax",%progbits
  69              		.align	2
  70              		.global	i2c_rx
  71              		.code	16
  72              		.thumb_func
  73              		.type	i2c_rx, %function
  74              	i2c_rx:
  75              	.LFB35:
  38:.\i2c.c       **** 
  39:.\i2c.c       **** void i2c_rx()
ARM GAS  C:\Users\JEPPES~1\AppData\Local\Temp\ccyJ8pUE.s 			page 3


  40:.\i2c.c       **** {
  76              		.loc 1 40 0
  77              		.cfi_startproc
  78 0000 00B5     		push	{lr}
  79              		.cfi_def_cfa_offset 4
  80              		.cfi_offset 14, -4
  81 0002 83B0     		sub	sp, sp, #12
  82              		.cfi_def_cfa_offset 16
  41:.\i2c.c       ****   if(0u != (I2CS_I2CSlaveStatus() & I2CS_I2C_SSTAT_WR_CMPLT))
  83              		.loc 1 41 0
  84 0004 FFF7FEFF 		bl	I2CS_I2CSlaveStatus
  85              	.LVL7:
  86 0008 C306     		lsl	r3, r0, #27
  87 000a 14D5     		bpl	.L4
  42:.\i2c.c       ****   {
  43:.\i2c.c       ****     if(I2C_BUFFER_SIZE == I2CS_I2CSlaveGetWriteBufSize())
  88              		.loc 1 43 0
  89 000c FFF7FEFF 		bl	I2CS_I2CSlaveGetWriteBufSize
  90              	.LVL8:
  91 0010 0428     		cmp	r0, #4
  92 0012 0CD1     		bne	.L6
  44:.\i2c.c       ****     {
  45:.\i2c.c       ****       if((i2cRxBuffer[I2C_PACKET_SOP_POS] == I2C_PACKET_SOP) && (i2cRxBuffer[I2C_PACKET_EOP_POS] ==
  93              		.loc 1 45 0
  94 0014 094B     		ldr	r3, .L7
  95 0016 1B78     		ldrb	r3, [r3]
  96 0018 BE2B     		cmp	r3, #190
  97 001a 08D1     		bne	.L6
  98              		.loc 1 45 0 is_stmt 0 discriminator 1
  99 001c 074B     		ldr	r3, .L7
 100 001e DB78     		ldrb	r3, [r3, #3]
 101 0020 EF2B     		cmp	r3, #239
 102 0022 04D1     		bne	.L6
 103              	.LBB2:
  46:.\i2c.c       ****       {    
  47:.\i2c.c       ****         struct Data action;
  48:.\i2c.c       ****         action.cmd_ = i2cRxBuffer[I2C_PACKET_CMD_POS];
 104              		.loc 1 48 0 is_stmt 1
 105 0024 054B     		ldr	r3, .L7
 106 0026 5878     		ldrb	r0, [r3, #1]
  49:.\i2c.c       ****         action.val_ = i2cRxBuffer[I2C_PACKET_VAL_POS];
 107              		.loc 1 49 0
 108 0028 9978     		ldrb	r1, [r3, #2]
  50:.\i2c.c       ****         
  51:.\i2c.c       ****         pushQueue(action);
 109              		.loc 1 51 0
 110 002a FFF7FEFF 		bl	pushQueue
 111              	.LVL9:
 112              	.L6:
 113              	.LBE2:
  52:.\i2c.c       ****       }
  53:.\i2c.c       ****     }
  54:.\i2c.c       ****     
  55:.\i2c.c       ****     I2CS_I2CSlaveClearWriteBuf();
 114              		.loc 1 55 0
 115 002e FFF7FEFF 		bl	I2CS_I2CSlaveClearWriteBuf
 116              	.LVL10:
ARM GAS  C:\Users\JEPPES~1\AppData\Local\Temp\ccyJ8pUE.s 			page 4


  56:.\i2c.c       ****     (void) I2CS_I2CSlaveClearWriteStatus();
 117              		.loc 1 56 0
 118 0032 FFF7FEFF 		bl	I2CS_I2CSlaveClearWriteStatus
 119              	.LVL11:
 120              	.L4:
  57:.\i2c.c       ****   }
  58:.\i2c.c       **** }
 121              		.loc 1 58 0
 122 0036 03B0     		add	sp, sp, #12
 123              		@ sp needed
 124 0038 00BD     		pop	{pc}
 125              	.L8:
 126 003a C046     		.align	2
 127              	.L7:
 128 003c 00000000 		.word	i2cRxBuffer
 129              		.cfi_endproc
 130              	.LFE35:
 131              		.size	i2c_rx, .-i2c_rx
 132              		.section	.text.i2c_tx,"ax",%progbits
 133              		.align	2
 134              		.global	i2c_tx
 135              		.code	16
 136              		.thumb_func
 137              		.type	i2c_tx, %function
 138              	i2c_tx:
 139              	.LFB36:
  59:.\i2c.c       **** 
  60:.\i2c.c       **** void i2c_tx()
  61:.\i2c.c       **** {
 140              		.loc 1 61 0
 141              		.cfi_startproc
 142 0000 08B5     		push	{r3, lr}
 143              		.cfi_def_cfa_offset 8
 144              		.cfi_offset 3, -8
 145              		.cfi_offset 14, -4
  62:.\i2c.c       ****     if(0u != (I2CS_I2CSlaveStatus() & I2CS_I2C_SSTAT_RD_CMPLT))
 146              		.loc 1 62 0
 147 0002 FFF7FEFF 		bl	I2CS_I2CSlaveStatus
 148              	.LVL12:
 149 0006 C307     		lsl	r3, r0, #31
 150 0008 03D5     		bpl	.L9
  63:.\i2c.c       ****     {
  64:.\i2c.c       ****         I2CS_I2CSlaveClearReadBuf();
 151              		.loc 1 64 0
 152 000a FFF7FEFF 		bl	I2CS_I2CSlaveClearReadBuf
 153              	.LVL13:
  65:.\i2c.c       ****         (void) I2CS_I2CSlaveClearReadStatus();   
 154              		.loc 1 65 0
 155 000e FFF7FEFF 		bl	I2CS_I2CSlaveClearReadStatus
 156              	.LVL14:
 157              	.L9:
  66:.\i2c.c       ****     }   
  67:.\i2c.c       **** }
 158              		.loc 1 67 0
 159              		@ sp needed
 160 0012 08BD     		pop	{r3, pc}
 161              		.cfi_endproc
ARM GAS  C:\Users\JEPPES~1\AppData\Local\Temp\ccyJ8pUE.s 			page 5


 162              	.LFE36:
 163              		.size	i2c_tx, .-i2c_tx
 164              		.comm	dataZ,12,4
 165              		.comm	i2cRxBuffer,4,4
 166              		.global	i2cTxBuffer
 167              		.data
 168              		.align	2
 169              		.set	.LANCHOR0,. + 0
 170              		.type	i2cTxBuffer, %object
 171              		.size	i2cTxBuffer, 4
 172              	i2cTxBuffer:
 173 0000 BE       		.byte	-66
 174 0001 EE       		.byte	-18
 175 0002 EE       		.byte	-18
 176 0003 EF       		.byte	-17
 177              		.text
 178              	.Letext0:
 179              		.file 2 "Generated_Source\\PSoC4/cytypes.h"
 180              		.file 3 ".\\data.h"
 181              		.file 4 ".\\queue.h"
 182              		.file 5 "Generated_Source\\PSoC4/I2CS_I2C.h"
 183              		.file 6 "Generated_Source\\PSoC4/I2CS.h"