ARM GAS  C:\Users\JEPPES~1\AppData\Local\Temp\ccUj0KL0.s 			page 1


   1              		.cpu cortex-m0
   2              		.fpu softvfp
   3              		.eabi_attribute 20, 1
   4              		.eabi_attribute 21, 1
   5              		.eabi_attribute 23, 3
   6              		.eabi_attribute 24, 1
   7              		.eabi_attribute 25, 1
   8              		.eabi_attribute 26, 1
   9              		.eabi_attribute 30, 1
  10              		.eabi_attribute 34, 0
  11              		.eabi_attribute 18, 4
  12              		.code	16
  13              		.file	"led.c"
  14              		.text
  15              	.Ltext0:
  16              		.cfi_sections	.debug_frame
  17              		.section	.text.setLed,"ax",%progbits
  18              		.align	2
  19              		.global	setLed
  20              		.code	16
  21              		.thumb_func
  22              		.type	setLed, %function
  23              	setLed:
  24              	.LFB34:
  25              		.file 1 ".\\led.c"
   1:.\led.c       **** /* ========================================
   2:.\led.c       ****  *
   3:.\led.c       ****  * File: handler.c
   4:.\led.c       ****  * Description: 
   5:.\led.c       ****  *
   6:.\led.c       ****  * University: AARHUS UNIVERSITY SCHOOL OF ENGINEERING
   7:.\led.c       ****  * Project: F16 - E3PRJ3-02 Semesterprojekt 3 [240501U178]
   8:.\led.c       ****  * Group: 1
   9:.\led.c       ****  * 
  10:.\led.c       ****  * Author: 
  11:.\led.c       ****  * Matriculation number: 
  12:.\led.c       ****  *
  13:.\led.c       ****  * Version: 1.0
  14:.\led.c       ****  * Date: 13-05-2016
  15:.\led.c       ****  *
  16:.\led.c       ****  * ========================================
  17:.\led.c       **** */
  18:.\led.c       **** 
  19:.\led.c       **** #include "led.h"
  20:.\led.c       **** 
  21:.\led.c       **** void setLed(uint8 red, uint8 green, uint8 blue)
  22:.\led.c       **** {
  26              		.loc 1 22 0
  27              		.cfi_startproc
  28              	.LVL0:
  29 0000 38B5     		push	{r3, r4, r5, lr}
  30              		.cfi_def_cfa_offset 16
  31              		.cfi_offset 3, -16
  32              		.cfi_offset 4, -12
  33              		.cfi_offset 5, -8
  34              		.cfi_offset 14, -4
  35 0002 0D1C     		mov	r5, r1
ARM GAS  C:\Users\JEPPES~1\AppData\Local\Temp\ccUj0KL0.s 			page 2


  36 0004 141C     		mov	r4, r2
  23:.\led.c       ****     red ? LED_Red_Write(0u) : LED_Red_Write(1u);
  37              		.loc 1 23 0
  38 0006 0028     		cmp	r0, #0
  39 0008 03D0     		beq	.L2
  40              		.loc 1 23 0 is_stmt 0 discriminator 1
  41 000a 0020     		mov	r0, #0
  42              	.LVL1:
  43 000c FFF7FEFF 		bl	LED_Red_Write
  44              	.LVL2:
  45 0010 02E0     		b	.L3
  46              	.LVL3:
  47              	.L2:
  48              		.loc 1 23 0 discriminator 2
  49 0012 0120     		mov	r0, #1
  50              	.LVL4:
  51 0014 FFF7FEFF 		bl	LED_Red_Write
  52              	.LVL5:
  53              	.L3:
  24:.\led.c       ****     green ? LED_Green_Write(0u) : LED_Green_Write(1u);
  54              		.loc 1 24 0 is_stmt 1
  55 0018 002D     		cmp	r5, #0
  56 001a 03D0     		beq	.L4
  57              		.loc 1 24 0 is_stmt 0 discriminator 1
  58 001c 0020     		mov	r0, #0
  59 001e FFF7FEFF 		bl	LED_Green_Write
  60              	.LVL6:
  61 0022 02E0     		b	.L5
  62              	.L4:
  63              		.loc 1 24 0 discriminator 2
  64 0024 0120     		mov	r0, #1
  65 0026 FFF7FEFF 		bl	LED_Green_Write
  66              	.LVL7:
  67              	.L5:
  25:.\led.c       ****     blue ? LED_Blue_Write(0u) : LED_Blue_Write(1u);
  68              		.loc 1 25 0 is_stmt 1
  69 002a 002C     		cmp	r4, #0
  70 002c 03D0     		beq	.L6
  71              		.loc 1 25 0 is_stmt 0 discriminator 1
  72 002e 0020     		mov	r0, #0
  73 0030 FFF7FEFF 		bl	LED_Blue_Write
  74              	.LVL8:
  75 0034 02E0     		b	.L1
  76              	.L6:
  77              		.loc 1 25 0 discriminator 2
  78 0036 0120     		mov	r0, #1
  79 0038 FFF7FEFF 		bl	LED_Blue_Write
  80              	.LVL9:
  81              	.L1:
  26:.\led.c       **** }
  82              		.loc 1 26 0 is_stmt 1
  83              		@ sp needed
  84 003c 38BD     		pop	{r3, r4, r5, pc}
  85              		.cfi_endproc
  86              	.LFE34:
  87              		.size	setLed, .-setLed
  88 003e C046     		.section	.text.toggelLed,"ax",%progbits
ARM GAS  C:\Users\JEPPES~1\AppData\Local\Temp\ccUj0KL0.s 			page 3


  89              		.align	2
  90              		.global	toggelLed
  91              		.code	16
  92              		.thumb_func
  93              		.type	toggelLed, %function
  94              	toggelLed:
  95              	.LFB35:
  27:.\led.c       **** 
  28:.\led.c       **** void toggelLed(uint8 red, uint8 green, uint8 blue)
  29:.\led.c       **** {
  96              		.loc 1 29 0
  97              		.cfi_startproc
  98              	.LVL10:
  99 0000 38B5     		push	{r3, r4, r5, lr}
 100              		.cfi_def_cfa_offset 16
 101              		.cfi_offset 3, -16
 102              		.cfi_offset 4, -12
 103              		.cfi_offset 5, -8
 104              		.cfi_offset 14, -4
 105 0002 0D1C     		mov	r5, r1
 106 0004 141C     		mov	r4, r2
  30:.\led.c       ****     red ? LED_Red_Write(~LED_Red_Read()) : LED_Red_Write(1u);
 107              		.loc 1 30 0
 108 0006 0028     		cmp	r0, #0
 109 0008 06D0     		beq	.L9
 110              		.loc 1 30 0 is_stmt 0 discriminator 1
 111 000a FFF7FEFF 		bl	LED_Red_Read
 112              	.LVL11:
 113 000e C043     		mvn	r0, r0
 114 0010 C0B2     		uxtb	r0, r0
 115 0012 FFF7FEFF 		bl	LED_Red_Write
 116              	.LVL12:
 117 0016 02E0     		b	.L10
 118              	.LVL13:
 119              	.L9:
 120              		.loc 1 30 0 discriminator 2
 121 0018 0120     		mov	r0, #1
 122              	.LVL14:
 123 001a FFF7FEFF 		bl	LED_Red_Write
 124              	.LVL15:
 125              	.L10:
  31:.\led.c       ****     green ? LED_Green_Write(~LED_Red_Read()) : LED_Green_Write(1u);
 126              		.loc 1 31 0 is_stmt 1
 127 001e 002D     		cmp	r5, #0
 128 0020 06D0     		beq	.L11
 129              		.loc 1 31 0 is_stmt 0 discriminator 1
 130 0022 FFF7FEFF 		bl	LED_Red_Read
 131              	.LVL16:
 132 0026 C043     		mvn	r0, r0
 133 0028 C0B2     		uxtb	r0, r0
 134 002a FFF7FEFF 		bl	LED_Green_Write
 135              	.LVL17:
 136 002e 02E0     		b	.L12
 137              	.L11:
 138              		.loc 1 31 0 discriminator 2
 139 0030 0120     		mov	r0, #1
 140 0032 FFF7FEFF 		bl	LED_Green_Write
ARM GAS  C:\Users\JEPPES~1\AppData\Local\Temp\ccUj0KL0.s 			page 4


 141              	.LVL18:
 142              	.L12:
  32:.\led.c       ****     blue ? LED_Blue_Write(~LED_Red_Read()) : LED_Blue_Write(1u);
 143              		.loc 1 32 0 is_stmt 1
 144 0036 002C     		cmp	r4, #0
 145 0038 06D0     		beq	.L13
 146              		.loc 1 32 0 is_stmt 0 discriminator 1
 147 003a FFF7FEFF 		bl	LED_Red_Read
 148              	.LVL19:
 149 003e C043     		mvn	r0, r0
 150 0040 C0B2     		uxtb	r0, r0
 151 0042 FFF7FEFF 		bl	LED_Blue_Write
 152              	.LVL20:
 153 0046 02E0     		b	.L8
 154              	.L13:
 155              		.loc 1 32 0 discriminator 2
 156 0048 0120     		mov	r0, #1
 157 004a FFF7FEFF 		bl	LED_Blue_Write
 158              	.LVL21:
 159              	.L8:
  33:.\led.c       **** }
 160              		.loc 1 33 0 is_stmt 1
 161              		@ sp needed
 162 004e 38BD     		pop	{r3, r4, r5, pc}
 163              		.cfi_endproc
 164              	.LFE35:
 165              		.size	toggelLed, .-toggelLed
 166              		.comm	i2c_rxBuffer,4,4
 167              		.comm	i2c_txBuffer,4,4
 168              		.comm	backOfQueuePtr,4,4
 169              		.comm	frontOfQueuePtr,4,4
 170              		.text
 171              	.Letext0:
 172              		.file 2 ".\\queue.h"
 173              		.file 3 ".\\i2c.h"
 174              		.file 4 "Generated_Source\\PSoC4/LED_Red.h"
 175              		.file 5 "Generated_Source\\PSoC4/LED_Green.h"
 176              		.file 6 "Generated_Source\\PSoC4/LED_Blue.h"
 177              		.file 7 "Generated_Source\\PSoC4/cytypes.h"