ARM GAS  C:\Users\JEPPES~1\AppData\Local\Temp\ccUtdZh9.s 			page 1


   1              		.cpu cortex-m0
   2              		.fpu softvfp
   3              		.eabi_attribute 20, 1
   4              		.eabi_attribute 21, 1
   5              		.eabi_attribute 23, 3
   6              		.eabi_attribute 24, 1
   7              		.eabi_attribute 25, 1
   8              		.eabi_attribute 26, 1
   9              		.eabi_attribute 30, 1
  10              		.eabi_attribute 34, 0
  11              		.eabi_attribute 18, 4
  12              		.code	16
  13              		.file	"z.c"
  14              		.text
  15              	.Ltext0:
  16              		.cfi_sections	.debug_frame
  17              		.section	.text.z_init,"ax",%progbits
  18              		.align	2
  19              		.global	z_init
  20              		.code	16
  21              		.thumb_func
  22              		.type	z_init, %function
  23              	z_init:
  24              	.LFB34:
  25              		.file 1 ".\\z.c"
   1:.\z.c         **** /* ========================================
   2:.\z.c         ****  *
   3:.\z.c         ****  * File: xy.c
   4:.\z.c         ****  * Description: 
   5:.\z.c         ****  *
   6:.\z.c         ****  * University: AARHUS UNIVERSITY SCHOOL OF ENGINEERING
   7:.\z.c         ****  * Project: F16 - E3PRJ3-02 Semesterprojekt 3 [240501U178]
   8:.\z.c         ****  * Group: 1
   9:.\z.c         ****  * 
  10:.\z.c         ****  * Author: 
  11:.\z.c         ****  * Matriculation number: 
  12:.\z.c         ****  *
  13:.\z.c         ****  * Version: 1.0
  14:.\z.c         ****  * Date: 13-05-2016
  15:.\z.c         ****  *
  16:.\z.c         ****  * ========================================
  17:.\z.c         **** */
  18:.\z.c         **** 
  19:.\z.c         **** #include "z.h"
  20:.\z.c         **** 
  21:.\z.c         **** uint8 calibratedZ = 1;
  22:.\z.c         **** uint8 isrStopZ = 0;
  23:.\z.c         **** uint8 zFlag = 0;
  24:.\z.c         **** uint32 zMax = 3000;
  25:.\z.c         **** uint32 zPos;
  26:.\z.c         **** 
  27:.\z.c         **** void z_init()
  28:.\z.c         **** {
  26              		.loc 1 28 0
  27              		.cfi_startproc
  28 0000 08B5     		push	{r3, lr}
  29              		.cfi_def_cfa_offset 8
ARM GAS  C:\Users\JEPPES~1\AppData\Local\Temp\ccUtdZh9.s 			page 2


  30              		.cfi_offset 3, -8
  31              		.cfi_offset 14, -4
  29:.\z.c         ****     interrupt_Z_StartEx(isr_Z);
  32              		.loc 1 29 0
  33 0002 0248     		ldr	r0, .L2
  34 0004 FFF7FEFF 		bl	interrupt_Z_StartEx
  35              	.LVL0:
  30:.\z.c         **** }
  36              		.loc 1 30 0
  37              		@ sp needed
  38 0008 08BD     		pop	{r3, pc}
  39              	.L3:
  40 000a C046     		.align	2
  41              	.L2:
  42 000c 00000000 		.word	isr_Z
  43              		.cfi_endproc
  44              	.LFE34:
  45              		.size	z_init, .-z_init
  46              		.section	.text.getZPos,"ax",%progbits
  47              		.align	2
  48              		.global	getZPos
  49              		.code	16
  50              		.thumb_func
  51              		.type	getZPos, %function
  52              	getZPos:
  53              	.LFB38:
  31:.\z.c         **** 
  32:.\z.c         **** CY_ISR(isr_Z)
  33:.\z.c         **** {
  34:.\z.c         ****     interrupt_Z_Disable();
  35:.\z.c         ****     uint32 i;
  36:.\z.c         ****     stopZ();
  37:.\z.c         ****     setLed(0,0,1);
  38:.\z.c         ****     for(i = 0; i < interruptSteps; i++)
  39:.\z.c         ****     {
  40:.\z.c         ****         stepZForwards();   
  41:.\z.c         ****     }
  42:.\z.c         ****     zFlag = 1;
  43:.\z.c         ****     setLed(0,0,0);
  44:.\z.c         ****     interrupt_Z_ClearPending();
  45:.\z.c         ****     interrupt_Z_Enable();
  46:.\z.c         **** }
  47:.\z.c         **** 
  48:.\z.c         **** void calibrateZ()
  49:.\z.c         **** {
  50:.\z.c         ****     calibratedZ = 0;
  51:.\z.c         ****     zFlag = 0;
  52:.\z.c         ****     while(interrupt_Z_GetState() == 1 && zFlag == 0)
  53:.\z.c         ****     {
  54:.\z.c         ****         setLed(1,0,0);
  55:.\z.c         ****         stepZBackwards();
  56:.\z.c         ****     }
  57:.\z.c         ****     zPos = 0;
  58:.\z.c         ****     calibratedZ = 1;
  59:.\z.c         ****     setLed(0,0,0);
  60:.\z.c         **** }
  61:.\z.c         **** 
ARM GAS  C:\Users\JEPPES~1\AppData\Local\Temp\ccUtdZh9.s 			page 3


  62:.\z.c         **** void setZPos(uint8 zVal)
  63:.\z.c         **** {
  64:.\z.c         ****     uint32 i;
  65:.\z.c         ****     uint32 zDes = 0;
  66:.\z.c         ****     uint32 zSteps = 0;
  67:.\z.c         ****     
  68:.\z.c         ****     isrStopZ = 0;
  69:.\z.c         ****     
  70:.\z.c         ****     if(calibratedZ == 1)
  71:.\z.c         ****     {
  72:.\z.c         ****         isrStopZ = 0;
  73:.\z.c         ****         zDes = zVal * zMax / resolution;
  74:.\z.c         ****         if(zDes < zPos)
  75:.\z.c         ****         {
  76:.\z.c         ****             setLed(0,1,0);
  77:.\z.c         ****             zSteps = zPos - zDes;
  78:.\z.c         ****             for(i = 0; i < zSteps && isrStopZ == 0; i++)
  79:.\z.c         ****             {
  80:.\z.c         ****                 stepZBackwards();
  81:.\z.c         ****                 zPos--;                
  82:.\z.c         ****             }
  83:.\z.c         ****             setLed(0,0,0);
  84:.\z.c         ****         }
  85:.\z.c         ****         else if(zDes > zPos)
  86:.\z.c         ****         {
  87:.\z.c         ****             setLed(0,1,0);
  88:.\z.c         ****             zSteps = zDes - zPos;
  89:.\z.c         ****             for(i = 0; i < zSteps && isrStopZ == 0; i++)
  90:.\z.c         ****             {
  91:.\z.c         ****                 stepZForwards();
  92:.\z.c         ****                 zPos++;                
  93:.\z.c         ****             }
  94:.\z.c         ****             setLed(0,0,0);
  95:.\z.c         ****         }
  96:.\z.c         ****     }
  97:.\z.c         ****     else
  98:.\z.c         ****     {
  99:.\z.c         ****         calibrateZ();
 100:.\z.c         ****         setZPos(zVal);
 101:.\z.c         ****     }
 102:.\z.c         **** }
 103:.\z.c         **** 
 104:.\z.c         **** uint8 getZPos()
 105:.\z.c         **** {
  54              		.loc 1 105 0
  55              		.cfi_startproc
 106:.\z.c         ****     return zPos;   
  56              		.loc 1 106 0
  57 0000 014B     		ldr	r3, .L5
  58 0002 1878     		ldrb	r0, [r3]
 107:.\z.c         **** }
  59              		.loc 1 107 0
  60              		@ sp needed
  61 0004 7047     		bx	lr
  62              	.L6:
  63 0006 C046     		.align	2
  64              	.L5:
ARM GAS  C:\Users\JEPPES~1\AppData\Local\Temp\ccUtdZh9.s 			page 4


  65 0008 00000000 		.word	zPos
  66              		.cfi_endproc
  67              	.LFE38:
  68              		.size	getZPos, .-getZPos
  69              		.section	.text.getZMax,"ax",%progbits
  70              		.align	2
  71              		.global	getZMax
  72              		.code	16
  73              		.thumb_func
  74              		.type	getZMax, %function
  75              	getZMax:
  76              	.LFB39:
 108:.\z.c         **** 
 109:.\z.c         **** uint8 getZMax()
 110:.\z.c         **** {
  77              		.loc 1 110 0
  78              		.cfi_startproc
 111:.\z.c         ****     return zMax;   
  79              		.loc 1 111 0
  80 0000 014B     		ldr	r3, .L8
  81 0002 1878     		ldrb	r0, [r3]
 112:.\z.c         **** }
  82              		.loc 1 112 0
  83              		@ sp needed
  84 0004 7047     		bx	lr
  85              	.L9:
  86 0006 C046     		.align	2
  87              	.L8:
  88 0008 00000000 		.word	.LANCHOR0
  89              		.cfi_endproc
  90              	.LFE39:
  91              		.size	getZMax, .-getZMax
  92              		.section	.text.stepZForwards,"ax",%progbits
  93              		.align	2
  94              		.global	stepZForwards
  95              		.code	16
  96              		.thumb_func
  97              		.type	stepZForwards, %function
  98              	stepZForwards:
  99              	.LFB40:
 113:.\z.c         **** 
 114:.\z.c         **** 
 115:.\z.c         **** void stepZForwards()
 116:.\z.c         **** {
 100              		.loc 1 116 0
 101              		.cfi_startproc
 102 0000 08B5     		push	{r3, lr}
 103              		.cfi_def_cfa_offset 8
 104              		.cfi_offset 3, -8
 105              		.cfi_offset 14, -4
 117:.\z.c         ****     Pin_1a_Z_Write(1);
 106              		.loc 1 117 0
 107 0002 0120     		mov	r0, #1
 108 0004 FFF7FEFF 		bl	Pin_1a_Z_Write
 109              	.LVL1:
 118:.\z.c         ****     Pin_2a_Z_Write(0);
 110              		.loc 1 118 0
ARM GAS  C:\Users\JEPPES~1\AppData\Local\Temp\ccUtdZh9.s 			page 5


 111 0008 0020     		mov	r0, #0
 112 000a FFF7FEFF 		bl	Pin_2a_Z_Write
 113              	.LVL2:
 119:.\z.c         **** 	Pin_1b_Z_Write(0);
 114              		.loc 1 119 0
 115 000e 0020     		mov	r0, #0
 116 0010 FFF7FEFF 		bl	Pin_1b_Z_Write
 117              	.LVL3:
 120:.\z.c         **** 	Pin_2b_Z_Write(0);
 118              		.loc 1 120 0
 119 0014 0020     		mov	r0, #0
 120 0016 FFF7FEFF 		bl	Pin_2b_Z_Write
 121              	.LVL4:
 121:.\z.c         **** 	CyDelay(stepDelay);
 122              		.loc 1 121 0
 123 001a 0320     		mov	r0, #3
 124 001c FFF7FEFF 		bl	CyDelay
 125              	.LVL5:
 122:.\z.c         **** 
 123:.\z.c         **** 	Pin_1a_Z_Write(0);
 126              		.loc 1 123 0
 127 0020 0020     		mov	r0, #0
 128 0022 FFF7FEFF 		bl	Pin_1a_Z_Write
 129              	.LVL6:
 124:.\z.c         ****     Pin_2a_Z_Write(1);
 130              		.loc 1 124 0
 131 0026 0120     		mov	r0, #1
 132 0028 FFF7FEFF 		bl	Pin_2a_Z_Write
 133              	.LVL7:
 125:.\z.c         **** 	Pin_1b_Z_Write(0);
 134              		.loc 1 125 0
 135 002c 0020     		mov	r0, #0
 136 002e FFF7FEFF 		bl	Pin_1b_Z_Write
 137              	.LVL8:
 126:.\z.c         **** 	Pin_2b_Z_Write(0);
 138              		.loc 1 126 0
 139 0032 0020     		mov	r0, #0
 140 0034 FFF7FEFF 		bl	Pin_2b_Z_Write
 141              	.LVL9:
 127:.\z.c         **** 	CyDelay(stepDelay);
 142              		.loc 1 127 0
 143 0038 0320     		mov	r0, #3
 144 003a FFF7FEFF 		bl	CyDelay
 145              	.LVL10:
 128:.\z.c         **** 
 129:.\z.c         **** 	Pin_1a_Z_Write(0);
 146              		.loc 1 129 0
 147 003e 0020     		mov	r0, #0
 148 0040 FFF7FEFF 		bl	Pin_1a_Z_Write
 149              	.LVL11:
 130:.\z.c         **** 	Pin_2a_Z_Write(0);
 150              		.loc 1 130 0
 151 0044 0020     		mov	r0, #0
 152 0046 FFF7FEFF 		bl	Pin_2a_Z_Write
 153              	.LVL12:
 131:.\z.c         **** 	Pin_1b_Z_Write(1);
 154              		.loc 1 131 0
ARM GAS  C:\Users\JEPPES~1\AppData\Local\Temp\ccUtdZh9.s 			page 6


 155 004a 0120     		mov	r0, #1
 156 004c FFF7FEFF 		bl	Pin_1b_Z_Write
 157              	.LVL13:
 132:.\z.c         **** 	Pin_2b_Z_Write(0);
 158              		.loc 1 132 0
 159 0050 0020     		mov	r0, #0
 160 0052 FFF7FEFF 		bl	Pin_2b_Z_Write
 161              	.LVL14:
 133:.\z.c         **** 	CyDelay(stepDelay);
 162              		.loc 1 133 0
 163 0056 0320     		mov	r0, #3
 164 0058 FFF7FEFF 		bl	CyDelay
 165              	.LVL15:
 134:.\z.c         **** 
 135:.\z.c         **** 	Pin_1a_Z_Write(0);
 166              		.loc 1 135 0
 167 005c 0020     		mov	r0, #0
 168 005e FFF7FEFF 		bl	Pin_1a_Z_Write
 169              	.LVL16:
 136:.\z.c         **** 	Pin_2a_Z_Write(0);
 170              		.loc 1 136 0
 171 0062 0020     		mov	r0, #0
 172 0064 FFF7FEFF 		bl	Pin_2a_Z_Write
 173              	.LVL17:
 137:.\z.c         **** 	Pin_1b_Z_Write(0);
 174              		.loc 1 137 0
 175 0068 0020     		mov	r0, #0
 176 006a FFF7FEFF 		bl	Pin_1b_Z_Write
 177              	.LVL18:
 138:.\z.c         **** 	Pin_2b_Z_Write(1);
 178              		.loc 1 138 0
 179 006e 0120     		mov	r0, #1
 180 0070 FFF7FEFF 		bl	Pin_2b_Z_Write
 181              	.LVL19:
 139:.\z.c         **** 	CyDelay(stepDelay);   
 182              		.loc 1 139 0
 183 0074 0320     		mov	r0, #3
 184 0076 FFF7FEFF 		bl	CyDelay
 185              	.LVL20:
 140:.\z.c         **** }
 186              		.loc 1 140 0
 187              		@ sp needed
 188 007a 08BD     		pop	{r3, pc}
 189              		.cfi_endproc
 190              	.LFE40:
 191              		.size	stepZForwards, .-stepZForwards
 192              		.section	.text.stepZBackwards,"ax",%progbits
 193              		.align	2
 194              		.global	stepZBackwards
 195              		.code	16
 196              		.thumb_func
 197              		.type	stepZBackwards, %function
 198              	stepZBackwards:
 199              	.LFB41:
 141:.\z.c         **** 
 142:.\z.c         **** void stepZBackwards()
 143:.\z.c         **** {
ARM GAS  C:\Users\JEPPES~1\AppData\Local\Temp\ccUtdZh9.s 			page 7


 200              		.loc 1 143 0
 201              		.cfi_startproc
 202 0000 08B5     		push	{r3, lr}
 203              		.cfi_def_cfa_offset 8
 204              		.cfi_offset 3, -8
 205              		.cfi_offset 14, -4
 144:.\z.c         ****     Pin_1a_Z_Write(0);
 206              		.loc 1 144 0
 207 0002 0020     		mov	r0, #0
 208 0004 FFF7FEFF 		bl	Pin_1a_Z_Write
 209              	.LVL21:
 145:.\z.c         **** 	Pin_2a_Z_Write(0);
 210              		.loc 1 145 0
 211 0008 0020     		mov	r0, #0
 212 000a FFF7FEFF 		bl	Pin_2a_Z_Write
 213              	.LVL22:
 146:.\z.c         **** 	Pin_1b_Z_Write(0);
 214              		.loc 1 146 0
 215 000e 0020     		mov	r0, #0
 216 0010 FFF7FEFF 		bl	Pin_1b_Z_Write
 217              	.LVL23:
 147:.\z.c         **** 	Pin_2b_Z_Write(1);
 218              		.loc 1 147 0
 219 0014 0120     		mov	r0, #1
 220 0016 FFF7FEFF 		bl	Pin_2b_Z_Write
 221              	.LVL24:
 148:.\z.c         **** 	CyDelay(stepDelay);
 222              		.loc 1 148 0
 223 001a 0320     		mov	r0, #3
 224 001c FFF7FEFF 		bl	CyDelay
 225              	.LVL25:
 149:.\z.c         **** 
 150:.\z.c         **** 	Pin_1a_Z_Write(0);
 226              		.loc 1 150 0
 227 0020 0020     		mov	r0, #0
 228 0022 FFF7FEFF 		bl	Pin_1a_Z_Write
 229              	.LVL26:
 151:.\z.c         **** 	Pin_2a_Z_Write(0);
 230              		.loc 1 151 0
 231 0026 0020     		mov	r0, #0
 232 0028 FFF7FEFF 		bl	Pin_2a_Z_Write
 233              	.LVL27:
 152:.\z.c         **** 	Pin_1b_Z_Write(1);
 234              		.loc 1 152 0
 235 002c 0120     		mov	r0, #1
 236 002e FFF7FEFF 		bl	Pin_1b_Z_Write
 237              	.LVL28:
 153:.\z.c         **** 	Pin_2b_Z_Write(0);
 238              		.loc 1 153 0
 239 0032 0020     		mov	r0, #0
 240 0034 FFF7FEFF 		bl	Pin_2b_Z_Write
 241              	.LVL29:
 154:.\z.c         **** 	CyDelay(stepDelay);
 242              		.loc 1 154 0
 243 0038 0320     		mov	r0, #3
 244 003a FFF7FEFF 		bl	CyDelay
 245              	.LVL30:
ARM GAS  C:\Users\JEPPES~1\AppData\Local\Temp\ccUtdZh9.s 			page 8


 155:.\z.c         **** 
 156:.\z.c         **** 	Pin_1a_Z_Write(0);
 246              		.loc 1 156 0
 247 003e 0020     		mov	r0, #0
 248 0040 FFF7FEFF 		bl	Pin_1a_Z_Write
 249              	.LVL31:
 157:.\z.c         ****     Pin_2a_Z_Write(1);
 250              		.loc 1 157 0
 251 0044 0120     		mov	r0, #1
 252 0046 FFF7FEFF 		bl	Pin_2a_Z_Write
 253              	.LVL32:
 158:.\z.c         **** 	Pin_1b_Z_Write(0);
 254              		.loc 1 158 0
 255 004a 0020     		mov	r0, #0
 256 004c FFF7FEFF 		bl	Pin_1b_Z_Write
 257              	.LVL33:
 159:.\z.c         **** 	Pin_2b_Z_Write(0);
 258              		.loc 1 159 0
 259 0050 0020     		mov	r0, #0
 260 0052 FFF7FEFF 		bl	Pin_2b_Z_Write
 261              	.LVL34:
 160:.\z.c         **** 	CyDelay(stepDelay);
 262              		.loc 1 160 0
 263 0056 0320     		mov	r0, #3
 264 0058 FFF7FEFF 		bl	CyDelay
 265              	.LVL35:
 161:.\z.c         **** 
 162:.\z.c         **** 	Pin_1a_Z_Write(1);
 266              		.loc 1 162 0
 267 005c 0120     		mov	r0, #1
 268 005e FFF7FEFF 		bl	Pin_1a_Z_Write
 269              	.LVL36:
 163:.\z.c         **** 	Pin_2a_Z_Write(0);
 270              		.loc 1 163 0
 271 0062 0020     		mov	r0, #0
 272 0064 FFF7FEFF 		bl	Pin_2a_Z_Write
 273              	.LVL37:
 164:.\z.c         **** 	Pin_1b_Z_Write(0);
 274              		.loc 1 164 0
 275 0068 0020     		mov	r0, #0
 276 006a FFF7FEFF 		bl	Pin_1b_Z_Write
 277              	.LVL38:
 165:.\z.c         **** 	Pin_2b_Z_Write(0);
 278              		.loc 1 165 0
 279 006e 0020     		mov	r0, #0
 280 0070 FFF7FEFF 		bl	Pin_2b_Z_Write
 281              	.LVL39:
 166:.\z.c         **** 	CyDelay(stepDelay);
 282              		.loc 1 166 0
 283 0074 0320     		mov	r0, #3
 284 0076 FFF7FEFF 		bl	CyDelay
 285              	.LVL40:
 167:.\z.c         **** }
 286              		.loc 1 167 0
 287              		@ sp needed
 288 007a 08BD     		pop	{r3, pc}
 289              		.cfi_endproc
ARM GAS  C:\Users\JEPPES~1\AppData\Local\Temp\ccUtdZh9.s 			page 9


 290              	.LFE41:
 291              		.size	stepZBackwards, .-stepZBackwards
 292              		.section	.text.calibrateZ,"ax",%progbits
 293              		.align	2
 294              		.global	calibrateZ
 295              		.code	16
 296              		.thumb_func
 297              		.type	calibrateZ, %function
 298              	calibrateZ:
 299              	.LFB36:
  49:.\z.c         ****     calibratedZ = 0;
 300              		.loc 1 49 0
 301              		.cfi_startproc
 302 0000 08B5     		push	{r3, lr}
 303              		.cfi_def_cfa_offset 8
 304              		.cfi_offset 3, -8
 305              		.cfi_offset 14, -4
  50:.\z.c         ****     zFlag = 0;
 306              		.loc 1 50 0
 307 0002 0023     		mov	r3, #0
 308 0004 0F4A     		ldr	r2, .L16
 309 0006 1371     		strb	r3, [r2, #4]
  51:.\z.c         ****     while(interrupt_Z_GetState() == 1 && zFlag == 0)
 310              		.loc 1 51 0
 311 0008 0F4A     		ldr	r2, .L16+4
 312 000a 1370     		strb	r3, [r2]
  52:.\z.c         ****     {
 313              		.loc 1 52 0
 314 000c 06E0     		b	.L13
 315              	.L15:
  54:.\z.c         ****         stepZBackwards();
 316              		.loc 1 54 0
 317 000e 0120     		mov	r0, #1
 318 0010 0021     		mov	r1, #0
 319 0012 0022     		mov	r2, #0
 320 0014 FFF7FEFF 		bl	setLed
 321              	.LVL41:
  55:.\z.c         ****     }
 322              		.loc 1 55 0
 323 0018 FFF7FEFF 		bl	stepZBackwards
 324              	.LVL42:
 325              	.L13:
  52:.\z.c         ****     {
 326              		.loc 1 52 0
 327 001c FFF7FEFF 		bl	interrupt_Z_GetState
 328              	.LVL43:
 329 0020 0128     		cmp	r0, #1
 330 0022 03D1     		bne	.L14
  52:.\z.c         ****     {
 331              		.loc 1 52 0 is_stmt 0 discriminator 1
 332 0024 084B     		ldr	r3, .L16+4
 333 0026 1B78     		ldrb	r3, [r3]
 334 0028 002B     		cmp	r3, #0
 335 002a F0D0     		beq	.L15
 336              	.L14:
  57:.\z.c         ****     calibratedZ = 1;
 337              		.loc 1 57 0 is_stmt 1
ARM GAS  C:\Users\JEPPES~1\AppData\Local\Temp\ccUtdZh9.s 			page 10


 338 002c 0022     		mov	r2, #0
 339 002e 074B     		ldr	r3, .L16+8
 340 0030 1A60     		str	r2, [r3]
  58:.\z.c         ****     setLed(0,0,0);
 341              		.loc 1 58 0
 342 0032 0132     		add	r2, r2, #1
 343 0034 034B     		ldr	r3, .L16
 344 0036 1A71     		strb	r2, [r3, #4]
  59:.\z.c         **** }
 345              		.loc 1 59 0
 346 0038 0020     		mov	r0, #0
 347 003a 0021     		mov	r1, #0
 348 003c 0022     		mov	r2, #0
 349 003e FFF7FEFF 		bl	setLed
 350              	.LVL44:
  60:.\z.c         **** 
 351              		.loc 1 60 0
 352              		@ sp needed
 353 0042 08BD     		pop	{r3, pc}
 354              	.L17:
 355              		.align	2
 356              	.L16:
 357 0044 00000000 		.word	.LANCHOR0
 358 0048 00000000 		.word	.LANCHOR1
 359 004c 00000000 		.word	zPos
 360              		.cfi_endproc
 361              	.LFE36:
 362              		.size	calibrateZ, .-calibrateZ
 363              		.global	__aeabi_uidiv
 364              		.section	.text.setZPos,"ax",%progbits
 365              		.align	2
 366              		.global	setZPos
 367              		.code	16
 368              		.thumb_func
 369              		.type	setZPos, %function
 370              	setZPos:
 371              	.LFB37:
  63:.\z.c         ****     uint32 i;
 372              		.loc 1 63 0
 373              		.cfi_startproc
 374              	.LVL45:
 375 0000 38B5     		push	{r3, r4, r5, lr}
 376              		.cfi_def_cfa_offset 16
 377              		.cfi_offset 3, -16
 378              		.cfi_offset 4, -12
 379              		.cfi_offset 5, -8
 380              		.cfi_offset 14, -4
 381 0002 041C     		mov	r4, r0
 382              	.LVL46:
  68:.\z.c         ****     
 383              		.loc 1 68 0
 384 0004 0022     		mov	r2, #0
 385 0006 294B     		ldr	r3, .L28
 386 0008 5A70     		strb	r2, [r3, #1]
  70:.\z.c         ****     {
 387              		.loc 1 70 0
 388 000a 294B     		ldr	r3, .L28+4
ARM GAS  C:\Users\JEPPES~1\AppData\Local\Temp\ccUtdZh9.s 			page 11


 389 000c 1B79     		ldrb	r3, [r3, #4]
 390 000e 012B     		cmp	r3, #1
 391 0010 46D1     		bne	.L19
  73:.\z.c         ****         if(zDes < zPos)
 392              		.loc 1 73 0
 393 0012 274B     		ldr	r3, .L28+4
 394 0014 1868     		ldr	r0, [r3]
 395              	.LVL47:
 396 0016 6043     		mul	r0, r4
 397 0018 FF21     		mov	r1, #255
 398 001a FFF7FEFF 		bl	__aeabi_uidiv
 399              	.LVL48:
 400 001e 041E     		sub	r4, r0, #0
 401              	.LVL49:
  74:.\z.c         ****         {
 402              		.loc 1 74 0
 403 0020 244B     		ldr	r3, .L28+8
 404 0022 1B68     		ldr	r3, [r3]
 405 0024 9C42     		cmp	r4, r3
 406 0026 1CD2     		bcs	.L20
  76:.\z.c         ****             zSteps = zPos - zDes;
 407              		.loc 1 76 0
 408 0028 0020     		mov	r0, #0
 409              	.LVL50:
 410 002a 0121     		mov	r1, #1
 411 002c 0022     		mov	r2, #0
 412 002e FFF7FEFF 		bl	setLed
 413              	.LVL51:
  77:.\z.c         ****             for(i = 0; i < zSteps && isrStopZ == 0; i++)
 414              		.loc 1 77 0
 415 0032 204B     		ldr	r3, .L28+8
 416 0034 1D68     		ldr	r5, [r3]
 417 0036 2D1B     		sub	r5, r5, r4
 418              	.LVL52:
  78:.\z.c         ****             {
 419              		.loc 1 78 0
 420 0038 0024     		mov	r4, #0
 421              	.LVL53:
 422 003a 06E0     		b	.L21
 423              	.LVL54:
 424              	.L23:
  80:.\z.c         ****                 zPos--;                
 425              		.loc 1 80 0 discriminator 4
 426 003c FFF7FEFF 		bl	stepZBackwards
 427              	.LVL55:
  81:.\z.c         ****             }
 428              		.loc 1 81 0 discriminator 4
 429 0040 1C4A     		ldr	r2, .L28+8
 430 0042 1368     		ldr	r3, [r2]
 431 0044 013B     		sub	r3, r3, #1
 432 0046 1360     		str	r3, [r2]
  78:.\z.c         ****             {
 433              		.loc 1 78 0 discriminator 4
 434 0048 0134     		add	r4, r4, #1
 435              	.LVL56:
 436              	.L21:
  78:.\z.c         ****             {
ARM GAS  C:\Users\JEPPES~1\AppData\Local\Temp\ccUtdZh9.s 			page 12


 437              		.loc 1 78 0 is_stmt 0 discriminator 1
 438 004a AC42     		cmp	r4, r5
 439 004c 03D2     		bcs	.L22
  78:.\z.c         ****             {
 440              		.loc 1 78 0 discriminator 3
 441 004e 174B     		ldr	r3, .L28
 442 0050 5B78     		ldrb	r3, [r3, #1]
 443 0052 002B     		cmp	r3, #0
 444 0054 F2D0     		beq	.L23
 445              	.L22:
  83:.\z.c         ****         }
 446              		.loc 1 83 0 is_stmt 1
 447 0056 0020     		mov	r0, #0
 448 0058 0021     		mov	r1, #0
 449 005a 0022     		mov	r2, #0
 450 005c FFF7FEFF 		bl	setLed
 451              	.LVL57:
 452 0060 23E0     		b	.L18
 453              	.LVL58:
 454              	.L20:
  85:.\z.c         ****         {
 455              		.loc 1 85 0
 456 0062 9842     		cmp	r0, r3
 457 0064 21D9     		bls	.L18
  87:.\z.c         ****             zSteps = zDes - zPos;
 458              		.loc 1 87 0
 459 0066 0020     		mov	r0, #0
 460              	.LVL59:
 461 0068 0121     		mov	r1, #1
 462 006a 0022     		mov	r2, #0
 463 006c FFF7FEFF 		bl	setLed
 464              	.LVL60:
  88:.\z.c         ****             for(i = 0; i < zSteps && isrStopZ == 0; i++)
 465              		.loc 1 88 0
 466 0070 104B     		ldr	r3, .L28+8
 467 0072 1D68     		ldr	r5, [r3]
 468 0074 651B     		sub	r5, r4, r5
 469              	.LVL61:
  89:.\z.c         ****             {
 470              		.loc 1 89 0
 471 0076 0024     		mov	r4, #0
 472              	.LVL62:
 473 0078 06E0     		b	.L25
 474              	.LVL63:
 475              	.L27:
  91:.\z.c         ****                 zPos++;                
 476              		.loc 1 91 0 discriminator 4
 477 007a FFF7FEFF 		bl	stepZForwards
 478              	.LVL64:
  92:.\z.c         ****             }
 479              		.loc 1 92 0 discriminator 4
 480 007e 0D4A     		ldr	r2, .L28+8
 481 0080 1368     		ldr	r3, [r2]
 482 0082 0133     		add	r3, r3, #1
 483 0084 1360     		str	r3, [r2]
  89:.\z.c         ****             {
 484              		.loc 1 89 0 discriminator 4
ARM GAS  C:\Users\JEPPES~1\AppData\Local\Temp\ccUtdZh9.s 			page 13


 485 0086 0134     		add	r4, r4, #1
 486              	.LVL65:
 487              	.L25:
  89:.\z.c         ****             {
 488              		.loc 1 89 0 is_stmt 0 discriminator 1
 489 0088 AC42     		cmp	r4, r5
 490 008a 03D2     		bcs	.L26
  89:.\z.c         ****             {
 491              		.loc 1 89 0 discriminator 3
 492 008c 074B     		ldr	r3, .L28
 493 008e 5B78     		ldrb	r3, [r3, #1]
 494 0090 002B     		cmp	r3, #0
 495 0092 F2D0     		beq	.L27
 496              	.L26:
  94:.\z.c         ****         }
 497              		.loc 1 94 0 is_stmt 1
 498 0094 0020     		mov	r0, #0
 499 0096 0021     		mov	r1, #0
 500 0098 0022     		mov	r2, #0
 501 009a FFF7FEFF 		bl	setLed
 502              	.LVL66:
 503 009e 04E0     		b	.L18
 504              	.LVL67:
 505              	.L19:
  99:.\z.c         ****         setZPos(zVal);
 506              		.loc 1 99 0
 507 00a0 FFF7FEFF 		bl	calibrateZ
 508              	.LVL68:
 100:.\z.c         ****     }
 509              		.loc 1 100 0
 510 00a4 201C     		mov	r0, r4
 511 00a6 FFF7FEFF 		bl	setZPos
 512              	.LVL69:
 513              	.L18:
 102:.\z.c         **** 
 514              		.loc 1 102 0
 515              		@ sp needed
 516 00aa 38BD     		pop	{r3, r4, r5, pc}
 517              	.L29:
 518              		.align	2
 519              	.L28:
 520 00ac 00000000 		.word	.LANCHOR1
 521 00b0 00000000 		.word	.LANCHOR0
 522 00b4 00000000 		.word	zPos
 523              		.cfi_endproc
 524              	.LFE37:
 525              		.size	setZPos, .-setZPos
 526              		.section	.text.stopZ,"ax",%progbits
 527              		.align	2
 528              		.global	stopZ
 529              		.code	16
 530              		.thumb_func
 531              		.type	stopZ, %function
 532              	stopZ:
 533              	.LFB42:
 168:.\z.c         **** 
 169:.\z.c         **** void stopZ()
ARM GAS  C:\Users\JEPPES~1\AppData\Local\Temp\ccUtdZh9.s 			page 14


 170:.\z.c         **** {
 534              		.loc 1 170 0
 535              		.cfi_startproc
 536 0000 08B5     		push	{r3, lr}
 537              		.cfi_def_cfa_offset 8
 538              		.cfi_offset 3, -8
 539              		.cfi_offset 14, -4
 171:.\z.c         ****     Pin_1a_Z_Write(0);
 540              		.loc 1 171 0
 541 0002 0020     		mov	r0, #0
 542 0004 FFF7FEFF 		bl	Pin_1a_Z_Write
 543              	.LVL70:
 172:.\z.c         **** 	Pin_2a_Z_Write(0);
 544              		.loc 1 172 0
 545 0008 0020     		mov	r0, #0
 546 000a FFF7FEFF 		bl	Pin_2a_Z_Write
 547              	.LVL71:
 173:.\z.c         **** 	Pin_1b_Z_Write(0);
 548              		.loc 1 173 0
 549 000e 0020     		mov	r0, #0
 550 0010 FFF7FEFF 		bl	Pin_1b_Z_Write
 551              	.LVL72:
 174:.\z.c         **** 	Pin_2b_Z_Write(0);
 552              		.loc 1 174 0
 553 0014 0020     		mov	r0, #0
 554 0016 FFF7FEFF 		bl	Pin_2b_Z_Write
 555              	.LVL73:
 175:.\z.c         **** }
 556              		.loc 1 175 0
 557              		@ sp needed
 558 001a 08BD     		pop	{r3, pc}
 559              		.cfi_endproc
 560              	.LFE42:
 561              		.size	stopZ, .-stopZ
 562              		.section	.text.isr_Z,"ax",%progbits
 563              		.align	2
 564              		.global	isr_Z
 565              		.code	16
 566              		.thumb_func
 567              		.type	isr_Z, %function
 568              	isr_Z:
 569              	.LFB35:
  33:.\z.c         ****     interrupt_Z_Disable();
 570              		.loc 1 33 0
 571              		.cfi_startproc
 572 0000 10B5     		push	{r4, lr}
 573              		.cfi_def_cfa_offset 8
 574              		.cfi_offset 4, -8
 575              		.cfi_offset 14, -4
  34:.\z.c         ****     uint32 i;
 576              		.loc 1 34 0
 577 0002 FFF7FEFF 		bl	interrupt_Z_Disable
 578              	.LVL74:
  36:.\z.c         ****     setLed(0,0,1);
 579              		.loc 1 36 0
 580 0006 FFF7FEFF 		bl	stopZ
 581              	.LVL75:
ARM GAS  C:\Users\JEPPES~1\AppData\Local\Temp\ccUtdZh9.s 			page 15


  37:.\z.c         ****     for(i = 0; i < interruptSteps; i++)
 582              		.loc 1 37 0
 583 000a 0020     		mov	r0, #0
 584 000c 0021     		mov	r1, #0
 585 000e 0122     		mov	r2, #1
 586 0010 FFF7FEFF 		bl	setLed
 587              	.LVL76:
  38:.\z.c         ****     {
 588              		.loc 1 38 0
 589 0014 0024     		mov	r4, #0
 590 0016 02E0     		b	.L32
 591              	.LVL77:
 592              	.L33:
  40:.\z.c         ****     }
 593              		.loc 1 40 0 discriminator 3
 594 0018 FFF7FEFF 		bl	stepZForwards
 595              	.LVL78:
  38:.\z.c         ****     {
 596              		.loc 1 38 0 discriminator 3
 597 001c 0134     		add	r4, r4, #1
 598              	.LVL79:
 599              	.L32:
  38:.\z.c         ****     {
 600              		.loc 1 38 0 is_stmt 0 discriminator 1
 601 001e 312C     		cmp	r4, #49
 602 0020 FAD9     		bls	.L33
  42:.\z.c         ****     setLed(0,0,0);
 603              		.loc 1 42 0 is_stmt 1
 604 0022 0122     		mov	r2, #1
 605 0024 054B     		ldr	r3, .L34
 606 0026 1A70     		strb	r2, [r3]
  43:.\z.c         ****     interrupt_Z_ClearPending();
 607              		.loc 1 43 0
 608 0028 0020     		mov	r0, #0
 609 002a 0021     		mov	r1, #0
 610 002c 0022     		mov	r2, #0
 611 002e FFF7FEFF 		bl	setLed
 612              	.LVL80:
  44:.\z.c         ****     interrupt_Z_Enable();
 613              		.loc 1 44 0
 614 0032 FFF7FEFF 		bl	interrupt_Z_ClearPending
 615              	.LVL81:
  45:.\z.c         **** }
 616              		.loc 1 45 0
 617 0036 FFF7FEFF 		bl	interrupt_Z_Enable
 618              	.LVL82:
  46:.\z.c         **** 
 619              		.loc 1 46 0
 620              		@ sp needed
 621              	.LVL83:
 622 003a 10BD     		pop	{r4, pc}
 623              	.L35:
 624              		.align	2
 625              	.L34:
 626 003c 00000000 		.word	.LANCHOR1
 627              		.cfi_endproc
 628              	.LFE35:
ARM GAS  C:\Users\JEPPES~1\AppData\Local\Temp\ccUtdZh9.s 			page 16


 629              		.size	isr_Z, .-isr_Z
 630              		.comm	zPos,4,4
 631              		.global	zMax
 632              		.global	zFlag
 633              		.global	isrStopZ
 634              		.global	calibratedZ
 635              		.comm	i2cRxBuffer,4,4
 636              		.comm	i2cTxBuffer,4,4
 637              		.comm	backOfQueuePtr,4,4
 638              		.comm	frontOfQueuePtr,4,4
 639              		.data
 640              		.align	2
 641              		.set	.LANCHOR0,. + 0
 642              		.type	zMax, %object
 643              		.size	zMax, 4
 644              	zMax:
 645 0000 B80B0000 		.word	3000
 646              		.type	calibratedZ, %object
 647              		.size	calibratedZ, 1
 648              	calibratedZ:
 649 0004 01       		.byte	1
 650 0005 000000   		.bss
 651              		.set	.LANCHOR1,. + 0
 652              		.type	zFlag, %object
 653              		.size	zFlag, 1
 654              	zFlag:
 655 0000 00       		.space	1
 656              		.type	isrStopZ, %object
 657              		.size	isrStopZ, 1
 658              	isrStopZ:
 659 0001 00       		.space	1
 660              		.text
 661              	.Letext0:
 662              		.file 2 "Generated_Source\\PSoC4/cytypes.h"
 663              		.file 3 ".\\queue.h"
 664              		.file 4 ".\\i2c.h"
 665              		.file 5 "Generated_Source\\PSoC4/interrupt_Z.h"
 666              		.file 6 "Generated_Source\\PSoC4/Pin_1a_Z.h"
 667              		.file 7 "Generated_Source\\PSoC4/Pin_2a_Z.h"
 668              		.file 8 "Generated_Source\\PSoC4/Pin_1b_Z.h"
 669              		.file 9 "Generated_Source\\PSoC4/Pin_2b_Z.h"
 670              		.file 10 "Generated_Source\\PSoC4/CyLib.h"
 671              		.file 11 ".\\led.h"