ARM GAS  C:\Users\Simon\AppData\Local\Temp\ccOVYVYR.s 			page 1


   1              		.cpu cortex-m0
   2              		.fpu softvfp
   3              		.eabi_attribute 20, 1
   4              		.eabi_attribute 21, 1
   5              		.eabi_attribute 23, 3
   6              		.eabi_attribute 24, 1
   7              		.eabi_attribute 25, 1
   8              		.eabi_attribute 26, 1
   9              		.eabi_attribute 30, 1
  10              		.eabi_attribute 34, 0
  11              		.eabi_attribute 18, 4
  12              		.code	16
  13              		.file	"cyfitter_cfg.c"
  14              		.text
  15              	.Ltext0:
  16              		.cfi_sections	.debug_frame
  17              		.section	.text.cfg_write_bytes32,"ax",%progbits
  18              		.align	2
  19              		.code	16
  20              		.thumb_func
  21              		.type	cfg_write_bytes32, %function
  22              	cfg_write_bytes32:
  23              	.LFB3:
  24              		.file 1 ".\\Generated_Source\\PSoC4\\cyfitter_cfg.c"
   1:.\Generated_Source\PSoC4/cyfitter_cfg.c **** /*******************************************************************************
   2:.\Generated_Source\PSoC4/cyfitter_cfg.c **** * File Name: cyfitter_cfg.c
   3:.\Generated_Source\PSoC4/cyfitter_cfg.c **** * 
   4:.\Generated_Source\PSoC4/cyfitter_cfg.c **** * PSoC Creator  3.3 CP2
   5:.\Generated_Source\PSoC4/cyfitter_cfg.c **** *
   6:.\Generated_Source\PSoC4/cyfitter_cfg.c **** * Description:
   7:.\Generated_Source\PSoC4/cyfitter_cfg.c **** * This file contains device initialization code.
   8:.\Generated_Source\PSoC4/cyfitter_cfg.c **** * Except for the user defined sections in CyClockStartupError(), this file should not be modified.
   9:.\Generated_Source\PSoC4/cyfitter_cfg.c **** * This file is automatically generated by PSoC Creator.
  10:.\Generated_Source\PSoC4/cyfitter_cfg.c **** *
  11:.\Generated_Source\PSoC4/cyfitter_cfg.c **** ********************************************************************************
  12:.\Generated_Source\PSoC4/cyfitter_cfg.c **** * Copyright (c) 2007-2015 Cypress Semiconductor.  All rights reserved.
  13:.\Generated_Source\PSoC4/cyfitter_cfg.c **** * You may use this file only in accordance with the license, terms, conditions, 
  14:.\Generated_Source\PSoC4/cyfitter_cfg.c **** * disclaimers, and limitations in the end user license agreement accompanying 
  15:.\Generated_Source\PSoC4/cyfitter_cfg.c **** * the software package with which this file was provided.
  16:.\Generated_Source\PSoC4/cyfitter_cfg.c **** ********************************************************************************/
  17:.\Generated_Source\PSoC4/cyfitter_cfg.c **** 
  18:.\Generated_Source\PSoC4/cyfitter_cfg.c **** #include <string.h>
  19:.\Generated_Source\PSoC4/cyfitter_cfg.c **** #include "cytypes.h"
  20:.\Generated_Source\PSoC4/cyfitter_cfg.c **** #include "cydevice_trm.h"
  21:.\Generated_Source\PSoC4/cyfitter_cfg.c **** #include "cyfitter.h"
  22:.\Generated_Source\PSoC4/cyfitter_cfg.c **** #include "CyLib.h"
  23:.\Generated_Source\PSoC4/cyfitter_cfg.c **** #include "CyLFClk.h"
  24:.\Generated_Source\PSoC4/cyfitter_cfg.c **** #include "cyfitter_cfg.h"
  25:.\Generated_Source\PSoC4/cyfitter_cfg.c **** 
  26:.\Generated_Source\PSoC4/cyfitter_cfg.c **** 
  27:.\Generated_Source\PSoC4/cyfitter_cfg.c **** #if defined(__GNUC__) || defined(__ARMCC_VERSION)
  28:.\Generated_Source\PSoC4/cyfitter_cfg.c ****     #define CYPACKED 
  29:.\Generated_Source\PSoC4/cyfitter_cfg.c ****     #define CYPACKED_ATTR __attribute__ ((packed))
  30:.\Generated_Source\PSoC4/cyfitter_cfg.c ****     #define CYALIGNED __attribute__ ((aligned))
  31:.\Generated_Source\PSoC4/cyfitter_cfg.c ****     #define CY_CFG_UNUSED __attribute__ ((unused))
  32:.\Generated_Source\PSoC4/cyfitter_cfg.c ****     #ifndef CY_CFG_SECTION
  33:.\Generated_Source\PSoC4/cyfitter_cfg.c ****         #define CY_CFG_SECTION __attribute__ ((section(".psocinit")))
ARM GAS  C:\Users\Simon\AppData\Local\Temp\ccOVYVYR.s 			page 2


  34:.\Generated_Source\PSoC4/cyfitter_cfg.c ****     #endif
  35:.\Generated_Source\PSoC4/cyfitter_cfg.c ****     
  36:.\Generated_Source\PSoC4/cyfitter_cfg.c ****     #if defined(__ARMCC_VERSION)
  37:.\Generated_Source\PSoC4/cyfitter_cfg.c ****         #define CY_CFG_MEMORY_BARRIER() __memory_changed()
  38:.\Generated_Source\PSoC4/cyfitter_cfg.c ****     #else
  39:.\Generated_Source\PSoC4/cyfitter_cfg.c ****         #define CY_CFG_MEMORY_BARRIER() __sync_synchronize()
  40:.\Generated_Source\PSoC4/cyfitter_cfg.c ****     #endif
  41:.\Generated_Source\PSoC4/cyfitter_cfg.c ****     
  42:.\Generated_Source\PSoC4/cyfitter_cfg.c **** #elif defined(__ICCARM__)
  43:.\Generated_Source\PSoC4/cyfitter_cfg.c ****     #include <intrinsics.h>
  44:.\Generated_Source\PSoC4/cyfitter_cfg.c **** 
  45:.\Generated_Source\PSoC4/cyfitter_cfg.c ****     #define CYPACKED __packed
  46:.\Generated_Source\PSoC4/cyfitter_cfg.c ****     #define CYPACKED_ATTR 
  47:.\Generated_Source\PSoC4/cyfitter_cfg.c ****     #define CYALIGNED _Pragma("data_alignment=4")
  48:.\Generated_Source\PSoC4/cyfitter_cfg.c ****     #define CY_CFG_UNUSED _Pragma("diag_suppress=Pe177")
  49:.\Generated_Source\PSoC4/cyfitter_cfg.c ****     #define CY_CFG_SECTION _Pragma("location=\".psocinit\"")
  50:.\Generated_Source\PSoC4/cyfitter_cfg.c ****     
  51:.\Generated_Source\PSoC4/cyfitter_cfg.c ****     #define CY_CFG_MEMORY_BARRIER() __DMB()
  52:.\Generated_Source\PSoC4/cyfitter_cfg.c ****     
  53:.\Generated_Source\PSoC4/cyfitter_cfg.c **** #else
  54:.\Generated_Source\PSoC4/cyfitter_cfg.c ****     #error Unsupported toolchain
  55:.\Generated_Source\PSoC4/cyfitter_cfg.c **** #endif
  56:.\Generated_Source\PSoC4/cyfitter_cfg.c **** 
  57:.\Generated_Source\PSoC4/cyfitter_cfg.c **** 
  58:.\Generated_Source\PSoC4/cyfitter_cfg.c **** CY_CFG_UNUSED
  59:.\Generated_Source\PSoC4/cyfitter_cfg.c **** static void CYMEMZERO(void *s, size_t n);
  60:.\Generated_Source\PSoC4/cyfitter_cfg.c **** CY_CFG_UNUSED
  61:.\Generated_Source\PSoC4/cyfitter_cfg.c **** static void CYMEMZERO(void *s, size_t n)
  62:.\Generated_Source\PSoC4/cyfitter_cfg.c **** {
  63:.\Generated_Source\PSoC4/cyfitter_cfg.c **** 	(void)memset(s, 0, n);
  64:.\Generated_Source\PSoC4/cyfitter_cfg.c **** }
  65:.\Generated_Source\PSoC4/cyfitter_cfg.c **** CY_CFG_UNUSED
  66:.\Generated_Source\PSoC4/cyfitter_cfg.c **** static void CYCONFIGCPY(void *dest, const void *src, size_t n);
  67:.\Generated_Source\PSoC4/cyfitter_cfg.c **** CY_CFG_UNUSED
  68:.\Generated_Source\PSoC4/cyfitter_cfg.c **** static void CYCONFIGCPY(void *dest, const void *src, size_t n)
  69:.\Generated_Source\PSoC4/cyfitter_cfg.c **** {
  70:.\Generated_Source\PSoC4/cyfitter_cfg.c **** 	(void)memcpy(dest, src, n);
  71:.\Generated_Source\PSoC4/cyfitter_cfg.c **** }
  72:.\Generated_Source\PSoC4/cyfitter_cfg.c **** CY_CFG_UNUSED
  73:.\Generated_Source\PSoC4/cyfitter_cfg.c **** static void CYCONFIGCPYCODE(void *dest, const void *src, size_t n);
  74:.\Generated_Source\PSoC4/cyfitter_cfg.c **** CY_CFG_UNUSED
  75:.\Generated_Source\PSoC4/cyfitter_cfg.c **** static void CYCONFIGCPYCODE(void *dest, const void *src, size_t n)
  76:.\Generated_Source\PSoC4/cyfitter_cfg.c **** {
  77:.\Generated_Source\PSoC4/cyfitter_cfg.c **** 	(void)memcpy(dest, src, n);
  78:.\Generated_Source\PSoC4/cyfitter_cfg.c **** }
  79:.\Generated_Source\PSoC4/cyfitter_cfg.c **** 
  80:.\Generated_Source\PSoC4/cyfitter_cfg.c **** 
  81:.\Generated_Source\PSoC4/cyfitter_cfg.c **** 
  82:.\Generated_Source\PSoC4/cyfitter_cfg.c **** /* Clock startup error codes                                                   */
  83:.\Generated_Source\PSoC4/cyfitter_cfg.c **** #define CYCLOCKSTART_NO_ERROR    0u
  84:.\Generated_Source\PSoC4/cyfitter_cfg.c **** #define CYCLOCKSTART_XTAL_ERROR  1u
  85:.\Generated_Source\PSoC4/cyfitter_cfg.c **** #define CYCLOCKSTART_32KHZ_ERROR 2u
  86:.\Generated_Source\PSoC4/cyfitter_cfg.c **** #define CYCLOCKSTART_PLL_ERROR   3u
  87:.\Generated_Source\PSoC4/cyfitter_cfg.c **** 
  88:.\Generated_Source\PSoC4/cyfitter_cfg.c **** #ifdef CY_NEED_CYCLOCKSTARTUPERROR
  89:.\Generated_Source\PSoC4/cyfitter_cfg.c **** /*******************************************************************************
  90:.\Generated_Source\PSoC4/cyfitter_cfg.c **** * Function Name: CyClockStartupError
ARM GAS  C:\Users\Simon\AppData\Local\Temp\ccOVYVYR.s 			page 3


  91:.\Generated_Source\PSoC4/cyfitter_cfg.c **** ********************************************************************************
  92:.\Generated_Source\PSoC4/cyfitter_cfg.c **** * Summary:
  93:.\Generated_Source\PSoC4/cyfitter_cfg.c **** *  If an error is encountered during clock configuration (crystal startup error,
  94:.\Generated_Source\PSoC4/cyfitter_cfg.c **** *  PLL lock error, etc.), the system will end up here.  Unless reimplemented by
  95:.\Generated_Source\PSoC4/cyfitter_cfg.c **** *  the customer, this function will stop in an infinite loop.
  96:.\Generated_Source\PSoC4/cyfitter_cfg.c **** *
  97:.\Generated_Source\PSoC4/cyfitter_cfg.c **** * Parameters:
  98:.\Generated_Source\PSoC4/cyfitter_cfg.c **** *   void
  99:.\Generated_Source\PSoC4/cyfitter_cfg.c **** *
 100:.\Generated_Source\PSoC4/cyfitter_cfg.c **** * Return:
 101:.\Generated_Source\PSoC4/cyfitter_cfg.c **** *   void
 102:.\Generated_Source\PSoC4/cyfitter_cfg.c **** *
 103:.\Generated_Source\PSoC4/cyfitter_cfg.c **** *******************************************************************************/
 104:.\Generated_Source\PSoC4/cyfitter_cfg.c **** CY_CFG_UNUSED
 105:.\Generated_Source\PSoC4/cyfitter_cfg.c **** static void CyClockStartupError(uint8 errorCode);
 106:.\Generated_Source\PSoC4/cyfitter_cfg.c **** CY_CFG_UNUSED
 107:.\Generated_Source\PSoC4/cyfitter_cfg.c **** static void CyClockStartupError(uint8 errorCode)
 108:.\Generated_Source\PSoC4/cyfitter_cfg.c **** {
 109:.\Generated_Source\PSoC4/cyfitter_cfg.c ****     /* To remove the compiler warning if errorCode not used.                */
 110:.\Generated_Source\PSoC4/cyfitter_cfg.c ****     errorCode = errorCode;
 111:.\Generated_Source\PSoC4/cyfitter_cfg.c **** 
 112:.\Generated_Source\PSoC4/cyfitter_cfg.c ****     /* `#START CyClockStartupError` */
 113:.\Generated_Source\PSoC4/cyfitter_cfg.c **** 
 114:.\Generated_Source\PSoC4/cyfitter_cfg.c ****     /* If we have a clock startup error (bad MHz crystal, PLL lock, etc.),  */
 115:.\Generated_Source\PSoC4/cyfitter_cfg.c ****     /* we will end up here to allow the customer to implement something to  */
 116:.\Generated_Source\PSoC4/cyfitter_cfg.c ****     /* deal with the clock condition.                                       */
 117:.\Generated_Source\PSoC4/cyfitter_cfg.c **** 
 118:.\Generated_Source\PSoC4/cyfitter_cfg.c ****     /* `#END` */
 119:.\Generated_Source\PSoC4/cyfitter_cfg.c **** 
 120:.\Generated_Source\PSoC4/cyfitter_cfg.c ****     /* If nothing else, stop here since the clocks have not started         */
 121:.\Generated_Source\PSoC4/cyfitter_cfg.c ****     /* correctly.                                                           */
 122:.\Generated_Source\PSoC4/cyfitter_cfg.c ****     while(1) {}
 123:.\Generated_Source\PSoC4/cyfitter_cfg.c **** }
 124:.\Generated_Source\PSoC4/cyfitter_cfg.c **** #endif
 125:.\Generated_Source\PSoC4/cyfitter_cfg.c **** 
 126:.\Generated_Source\PSoC4/cyfitter_cfg.c **** #define CY_CFG_BASE_ADDR_COUNT 7u
 127:.\Generated_Source\PSoC4/cyfitter_cfg.c **** CYPACKED typedef struct
 128:.\Generated_Source\PSoC4/cyfitter_cfg.c **** {
 129:.\Generated_Source\PSoC4/cyfitter_cfg.c **** 	uint8 offset;
 130:.\Generated_Source\PSoC4/cyfitter_cfg.c **** 	uint8 value;
 131:.\Generated_Source\PSoC4/cyfitter_cfg.c **** } CYPACKED_ATTR cy_cfg_addrvalue_t;
 132:.\Generated_Source\PSoC4/cyfitter_cfg.c **** 
 133:.\Generated_Source\PSoC4/cyfitter_cfg.c **** 
 134:.\Generated_Source\PSoC4/cyfitter_cfg.c **** 
 135:.\Generated_Source\PSoC4/cyfitter_cfg.c **** /*******************************************************************************
 136:.\Generated_Source\PSoC4/cyfitter_cfg.c **** * Function Name: cfg_write_bytes32
 137:.\Generated_Source\PSoC4/cyfitter_cfg.c **** ********************************************************************************
 138:.\Generated_Source\PSoC4/cyfitter_cfg.c **** * Summary:
 139:.\Generated_Source\PSoC4/cyfitter_cfg.c **** *  This function is used for setting up the chip configuration areas that
 140:.\Generated_Source\PSoC4/cyfitter_cfg.c **** *  contain relatively sparse data.
 141:.\Generated_Source\PSoC4/cyfitter_cfg.c **** *
 142:.\Generated_Source\PSoC4/cyfitter_cfg.c **** * Parameters:
 143:.\Generated_Source\PSoC4/cyfitter_cfg.c **** *   void
 144:.\Generated_Source\PSoC4/cyfitter_cfg.c **** *
 145:.\Generated_Source\PSoC4/cyfitter_cfg.c **** * Return:
 146:.\Generated_Source\PSoC4/cyfitter_cfg.c **** *   void
 147:.\Generated_Source\PSoC4/cyfitter_cfg.c **** *
ARM GAS  C:\Users\Simon\AppData\Local\Temp\ccOVYVYR.s 			page 4


 148:.\Generated_Source\PSoC4/cyfitter_cfg.c **** *******************************************************************************/
 149:.\Generated_Source\PSoC4/cyfitter_cfg.c **** static void cfg_write_bytes32(const uint32 addr_table[], const cy_cfg_addrvalue_t data_table[]);
 150:.\Generated_Source\PSoC4/cyfitter_cfg.c **** static void cfg_write_bytes32(const uint32 addr_table[], const cy_cfg_addrvalue_t data_table[])
 151:.\Generated_Source\PSoC4/cyfitter_cfg.c **** {
  25              		.loc 1 151 0
  26              		.cfi_startproc
  27              	.LVL0:
  28 0000 F0B5     		push	{r4, r5, r6, r7, lr}
  29              		.cfi_def_cfa_offset 20
  30              		.cfi_offset 4, -20
  31              		.cfi_offset 5, -16
  32              		.cfi_offset 6, -12
  33              		.cfi_offset 7, -8
  34              		.cfi_offset 14, -4
  35              	.LVL1:
 152:.\Generated_Source\PSoC4/cyfitter_cfg.c **** 	/* For 32-bit little-endian architectures */
 153:.\Generated_Source\PSoC4/cyfitter_cfg.c **** 	uint32 i, j = 0u;
  36              		.loc 1 153 0
  37 0002 0025     		mov	r5, #0
 154:.\Generated_Source\PSoC4/cyfitter_cfg.c **** 	for (i = 0u; i < CY_CFG_BASE_ADDR_COUNT; i++)
  38              		.loc 1 154 0
  39 0004 0027     		mov	r7, #0
  40 0006 11E0     		b	.L2
  41              	.LVL2:
  42              	.L5:
  43              	.LBB2:
 155:.\Generated_Source\PSoC4/cyfitter_cfg.c **** 	{
 156:.\Generated_Source\PSoC4/cyfitter_cfg.c **** 		uint32 baseAddr = addr_table[i];
  44              		.loc 1 156 0
  45 0008 BB00     		lsl	r3, r7, #2
  46 000a C658     		ldr	r6, [r0, r3]
  47              	.LVL3:
 157:.\Generated_Source\PSoC4/cyfitter_cfg.c **** 		uint8 count = (uint8)baseAddr;
  48              		.loc 1 157 0
  49 000c F3B2     		uxtb	r3, r6
  50              	.LVL4:
 158:.\Generated_Source\PSoC4/cyfitter_cfg.c **** 		baseAddr &= 0xFFFFFF00u;
  51              		.loc 1 158 0
  52 000e FF22     		mov	r2, #255
  53 0010 9643     		bic	r6, r2
  54              	.LVL5:
 159:.\Generated_Source\PSoC4/cyfitter_cfg.c **** 		while (count != 0u)
  55              		.loc 1 159 0
  56 0012 08E0     		b	.L3
  57              	.L4:
 160:.\Generated_Source\PSoC4/cyfitter_cfg.c **** 		{
 161:.\Generated_Source\PSoC4/cyfitter_cfg.c **** 			CY_SET_XTND_REG8((void CYFAR *)(baseAddr + data_table[j].offset), data_table[j].value);
  58              		.loc 1 161 0
  59 0014 6A00     		lsl	r2, r5, #1
  60 0016 8A18     		add	r2, r1, r2
  61 0018 1478     		ldrb	r4, [r2]
  62 001a A419     		add	r4, r4, r6
  63 001c 5278     		ldrb	r2, [r2, #1]
  64 001e 2270     		strb	r2, [r4]
 162:.\Generated_Source\PSoC4/cyfitter_cfg.c **** 			j++;
  65              		.loc 1 162 0
  66 0020 0135     		add	r5, r5, #1
ARM GAS  C:\Users\Simon\AppData\Local\Temp\ccOVYVYR.s 			page 5


  67              	.LVL6:
 163:.\Generated_Source\PSoC4/cyfitter_cfg.c **** 			count--;
  68              		.loc 1 163 0
  69 0022 013B     		sub	r3, r3, #1
  70              	.LVL7:
  71 0024 DBB2     		uxtb	r3, r3
  72              	.LVL8:
  73              	.L3:
 159:.\Generated_Source\PSoC4/cyfitter_cfg.c **** 		{
  74              		.loc 1 159 0
  75 0026 002B     		cmp	r3, #0
  76 0028 F4D1     		bne	.L4
  77              	.LBE2:
 154:.\Generated_Source\PSoC4/cyfitter_cfg.c **** 	{
  78              		.loc 1 154 0 discriminator 2
  79 002a 0137     		add	r7, r7, #1
  80              	.LVL9:
  81              	.L2:
 154:.\Generated_Source\PSoC4/cyfitter_cfg.c **** 	{
  82              		.loc 1 154 0 is_stmt 0 discriminator 1
  83 002c 062F     		cmp	r7, #6
  84 002e EBD9     		bls	.L5
 164:.\Generated_Source\PSoC4/cyfitter_cfg.c **** 		}
 165:.\Generated_Source\PSoC4/cyfitter_cfg.c **** 	}
 166:.\Generated_Source\PSoC4/cyfitter_cfg.c **** }
  85              		.loc 1 166 0 is_stmt 1
  86              		@ sp needed
  87              	.LVL10:
  88              	.LVL11:
  89 0030 F0BD     		pop	{r4, r5, r6, r7, pc}
  90              		.cfi_endproc
  91              	.LFE3:
  92              		.size	cfg_write_bytes32, .-cfg_write_bytes32
  93 0032 C046     		.section	.text.CYMEMZERO,"ax",%progbits
  94              		.align	2
  95              		.code	16
  96              		.thumb_func
  97              		.type	CYMEMZERO, %function
  98              	CYMEMZERO:
  99              	.LFB0:
  62:.\Generated_Source\PSoC4/cyfitter_cfg.c **** 	(void)memset(s, 0, n);
 100              		.loc 1 62 0
 101              		.cfi_startproc
 102              	.LVL12:
 103 0000 08B5     		push	{r3, lr}
 104              		.cfi_def_cfa_offset 8
 105              		.cfi_offset 3, -8
 106              		.cfi_offset 14, -4
 107 0002 0A1C     		mov	r2, r1
  63:.\Generated_Source\PSoC4/cyfitter_cfg.c **** }
 108              		.loc 1 63 0
 109 0004 0021     		mov	r1, #0
 110              	.LVL13:
 111 0006 FFF7FEFF 		bl	memset
 112              	.LVL14:
  64:.\Generated_Source\PSoC4/cyfitter_cfg.c **** CY_CFG_UNUSED
 113              		.loc 1 64 0
ARM GAS  C:\Users\Simon\AppData\Local\Temp\ccOVYVYR.s 			page 6


 114              		@ sp needed
 115 000a 08BD     		pop	{r3, pc}
 116              		.cfi_endproc
 117              	.LFE0:
 118              		.size	CYMEMZERO, .-CYMEMZERO
 119              		.section	.psocinit,"ax",%progbits
 120              		.align	2
 121              		.code	16
 122              		.thumb_func
 123              		.type	ClockSetup, %function
 124              	ClockSetup:
 125              	.LFB4:
 167:.\Generated_Source\PSoC4/cyfitter_cfg.c **** 
 168:.\Generated_Source\PSoC4/cyfitter_cfg.c **** 
 169:.\Generated_Source\PSoC4/cyfitter_cfg.c **** /*******************************************************************************
 170:.\Generated_Source\PSoC4/cyfitter_cfg.c **** * Function Name: ClockSetup
 171:.\Generated_Source\PSoC4/cyfitter_cfg.c **** ********************************************************************************
 172:.\Generated_Source\PSoC4/cyfitter_cfg.c **** *
 173:.\Generated_Source\PSoC4/cyfitter_cfg.c **** * Summary:
 174:.\Generated_Source\PSoC4/cyfitter_cfg.c **** *   Performs the initialization of all of the clocks in the device based on the
 175:.\Generated_Source\PSoC4/cyfitter_cfg.c **** *   settings in the Clock tab of the DWR.  This includes enabling the requested
 176:.\Generated_Source\PSoC4/cyfitter_cfg.c **** *   clocks and setting the necessary dividers to produce the desired frequency. 
 177:.\Generated_Source\PSoC4/cyfitter_cfg.c **** *
 178:.\Generated_Source\PSoC4/cyfitter_cfg.c **** * Parameters:
 179:.\Generated_Source\PSoC4/cyfitter_cfg.c **** *   void
 180:.\Generated_Source\PSoC4/cyfitter_cfg.c **** *
 181:.\Generated_Source\PSoC4/cyfitter_cfg.c **** * Return:
 182:.\Generated_Source\PSoC4/cyfitter_cfg.c **** *   void
 183:.\Generated_Source\PSoC4/cyfitter_cfg.c **** *
 184:.\Generated_Source\PSoC4/cyfitter_cfg.c **** *******************************************************************************/
 185:.\Generated_Source\PSoC4/cyfitter_cfg.c **** static void ClockSetup(void);
 186:.\Generated_Source\PSoC4/cyfitter_cfg.c **** CY_CFG_SECTION
 187:.\Generated_Source\PSoC4/cyfitter_cfg.c **** static void ClockSetup(void)
 188:.\Generated_Source\PSoC4/cyfitter_cfg.c **** {
 126              		.loc 1 188 0
 127              		.cfi_startproc
 128 0000 38B5     		push	{r3, r4, r5, lr}
 129              		.cfi_def_cfa_offset 16
 130              		.cfi_offset 3, -16
 131              		.cfi_offset 4, -12
 132              		.cfi_offset 5, -8
 133              		.cfi_offset 14, -4
 189:.\Generated_Source\PSoC4/cyfitter_cfg.c **** 	/* Enable HALF_EN before trimming for the flash accelerator. */
 190:.\Generated_Source\PSoC4/cyfitter_cfg.c **** 	CY_SET_REG32((void CYXDATA *)(CYREG_CLK_SELECT), (CY_GET_REG32((void *)CYREG_CLK_SELECT) | 0x00040
 134              		.loc 1 190 0
 135 0002 194C     		ldr	r4, .L8
 136 0004 2368     		ldr	r3, [r4]
 137 0006 8022     		mov	r2, #128
 138 0008 D202     		lsl	r2, r2, #11
 139 000a 1343     		orr	r3, r2
 140 000c 2360     		str	r3, [r4]
 191:.\Generated_Source\PSoC4/cyfitter_cfg.c **** 
 192:.\Generated_Source\PSoC4/cyfitter_cfg.c **** 	/* Setup and trim IMO based on desired frequency. */
 193:.\Generated_Source\PSoC4/cyfitter_cfg.c **** 	CySysClkWriteImoFreq(24u);
 141              		.loc 1 193 0
 142 000e 1820     		mov	r0, #24
 143 0010 FFF7FEFF 		bl	CySysClkWriteImoFreq
ARM GAS  C:\Users\Simon\AppData\Local\Temp\ccOVYVYR.s 			page 7


 144              	.LVL15:
 194:.\Generated_Source\PSoC4/cyfitter_cfg.c **** 
 195:.\Generated_Source\PSoC4/cyfitter_cfg.c **** 	/* Disable HALF_EN since it is not required at this IMO frequency. */
 196:.\Generated_Source\PSoC4/cyfitter_cfg.c **** 	CY_SET_REG32((void CYXDATA *)(CYREG_CLK_SELECT), (CY_GET_REG32((void *)CYREG_CLK_SELECT) & 0xFFFBF
 145              		.loc 1 196 0
 146 0014 2268     		ldr	r2, [r4]
 147 0016 154B     		ldr	r3, .L8+4
 148 0018 1340     		and	r3, r2
 149 001a 2360     		str	r3, [r4]
 197:.\Generated_Source\PSoC4/cyfitter_cfg.c **** 	/* CYDEV_CLK_ILO_CONFIG Starting address: CYDEV_CLK_ILO_CONFIG */
 198:.\Generated_Source\PSoC4/cyfitter_cfg.c **** 	CY_SET_XTND_REG32((void CYFAR *)(CYREG_CLK_ILO_CONFIG), 0x80000006u);
 150              		.loc 1 198 0
 151 001c 144A     		ldr	r2, .L8+8
 152 001e 154B     		ldr	r3, .L8+12
 153 0020 1A60     		str	r2, [r3]
 199:.\Generated_Source\PSoC4/cyfitter_cfg.c **** 
 200:.\Generated_Source\PSoC4/cyfitter_cfg.c **** 
 201:.\Generated_Source\PSoC4/cyfitter_cfg.c **** 	/* CYDEV_CLK_SELECT00 Starting address: CYDEV_CLK_SELECT00 */
 202:.\Generated_Source\PSoC4/cyfitter_cfg.c **** 	CY_SET_XTND_REG32((void CYFAR *)(CYREG_CLK_SELECT02), 0x00000030u);
 154              		.loc 1 202 0
 155 0022 3022     		mov	r2, #48
 156 0024 144B     		ldr	r3, .L8+16
 157 0026 1A60     		str	r2, [r3]
 203:.\Generated_Source\PSoC4/cyfitter_cfg.c **** 	CY_SET_XTND_REG32((void CYFAR *)(CYREG_CLK_SELECT05), 0x00000020u);
 158              		.loc 1 203 0
 159 0028 103A     		sub	r2, r2, #16
 160 002a 144B     		ldr	r3, .L8+20
 161 002c 1A60     		str	r2, [r3]
 204:.\Generated_Source\PSoC4/cyfitter_cfg.c **** 	CY_SET_XTND_REG32((void CYFAR *)(CYREG_CLK_SELECT06), 0x00000010u);
 162              		.loc 1 204 0
 163 002e 103A     		sub	r2, r2, #16
 164 0030 134B     		ldr	r3, .L8+24
 165 0032 1A60     		str	r2, [r3]
 205:.\Generated_Source\PSoC4/cyfitter_cfg.c **** 
 206:.\Generated_Source\PSoC4/cyfitter_cfg.c **** 	/* CYDEV_CLK_IMO_CONFIG Starting address: CYDEV_CLK_IMO_CONFIG */
 207:.\Generated_Source\PSoC4/cyfitter_cfg.c **** 	CY_SET_XTND_REG32((void CYFAR *)(CYREG_CLK_IMO_CONFIG), 0x80000000u);
 166              		.loc 1 207 0
 167 0034 8022     		mov	r2, #128
 168 0036 1206     		lsl	r2, r2, #24
 169 0038 124B     		ldr	r3, .L8+28
 170 003a 1A60     		str	r2, [r3]
 208:.\Generated_Source\PSoC4/cyfitter_cfg.c **** 
 209:.\Generated_Source\PSoC4/cyfitter_cfg.c **** 	/* CYDEV_CLK_SELECT Starting address: CYDEV_CLK_SELECT */
 210:.\Generated_Source\PSoC4/cyfitter_cfg.c **** 	CY_SET_XTND_REG32((void CYFAR *)(CYREG_CLK_SELECT), 0x00000000u);
 171              		.loc 1 210 0
 172 003c 0025     		mov	r5, #0
 173 003e 2560     		str	r5, [r4]
 211:.\Generated_Source\PSoC4/cyfitter_cfg.c **** 
 212:.\Generated_Source\PSoC4/cyfitter_cfg.c **** 	/* CYDEV_CLK_DIVIDER_A00 Starting address: CYDEV_CLK_DIVIDER_A00 */
 213:.\Generated_Source\PSoC4/cyfitter_cfg.c **** 	CY_SET_XTND_REG32((void CYFAR *)(CYREG_CLK_DIVIDER_A00), 0x800000FEu);
 174              		.loc 1 213 0
 175 0040 114A     		ldr	r2, .L8+32
 176 0042 124B     		ldr	r3, .L8+36
 177 0044 1A60     		str	r2, [r3]
 214:.\Generated_Source\PSoC4/cyfitter_cfg.c **** 
 215:.\Generated_Source\PSoC4/cyfitter_cfg.c **** 	/* CYDEV_CLK_DIVIDER_B00 Starting address: CYDEV_CLK_DIVIDER_B00 */
 216:.\Generated_Source\PSoC4/cyfitter_cfg.c **** 	CY_SET_XTND_REG32((void CYFAR *)(CYREG_CLK_DIVIDER_B00), 0xC00000FEu);
ARM GAS  C:\Users\Simon\AppData\Local\Temp\ccOVYVYR.s 			page 8


 178              		.loc 1 216 0
 179 0046 124A     		ldr	r2, .L8+40
 180 0048 124B     		ldr	r3, .L8+44
 181 004a 1A60     		str	r2, [r3]
 217:.\Generated_Source\PSoC4/cyfitter_cfg.c **** 
 218:.\Generated_Source\PSoC4/cyfitter_cfg.c **** 	/* CYDEV_CLK_DIVIDER_C00 Starting address: CYDEV_CLK_DIVIDER_C00 */
 219:.\Generated_Source\PSoC4/cyfitter_cfg.c **** 	CY_SET_XTND_REG32((void CYFAR *)(CYREG_CLK_DIVIDER_C00), 0x8000000Eu);
 182              		.loc 1 219 0
 183 004c 124A     		ldr	r2, .L8+48
 184 004e 134B     		ldr	r3, .L8+52
 185 0050 1A60     		str	r2, [r3]
 220:.\Generated_Source\PSoC4/cyfitter_cfg.c **** 
 221:.\Generated_Source\PSoC4/cyfitter_cfg.c **** 	(void)CyIntSetVector(9u, &CySysWdtIsr);
 186              		.loc 1 221 0
 187 0052 0920     		mov	r0, #9
 188 0054 1249     		ldr	r1, .L8+56
 189 0056 FFF7FEFF 		bl	CyIntSetVector
 190              	.LVL16:
 222:.\Generated_Source\PSoC4/cyfitter_cfg.c **** 	CyIntEnable(9u);
 191              		.loc 1 222 0
 192 005a 0920     		mov	r0, #9
 193 005c FFF7FEFF 		bl	CyIntEnable
 194              	.LVL17:
 223:.\Generated_Source\PSoC4/cyfitter_cfg.c **** 	CY_SET_XTND_REG32((void CYFAR *)(CYREG_WDT_CONFIG), 0x00000000u);
 195              		.loc 1 223 0
 196 0060 104B     		ldr	r3, .L8+60
 197 0062 1D60     		str	r5, [r3]
 224:.\Generated_Source\PSoC4/cyfitter_cfg.c **** }
 198              		.loc 1 224 0
 199              		@ sp needed
 200 0064 38BD     		pop	{r3, r4, r5, pc}
 201              	.L9:
 202 0066 C046     		.align	2
 203              	.L8:
 204 0068 00010B40 		.word	1074462976
 205 006c FFFFFBFF 		.word	-262145
 206 0070 06000080 		.word	-2147483642
 207 0074 04010B40 		.word	1074462980
 208 0078 08020240 		.word	1073873416
 209 007c 14020240 		.word	1073873428
 210 0080 18020240 		.word	1073873432
 211 0084 08010B40 		.word	1074462984
 212 0088 FE000080 		.word	-2147483394
 213 008c 00000240 		.word	1073872896
 214 0090 FE0000C0 		.word	-1073741570
 215 0094 40000240 		.word	1073872960
 216 0098 0E000080 		.word	-2147483634
 217 009c 80000240 		.word	1073873024
 218 00a0 00000000 		.word	CySysWdtIsr
 219 00a4 0C020B40 		.word	1074463244
 220              		.cfi_endproc
 221              	.LFE4:
 222              		.size	ClockSetup, .-ClockSetup
 223              		.section	.text.SetAnalogRoutingPumps,"ax",%progbits
 224              		.align	2
 225              		.global	SetAnalogRoutingPumps
 226              		.code	16
ARM GAS  C:\Users\Simon\AppData\Local\Temp\ccOVYVYR.s 			page 9


 227              		.thumb_func
 228              		.type	SetAnalogRoutingPumps, %function
 229              	SetAnalogRoutingPumps:
 230              	.LFB6:
 225:.\Generated_Source\PSoC4/cyfitter_cfg.c **** 
 226:.\Generated_Source\PSoC4/cyfitter_cfg.c **** 
 227:.\Generated_Source\PSoC4/cyfitter_cfg.c **** /* Analog API Functions */
 228:.\Generated_Source\PSoC4/cyfitter_cfg.c **** 
 229:.\Generated_Source\PSoC4/cyfitter_cfg.c **** 
 230:.\Generated_Source\PSoC4/cyfitter_cfg.c **** /*******************************************************************************
 231:.\Generated_Source\PSoC4/cyfitter_cfg.c **** * Function Name: AnalogSetDefault
 232:.\Generated_Source\PSoC4/cyfitter_cfg.c **** ********************************************************************************
 233:.\Generated_Source\PSoC4/cyfitter_cfg.c **** *
 234:.\Generated_Source\PSoC4/cyfitter_cfg.c **** * Summary:
 235:.\Generated_Source\PSoC4/cyfitter_cfg.c **** *  Sets up the analog portions of the chip to default values based on chip
 236:.\Generated_Source\PSoC4/cyfitter_cfg.c **** *  configuration options from the project.
 237:.\Generated_Source\PSoC4/cyfitter_cfg.c **** *
 238:.\Generated_Source\PSoC4/cyfitter_cfg.c **** * Parameters:
 239:.\Generated_Source\PSoC4/cyfitter_cfg.c **** *  void
 240:.\Generated_Source\PSoC4/cyfitter_cfg.c **** *
 241:.\Generated_Source\PSoC4/cyfitter_cfg.c **** * Return:
 242:.\Generated_Source\PSoC4/cyfitter_cfg.c **** *  void
 243:.\Generated_Source\PSoC4/cyfitter_cfg.c **** *
 244:.\Generated_Source\PSoC4/cyfitter_cfg.c **** *******************************************************************************/
 245:.\Generated_Source\PSoC4/cyfitter_cfg.c **** static void AnalogSetDefault(void);
 246:.\Generated_Source\PSoC4/cyfitter_cfg.c **** static void AnalogSetDefault(void)
 247:.\Generated_Source\PSoC4/cyfitter_cfg.c **** {
 248:.\Generated_Source\PSoC4/cyfitter_cfg.c **** 	SetAnalogRoutingPumps(1);
 249:.\Generated_Source\PSoC4/cyfitter_cfg.c **** }
 250:.\Generated_Source\PSoC4/cyfitter_cfg.c **** 
 251:.\Generated_Source\PSoC4/cyfitter_cfg.c **** 
 252:.\Generated_Source\PSoC4/cyfitter_cfg.c **** /*******************************************************************************
 253:.\Generated_Source\PSoC4/cyfitter_cfg.c **** * Function Name: SetAnalogRoutingPumps
 254:.\Generated_Source\PSoC4/cyfitter_cfg.c **** ********************************************************************************
 255:.\Generated_Source\PSoC4/cyfitter_cfg.c **** *
 256:.\Generated_Source\PSoC4/cyfitter_cfg.c **** * Summary:
 257:.\Generated_Source\PSoC4/cyfitter_cfg.c **** * Enables or disables the analog pumps feeding analog routing switches.
 258:.\Generated_Source\PSoC4/cyfitter_cfg.c **** * Intended to be called at startup, based on the Vdda system configuration;
 259:.\Generated_Source\PSoC4/cyfitter_cfg.c **** * may be called during operation when the user informs us that the Vdda voltage crossed the pump th
 260:.\Generated_Source\PSoC4/cyfitter_cfg.c **** *
 261:.\Generated_Source\PSoC4/cyfitter_cfg.c **** * Parameters:
 262:.\Generated_Source\PSoC4/cyfitter_cfg.c **** *  enabled - 1 to enable the pumps, 0 to disable the pumps
 263:.\Generated_Source\PSoC4/cyfitter_cfg.c **** *
 264:.\Generated_Source\PSoC4/cyfitter_cfg.c **** * Return:
 265:.\Generated_Source\PSoC4/cyfitter_cfg.c **** *  void
 266:.\Generated_Source\PSoC4/cyfitter_cfg.c **** *
 267:.\Generated_Source\PSoC4/cyfitter_cfg.c **** *******************************************************************************/
 268:.\Generated_Source\PSoC4/cyfitter_cfg.c **** void SetAnalogRoutingPumps(uint8 enabled)
 269:.\Generated_Source\PSoC4/cyfitter_cfg.c **** {
 231              		.loc 1 269 0
 232              		.cfi_startproc
 233              	.LVL18:
 270:.\Generated_Source\PSoC4/cyfitter_cfg.c **** 	uint32 regValue = CY_GET_XTND_REG32((void *)(CYREG_SAR_PUMP_CTRL));
 234              		.loc 1 270 0
 235 0000 0C4B     		ldr	r3, .L15
 236 0002 1B68     		ldr	r3, [r3]
 237              	.LVL19:
ARM GAS  C:\Users\Simon\AppData\Local\Temp\ccOVYVYR.s 			page 10


 271:.\Generated_Source\PSoC4/cyfitter_cfg.c **** 	if (enabled != 0u)
 238              		.loc 1 271 0
 239 0004 0028     		cmp	r0, #0
 240 0006 03D0     		beq	.L11
 272:.\Generated_Source\PSoC4/cyfitter_cfg.c **** 	{
 273:.\Generated_Source\PSoC4/cyfitter_cfg.c **** 		regValue |= 0x80000000u;
 241              		.loc 1 273 0
 242 0008 8022     		mov	r2, #128
 243 000a 1206     		lsl	r2, r2, #24
 244 000c 1343     		orr	r3, r2
 245              	.LVL20:
 246 000e 01E0     		b	.L12
 247              	.L11:
 274:.\Generated_Source\PSoC4/cyfitter_cfg.c **** 	}
 275:.\Generated_Source\PSoC4/cyfitter_cfg.c **** 	else
 276:.\Generated_Source\PSoC4/cyfitter_cfg.c **** 	{
 277:.\Generated_Source\PSoC4/cyfitter_cfg.c **** 		regValue &= ~0x80000000u;
 248              		.loc 1 277 0
 249 0010 5B00     		lsl	r3, r3, #1
 250              	.LVL21:
 251 0012 5B08     		lsr	r3, r3, #1
 252              	.LVL22:
 253              	.L12:
 278:.\Generated_Source\PSoC4/cyfitter_cfg.c **** 	}
 279:.\Generated_Source\PSoC4/cyfitter_cfg.c **** 	CY_SET_XTND_REG32((void *)(CYREG_SAR_PUMP_CTRL), regValue);
 254              		.loc 1 279 0
 255 0014 074A     		ldr	r2, .L15
 256 0016 1360     		str	r3, [r2]
 280:.\Generated_Source\PSoC4/cyfitter_cfg.c **** 	regValue = CY_GET_XTND_REG32((void *)(CYREG_CLK_IMO_CONFIG));
 257              		.loc 1 280 0
 258 0018 074B     		ldr	r3, .L15+4
 259              	.LVL23:
 260 001a 1B68     		ldr	r3, [r3]
 261              	.LVL24:
 281:.\Generated_Source\PSoC4/cyfitter_cfg.c **** 	if (enabled != 0u)
 262              		.loc 1 281 0
 263 001c 0028     		cmp	r0, #0
 264 001e 03D0     		beq	.L13
 282:.\Generated_Source\PSoC4/cyfitter_cfg.c **** 	{
 283:.\Generated_Source\PSoC4/cyfitter_cfg.c **** 		regValue |= 0x02000000u;
 265              		.loc 1 283 0
 266 0020 8022     		mov	r2, #128
 267 0022 9204     		lsl	r2, r2, #18
 268 0024 1343     		orr	r3, r2
 269              	.LVL25:
 270 0026 01E0     		b	.L14
 271              	.L13:
 284:.\Generated_Source\PSoC4/cyfitter_cfg.c **** 	}
 285:.\Generated_Source\PSoC4/cyfitter_cfg.c **** 	else
 286:.\Generated_Source\PSoC4/cyfitter_cfg.c **** 	{
 287:.\Generated_Source\PSoC4/cyfitter_cfg.c **** 		regValue &= ~0x02000000u;
 272              		.loc 1 287 0
 273 0028 044A     		ldr	r2, .L15+8
 274 002a 1340     		and	r3, r2
 275              	.LVL26:
 276              	.L14:
 288:.\Generated_Source\PSoC4/cyfitter_cfg.c **** 	}
ARM GAS  C:\Users\Simon\AppData\Local\Temp\ccOVYVYR.s 			page 11


 289:.\Generated_Source\PSoC4/cyfitter_cfg.c **** 	CY_SET_XTND_REG32((void *)(CYREG_CLK_IMO_CONFIG), regValue);
 277              		.loc 1 289 0
 278 002c 024A     		ldr	r2, .L15+4
 279 002e 1360     		str	r3, [r2]
 290:.\Generated_Source\PSoC4/cyfitter_cfg.c **** }
 280              		.loc 1 290 0
 281              		@ sp needed
 282 0030 7047     		bx	lr
 283              	.L16:
 284 0032 C046     		.align	2
 285              	.L15:
 286 0034 80031A40 		.word	1075446656
 287 0038 08010B40 		.word	1074462984
 288 003c FFFFFFFD 		.word	-33554433
 289              		.cfi_endproc
 290              	.LFE6:
 291              		.size	SetAnalogRoutingPumps, .-SetAnalogRoutingPumps
 292              		.section	.text.AnalogSetDefault,"ax",%progbits
 293              		.align	2
 294              		.code	16
 295              		.thumb_func
 296              		.type	AnalogSetDefault, %function
 297              	AnalogSetDefault:
 298              	.LFB5:
 247:.\Generated_Source\PSoC4/cyfitter_cfg.c **** 	SetAnalogRoutingPumps(1);
 299              		.loc 1 247 0
 300              		.cfi_startproc
 301 0000 08B5     		push	{r3, lr}
 302              		.cfi_def_cfa_offset 8
 303              		.cfi_offset 3, -8
 304              		.cfi_offset 14, -4
 248:.\Generated_Source\PSoC4/cyfitter_cfg.c **** }
 305              		.loc 1 248 0
 306 0002 0120     		mov	r0, #1
 307 0004 FFF7FEFF 		bl	SetAnalogRoutingPumps
 308              	.LVL27:
 249:.\Generated_Source\PSoC4/cyfitter_cfg.c **** 
 309              		.loc 1 249 0
 310              		@ sp needed
 311 0008 08BD     		pop	{r3, pc}
 312              		.cfi_endproc
 313              	.LFE5:
 314              		.size	AnalogSetDefault, .-AnalogSetDefault
 315 000a C046     		.section	.psocinit
 316              		.align	2
 317              		.global	cyfitter_cfg
 318              		.code	16
 319              		.thumb_func
 320              		.type	cyfitter_cfg, %function
 321              	cyfitter_cfg:
 322              	.LFB7:
 291:.\Generated_Source\PSoC4/cyfitter_cfg.c **** 
 292:.\Generated_Source\PSoC4/cyfitter_cfg.c **** #define CY_AMUX_UNUSED CYREG_CM0_ROM_DWT
 293:.\Generated_Source\PSoC4/cyfitter_cfg.c **** 
 294:.\Generated_Source\PSoC4/cyfitter_cfg.c **** 
 295:.\Generated_Source\PSoC4/cyfitter_cfg.c **** /*******************************************************************************
 296:.\Generated_Source\PSoC4/cyfitter_cfg.c **** * Function Name: cyfitter_cfg
ARM GAS  C:\Users\Simon\AppData\Local\Temp\ccOVYVYR.s 			page 12


 297:.\Generated_Source\PSoC4/cyfitter_cfg.c **** ********************************************************************************
 298:.\Generated_Source\PSoC4/cyfitter_cfg.c **** * Summary:
 299:.\Generated_Source\PSoC4/cyfitter_cfg.c **** *  This function is called by the start-up code for the selected device. It
 300:.\Generated_Source\PSoC4/cyfitter_cfg.c **** *  performs all of the necessary device configuration based on the design
 301:.\Generated_Source\PSoC4/cyfitter_cfg.c **** *  settings.  This includes settings from the Design Wide Resources (DWR) such
 302:.\Generated_Source\PSoC4/cyfitter_cfg.c **** *  as Clocks and Pins as well as any component configuration that is necessary.
 303:.\Generated_Source\PSoC4/cyfitter_cfg.c **** *
 304:.\Generated_Source\PSoC4/cyfitter_cfg.c **** * Parameters:  
 305:.\Generated_Source\PSoC4/cyfitter_cfg.c **** *   void
 306:.\Generated_Source\PSoC4/cyfitter_cfg.c **** *
 307:.\Generated_Source\PSoC4/cyfitter_cfg.c **** * Return:
 308:.\Generated_Source\PSoC4/cyfitter_cfg.c **** *   void
 309:.\Generated_Source\PSoC4/cyfitter_cfg.c **** *
 310:.\Generated_Source\PSoC4/cyfitter_cfg.c **** *******************************************************************************/
 311:.\Generated_Source\PSoC4/cyfitter_cfg.c **** CY_CFG_SECTION
 312:.\Generated_Source\PSoC4/cyfitter_cfg.c **** void cyfitter_cfg(void)
 313:.\Generated_Source\PSoC4/cyfitter_cfg.c **** {
 323              		.loc 1 313 0
 324              		.cfi_startproc
 325 00a8 10B5     		push	{r4, lr}
 326              		.cfi_def_cfa_offset 8
 327              		.cfi_offset 4, -8
 328              		.cfi_offset 14, -4
 314:.\Generated_Source\PSoC4/cyfitter_cfg.c **** 	/* Disable interrupts by default. Let user enable if/when they want. */
 315:.\Generated_Source\PSoC4/cyfitter_cfg.c **** 	CyGlobalIntDisable;
 329              		.loc 1 315 0
 330              	@ 315 ".\Generated_Source\PSoC4\cyfitter_cfg.c" 1
 331 00aa 72B6     		CPSID   i
 332              	@ 0 "" 2
 316:.\Generated_Source\PSoC4/cyfitter_cfg.c **** 
 317:.\Generated_Source\PSoC4/cyfitter_cfg.c **** 	/* Enable the clock in the interrupt controller for the routed interrupts */
 318:.\Generated_Source\PSoC4/cyfitter_cfg.c **** 	CY_SET_REG8((void *)CYREG_UDB_UDBIF_INT_CLK_CTL, 0x01u);
 333              		.loc 1 318 0
 334              		.code	16
 335 00ac 0122     		mov	r2, #1
 336 00ae 3A4B     		ldr	r3, .L21
 337 00b0 1A70     		strb	r2, [r3]
 338              	.LVL28:
 339              	.LBB3:
 319:.\Generated_Source\PSoC4/cyfitter_cfg.c **** 	{
 320:.\Generated_Source\PSoC4/cyfitter_cfg.c **** 		static const uint32 CYCODE cy_cfg_addr_table[] = {
 321:.\Generated_Source\PSoC4/cyfitter_cfg.c **** 			0x400F3004u, /* Base address: 0x400F3000 Count: 4 */
 322:.\Generated_Source\PSoC4/cyfitter_cfg.c **** 			0x400F3101u, /* Base address: 0x400F3100 Count: 1 */
 323:.\Generated_Source\PSoC4/cyfitter_cfg.c **** 			0x400F3301u, /* Base address: 0x400F3300 Count: 1 */
 324:.\Generated_Source\PSoC4/cyfitter_cfg.c **** 			0x400F4004u, /* Base address: 0x400F4000 Count: 4 */
 325:.\Generated_Source\PSoC4/cyfitter_cfg.c **** 			0x400F4105u, /* Base address: 0x400F4100 Count: 5 */
 326:.\Generated_Source\PSoC4/cyfitter_cfg.c **** 			0x400F4203u, /* Base address: 0x400F4200 Count: 3 */
 327:.\Generated_Source\PSoC4/cyfitter_cfg.c **** 			0x400F4306u, /* Base address: 0x400F4300 Count: 6 */
 328:.\Generated_Source\PSoC4/cyfitter_cfg.c **** 		};
 329:.\Generated_Source\PSoC4/cyfitter_cfg.c **** 
 330:.\Generated_Source\PSoC4/cyfitter_cfg.c **** 		static const cy_cfg_addrvalue_t CYCODE cy_cfg_data_table[] = {
 331:.\Generated_Source\PSoC4/cyfitter_cfg.c **** 			{0x38u, 0x80u},
 332:.\Generated_Source\PSoC4/cyfitter_cfg.c **** 			{0x3Eu, 0x40u},
 333:.\Generated_Source\PSoC4/cyfitter_cfg.c **** 			{0x58u, 0x04u},
 334:.\Generated_Source\PSoC4/cyfitter_cfg.c **** 			{0x5Fu, 0x01u},
 335:.\Generated_Source\PSoC4/cyfitter_cfg.c **** 			{0x18u, 0x01u},
 336:.\Generated_Source\PSoC4/cyfitter_cfg.c **** 			{0xB4u, 0x01u},
ARM GAS  C:\Users\Simon\AppData\Local\Temp\ccOVYVYR.s 			page 13


 337:.\Generated_Source\PSoC4/cyfitter_cfg.c **** 			{0x6Bu, 0x80u},
 338:.\Generated_Source\PSoC4/cyfitter_cfg.c **** 			{0x6Fu, 0x20u},
 339:.\Generated_Source\PSoC4/cyfitter_cfg.c **** 			{0xDAu, 0x80u},
 340:.\Generated_Source\PSoC4/cyfitter_cfg.c **** 			{0xDCu, 0x20u},
 341:.\Generated_Source\PSoC4/cyfitter_cfg.c **** 			{0x03u, 0x20u},
 342:.\Generated_Source\PSoC4/cyfitter_cfg.c **** 			{0x07u, 0x80u},
 343:.\Generated_Source\PSoC4/cyfitter_cfg.c **** 			{0x9Fu, 0x80u},
 344:.\Generated_Source\PSoC4/cyfitter_cfg.c **** 			{0xA7u, 0x20u},
 345:.\Generated_Source\PSoC4/cyfitter_cfg.c **** 			{0xC0u, 0x30u},
 346:.\Generated_Source\PSoC4/cyfitter_cfg.c **** 			{0x6Cu, 0x40u},
 347:.\Generated_Source\PSoC4/cyfitter_cfg.c **** 			{0x70u, 0x08u},
 348:.\Generated_Source\PSoC4/cyfitter_cfg.c **** 			{0xDCu, 0x03u},
 349:.\Generated_Source\PSoC4/cyfitter_cfg.c **** 			{0x61u, 0x02u},
 350:.\Generated_Source\PSoC4/cyfitter_cfg.c **** 			{0xA1u, 0x02u},
 351:.\Generated_Source\PSoC4/cyfitter_cfg.c **** 			{0xB4u, 0x48u},
 352:.\Generated_Source\PSoC4/cyfitter_cfg.c **** 			{0xB5u, 0x02u},
 353:.\Generated_Source\PSoC4/cyfitter_cfg.c **** 			{0xD8u, 0x02u},
 354:.\Generated_Source\PSoC4/cyfitter_cfg.c **** 			{0xECu, 0x08u},
 355:.\Generated_Source\PSoC4/cyfitter_cfg.c **** 		};
 356:.\Generated_Source\PSoC4/cyfitter_cfg.c **** 
 357:.\Generated_Source\PSoC4/cyfitter_cfg.c **** 
 358:.\Generated_Source\PSoC4/cyfitter_cfg.c **** 
 359:.\Generated_Source\PSoC4/cyfitter_cfg.c **** 		CYPACKED typedef struct {
 360:.\Generated_Source\PSoC4/cyfitter_cfg.c **** 			void CYFAR *address;
 361:.\Generated_Source\PSoC4/cyfitter_cfg.c **** 			uint16 size;
 362:.\Generated_Source\PSoC4/cyfitter_cfg.c **** 		} CYPACKED_ATTR cfg_memset_t;
 363:.\Generated_Source\PSoC4/cyfitter_cfg.c **** 
 364:.\Generated_Source\PSoC4/cyfitter_cfg.c **** 		static const cfg_memset_t CYCODE cfg_memset_list [] = {
 365:.\Generated_Source\PSoC4/cyfitter_cfg.c **** 			/* address, size */
 366:.\Generated_Source\PSoC4/cyfitter_cfg.c **** 			{(void CYFAR *)(CYDEV_UDB_P0_U0_BASE), 1024u},
 367:.\Generated_Source\PSoC4/cyfitter_cfg.c **** 			{(void CYFAR *)(CYDEV_UDB_DSI0_BASE), 1024u},
 368:.\Generated_Source\PSoC4/cyfitter_cfg.c **** 		};
 369:.\Generated_Source\PSoC4/cyfitter_cfg.c **** 
 370:.\Generated_Source\PSoC4/cyfitter_cfg.c **** 		uint8 CYDATA i;
 371:.\Generated_Source\PSoC4/cyfitter_cfg.c **** 
 372:.\Generated_Source\PSoC4/cyfitter_cfg.c **** 		/* Zero out critical memory blocks before beginning configuration */
 373:.\Generated_Source\PSoC4/cyfitter_cfg.c **** 		for (i = 0u; i < (sizeof(cfg_memset_list)/sizeof(cfg_memset_list[0])); i++)
 340              		.loc 1 373 0
 341 00b2 0024     		mov	r4, #0
 342 00b4 10E0     		b	.L19
 343              	.LVL29:
 344              	.L20:
 345              	.LBB4:
 374:.\Generated_Source\PSoC4/cyfitter_cfg.c **** 		{
 375:.\Generated_Source\PSoC4/cyfitter_cfg.c **** 			const cfg_memset_t CYCODE * CYDATA ms = &cfg_memset_list[i];
 376:.\Generated_Source\PSoC4/cyfitter_cfg.c **** 			CYMEMZERO(ms->address, (size_t)(uint32)(ms->size));
 346              		.loc 1 376 0 discriminator 3
 347 00b6 3948     		ldr	r0, .L21+4
 348 00b8 6300     		lsl	r3, r4, #1
 349 00ba 1A19     		add	r2, r3, r4
 350 00bc 5200     		lsl	r2, r2, #1
 351 00be 8218     		add	r2, r0, r2
 352 00c0 9188     		ldrh	r1, [r2, #4]
 353 00c2 1B19     		add	r3, r3, r4
 354 00c4 5B00     		lsl	r3, r3, #1
 355 00c6 1A5A     		ldrh	r2, [r3, r0]
 356 00c8 C318     		add	r3, r0, r3
ARM GAS  C:\Users\Simon\AppData\Local\Temp\ccOVYVYR.s 			page 14


 357 00ca 5888     		ldrh	r0, [r3, #2]
 358 00cc 0004     		lsl	r0, r0, #16
 359 00ce 1043     		orr	r0, r2
 360 00d0 FFF7FEFF 		bl	CYMEMZERO
 361              	.LVL30:
 362              	.LBE4:
 373:.\Generated_Source\PSoC4/cyfitter_cfg.c **** 		{
 363              		.loc 1 373 0 discriminator 3
 364 00d4 0134     		add	r4, r4, #1
 365              	.LVL31:
 366 00d6 E4B2     		uxtb	r4, r4
 367              	.LVL32:
 368              	.L19:
 373:.\Generated_Source\PSoC4/cyfitter_cfg.c **** 		{
 369              		.loc 1 373 0 is_stmt 0 discriminator 1
 370 00d8 012C     		cmp	r4, #1
 371 00da ECD9     		bls	.L20
 377:.\Generated_Source\PSoC4/cyfitter_cfg.c **** 		}
 378:.\Generated_Source\PSoC4/cyfitter_cfg.c **** 
 379:.\Generated_Source\PSoC4/cyfitter_cfg.c **** 		cfg_write_bytes32(cy_cfg_addr_table, cy_cfg_data_table);
 372              		.loc 1 379 0 is_stmt 1
 373 00dc 2F49     		ldr	r1, .L21+4
 374 00de 081C     		mov	r0, r1
 375 00e0 0C30     		add	r0, r0, #12
 376 00e2 2831     		add	r1, r1, #40
 377 00e4 FFF7FEFF 		bl	cfg_write_bytes32
 378              	.LVL33:
 380:.\Generated_Source\PSoC4/cyfitter_cfg.c **** 
 381:.\Generated_Source\PSoC4/cyfitter_cfg.c **** 		/* HSIOM Starting address: CYDEV_HSIOM_BASE */
 382:.\Generated_Source\PSoC4/cyfitter_cfg.c **** 		CY_SET_XTND_REG32((void CYFAR *)(CYREG_HSIOM_PORT_SEL3), 0x0000EE00u);
 379              		.loc 1 382 0
 380 00e8 EE22     		mov	r2, #238
 381 00ea 1202     		lsl	r2, r2, #8
 382 00ec 2C4B     		ldr	r3, .L21+8
 383 00ee 1A60     		str	r2, [r3]
 383:.\Generated_Source\PSoC4/cyfitter_cfg.c **** 		CY_SET_XTND_REG32((void CYFAR *)(CYREG_HSIOM_PORT_SEL4), 0x000000EEu);
 384              		.loc 1 383 0
 385 00f0 EE22     		mov	r2, #238
 386 00f2 2C4B     		ldr	r3, .L21+12
 387 00f4 1A60     		str	r2, [r3]
 384:.\Generated_Source\PSoC4/cyfitter_cfg.c **** 
 385:.\Generated_Source\PSoC4/cyfitter_cfg.c **** 		/* UDB_PA_0 Starting address: CYDEV_UDB_PA0_BASE */
 386:.\Generated_Source\PSoC4/cyfitter_cfg.c **** 		CY_SET_XTND_REG32((void CYFAR *)(CYDEV_UDB_PA0_BASE), 0x00990000u);
 388              		.loc 1 386 0
 389 00f6 9923     		mov	r3, #153
 390 00f8 1B04     		lsl	r3, r3, #16
 391 00fa 2B4A     		ldr	r2, .L21+16
 392 00fc 1360     		str	r3, [r2]
 387:.\Generated_Source\PSoC4/cyfitter_cfg.c **** 
 388:.\Generated_Source\PSoC4/cyfitter_cfg.c **** 		/* UDB_PA_1 Starting address: CYDEV_UDB_PA1_BASE */
 389:.\Generated_Source\PSoC4/cyfitter_cfg.c **** 		CY_SET_XTND_REG32((void CYFAR *)(CYDEV_UDB_PA1_BASE), 0x00990000u);
 393              		.loc 1 389 0
 394 00fe 2B4A     		ldr	r2, .L21+20
 395 0100 1360     		str	r3, [r2]
 390:.\Generated_Source\PSoC4/cyfitter_cfg.c **** 
 391:.\Generated_Source\PSoC4/cyfitter_cfg.c **** 		/* UDB_PA_2 Starting address: CYDEV_UDB_PA2_BASE */
 392:.\Generated_Source\PSoC4/cyfitter_cfg.c **** 		CY_SET_XTND_REG32((void CYFAR *)(CYDEV_UDB_PA2_BASE), 0x00990000u);
ARM GAS  C:\Users\Simon\AppData\Local\Temp\ccOVYVYR.s 			page 15


 396              		.loc 1 392 0
 397 0102 2B4A     		ldr	r2, .L21+24
 398 0104 1360     		str	r3, [r2]
 393:.\Generated_Source\PSoC4/cyfitter_cfg.c **** 
 394:.\Generated_Source\PSoC4/cyfitter_cfg.c **** 		/* UDB_PA_3 Starting address: CYDEV_UDB_PA3_BASE */
 395:.\Generated_Source\PSoC4/cyfitter_cfg.c **** 		CY_SET_XTND_REG32((void CYFAR *)(CYDEV_UDB_PA3_BASE), 0x00990000u);
 399              		.loc 1 395 0
 400 0106 2B4A     		ldr	r2, .L21+28
 401 0108 1360     		str	r3, [r2]
 396:.\Generated_Source\PSoC4/cyfitter_cfg.c **** 		CY_SET_XTND_REG32((void CYFAR *)(CYREG_UDB_PA3_CFG8), 0x20000000u);
 402              		.loc 1 396 0
 403 010a 8022     		mov	r2, #128
 404 010c 9205     		lsl	r2, r2, #22
 405 010e 2A4B     		ldr	r3, .L21+32
 406 0110 1A60     		str	r2, [r3]
 397:.\Generated_Source\PSoC4/cyfitter_cfg.c **** 
 398:.\Generated_Source\PSoC4/cyfitter_cfg.c **** 		/* INT_SELECT Starting address: CYDEV_CPUSS_INTR_SELECT */
 399:.\Generated_Source\PSoC4/cyfitter_cfg.c **** 		CY_SET_XTND_REG32((void CYFAR *)(CYREG_CPUSS_INTR_SELECT), 0x00000005u);
 407              		.loc 1 399 0
 408 0112 0522     		mov	r2, #5
 409 0114 294B     		ldr	r3, .L21+36
 410 0116 1A60     		str	r2, [r3]
 400:.\Generated_Source\PSoC4/cyfitter_cfg.c **** 
 401:.\Generated_Source\PSoC4/cyfitter_cfg.c **** 		/* INT_CONFIG Starting address: CYDEV_UDB_INT_CFG */
 402:.\Generated_Source\PSoC4/cyfitter_cfg.c **** 		CY_SET_XTND_REG32((void CYFAR *)(CYREG_UDB_INT_CFG), 0x00000006u);
 411              		.loc 1 402 0
 412 0118 0132     		add	r2, r2, #1
 413 011a 294B     		ldr	r3, .L21+40
 414 011c 1A60     		str	r2, [r3]
 403:.\Generated_Source\PSoC4/cyfitter_cfg.c **** 
 404:.\Generated_Source\PSoC4/cyfitter_cfg.c **** 		/* Enable digital routing */
 405:.\Generated_Source\PSoC4/cyfitter_cfg.c **** 		CY_SET_XTND_REG8((void *)CYREG_UDB_UDBIF_BANK_CTL, CY_GET_XTND_REG8((void *)CYREG_UDB_UDBIF_BANK_
 415              		.loc 1 405 0
 416 011e 294B     		ldr	r3, .L21+44
 417 0120 1978     		ldrb	r1, [r3]
 418 0122 043A     		sub	r2, r2, #4
 419 0124 0A43     		orr	r2, r1
 420 0126 1A70     		strb	r2, [r3]
 406:.\Generated_Source\PSoC4/cyfitter_cfg.c **** 
 407:.\Generated_Source\PSoC4/cyfitter_cfg.c **** 		/* Enable UDB array */
 408:.\Generated_Source\PSoC4/cyfitter_cfg.c **** 		CY_SET_XTND_REG8((void *)CYREG_UDB_UDBIF_WAIT_CFG, (uint8)((CY_GET_XTND_REG8((void *)CYREG_UDB_UD
 421              		.loc 1 408 0
 422 0128 2748     		ldr	r0, .L21+48
 423 012a 0278     		ldrb	r2, [r0]
 424 012c 3C21     		mov	r1, #60
 425 012e 8A43     		bic	r2, r1
 426 0130 2839     		sub	r1, r1, #40
 427 0132 0A43     		orr	r2, r1
 428 0134 0270     		strb	r2, [r0]
 409:.\Generated_Source\PSoC4/cyfitter_cfg.c **** 		CY_SET_XTND_REG8((void *)CYREG_UDB_UDBIF_BANK_CTL, (uint8)(CY_GET_XTND_REG8((void *)CYREG_UDB_UDB
 429              		.loc 1 409 0
 430 0136 1978     		ldrb	r1, [r3]
 431 0138 1622     		mov	r2, #22
 432 013a 0A43     		orr	r2, r1
 433 013c 1A70     		strb	r2, [r3]
 434              	.LBE3:
 410:.\Generated_Source\PSoC4/cyfitter_cfg.c **** 	}
ARM GAS  C:\Users\Simon\AppData\Local\Temp\ccOVYVYR.s 			page 16


 411:.\Generated_Source\PSoC4/cyfitter_cfg.c **** 
 412:.\Generated_Source\PSoC4/cyfitter_cfg.c **** 	/* Perform second pass device configuration. These items must be configured in specific order afte
 413:.\Generated_Source\PSoC4/cyfitter_cfg.c **** 	/* IOPINS0_0 Starting address: CYDEV_PRT0_BASE */
 414:.\Generated_Source\PSoC4/cyfitter_cfg.c **** 	CY_SET_XTND_REG32((void CYFAR *)(CYDEV_PRT0_BASE), 0x000000CCu);
 435              		.loc 1 414 0
 436 013e CC22     		mov	r2, #204
 437 0140 224B     		ldr	r3, .L21+52
 438 0142 1A60     		str	r2, [r3]
 415:.\Generated_Source\PSoC4/cyfitter_cfg.c **** 	CY_SET_XTND_REG32((void CYFAR *)(CYREG_PRT0_PC), 0x00400DB6u);
 439              		.loc 1 415 0
 440 0144 224A     		ldr	r2, .L21+56
 441 0146 234B     		ldr	r3, .L21+60
 442 0148 1A60     		str	r2, [r3]
 416:.\Generated_Source\PSoC4/cyfitter_cfg.c **** 	CY_SET_XTND_REG32((void CYFAR *)(CYREG_PRT0_PC2), 0x00000040u);
 443              		.loc 1 416 0
 444 014a 4022     		mov	r2, #64
 445 014c 224B     		ldr	r3, .L21+64
 446 014e 1A60     		str	r2, [r3]
 417:.\Generated_Source\PSoC4/cyfitter_cfg.c **** 
 418:.\Generated_Source\PSoC4/cyfitter_cfg.c **** 	/* IOPINS0_1 Starting address: CYDEV_PRT1_BASE */
 419:.\Generated_Source\PSoC4/cyfitter_cfg.c **** 	CY_SET_XTND_REG32((void CYFAR *)(CYDEV_PRT1_BASE), 0x000000D0u);
 447              		.loc 1 419 0
 448 0150 9032     		add	r2, r2, #144
 449 0152 224B     		ldr	r3, .L21+68
 450 0154 1A60     		str	r2, [r3]
 420:.\Generated_Source\PSoC4/cyfitter_cfg.c **** 	CY_SET_XTND_REG32((void CYFAR *)(CYREG_PRT1_PC), 0x00180012u);
 451              		.loc 1 420 0
 452 0156 224A     		ldr	r2, .L21+72
 453 0158 224B     		ldr	r3, .L21+76
 454 015a 1A60     		str	r2, [r3]
 421:.\Generated_Source\PSoC4/cyfitter_cfg.c **** 	CY_SET_XTND_REG32((void CYFAR *)(CYREG_PRT1_PC2), 0x00000090u);
 455              		.loc 1 421 0
 456 015c 9022     		mov	r2, #144
 457 015e 224B     		ldr	r3, .L21+80
 458 0160 1A60     		str	r2, [r3]
 422:.\Generated_Source\PSoC4/cyfitter_cfg.c **** 
 423:.\Generated_Source\PSoC4/cyfitter_cfg.c **** 	/* IOPINS0_2 Starting address: CYDEV_PRT2_BASE */
 424:.\Generated_Source\PSoC4/cyfitter_cfg.c **** 	CY_SET_XTND_REG32((void CYFAR *)(CYREG_PRT2_PC), 0x00036DB6u);
 459              		.loc 1 424 0
 460 0162 224A     		ldr	r2, .L21+84
 461 0164 224B     		ldr	r3, .L21+88
 462 0166 1A60     		str	r2, [r3]
 425:.\Generated_Source\PSoC4/cyfitter_cfg.c **** 
 426:.\Generated_Source\PSoC4/cyfitter_cfg.c **** 	/* IOPINS0_3 Starting address: CYDEV_PRT3_BASE */
 427:.\Generated_Source\PSoC4/cyfitter_cfg.c **** 	CY_SET_XTND_REG32((void CYFAR *)(CYDEV_PRT3_BASE), 0x00000080u);
 463              		.loc 1 427 0
 464 0168 8023     		mov	r3, #128
 465 016a 224A     		ldr	r2, .L21+92
 466 016c 1360     		str	r3, [r2]
 428:.\Generated_Source\PSoC4/cyfitter_cfg.c **** 	CY_SET_XTND_REG32((void CYFAR *)(CYREG_PRT3_PC), 0x00000D80u);
 467              		.loc 1 428 0
 468 016e D821     		mov	r1, #216
 469 0170 0901     		lsl	r1, r1, #4
 470 0172 214A     		ldr	r2, .L21+96
 471 0174 1160     		str	r1, [r2]
 429:.\Generated_Source\PSoC4/cyfitter_cfg.c **** 	CY_SET_XTND_REG32((void CYFAR *)(CYREG_PRT3_PC2), 0x00000080u);
 472              		.loc 1 429 0
ARM GAS  C:\Users\Simon\AppData\Local\Temp\ccOVYVYR.s 			page 17


 473 0176 214A     		ldr	r2, .L21+100
 474 0178 1360     		str	r3, [r2]
 430:.\Generated_Source\PSoC4/cyfitter_cfg.c **** 
 431:.\Generated_Source\PSoC4/cyfitter_cfg.c **** 	/* IOPINS0_4 Starting address: CYDEV_PRT4_BASE */
 432:.\Generated_Source\PSoC4/cyfitter_cfg.c **** 	CY_SET_XTND_REG32((void CYFAR *)(CYDEV_PRT4_BASE), 0x0000000Fu);
 475              		.loc 1 432 0
 476 017a 0F22     		mov	r2, #15
 477 017c 204B     		ldr	r3, .L21+104
 478 017e 1A60     		str	r2, [r3]
 433:.\Generated_Source\PSoC4/cyfitter_cfg.c **** 	CY_SET_XTND_REG32((void CYFAR *)(CYREG_PRT4_PC), 0x00000024u);
 479              		.loc 1 433 0
 480 0180 1532     		add	r2, r2, #21
 481 0182 204B     		ldr	r3, .L21+108
 482 0184 1A60     		str	r2, [r3]
 434:.\Generated_Source\PSoC4/cyfitter_cfg.c **** 	CY_SET_XTND_REG32((void CYFAR *)(CYREG_PRT4_PC2), 0x0000000Cu);
 483              		.loc 1 434 0
 484 0186 183A     		sub	r2, r2, #24
 485 0188 1F4B     		ldr	r3, .L21+112
 486 018a 1A60     		str	r2, [r3]
 435:.\Generated_Source\PSoC4/cyfitter_cfg.c **** 
 436:.\Generated_Source\PSoC4/cyfitter_cfg.c **** 
 437:.\Generated_Source\PSoC4/cyfitter_cfg.c **** 	/* Setup clocks based on selections from Clock DWR */
 438:.\Generated_Source\PSoC4/cyfitter_cfg.c **** 	ClockSetup();
 487              		.loc 1 438 0
 488 018c FFF738FF 		bl	ClockSetup
 489              	.LVL34:
 439:.\Generated_Source\PSoC4/cyfitter_cfg.c **** 
 440:.\Generated_Source\PSoC4/cyfitter_cfg.c **** 	/* Perform basic analog initialization to defaults */
 441:.\Generated_Source\PSoC4/cyfitter_cfg.c **** 	AnalogSetDefault();
 490              		.loc 1 441 0
 491 0190 FFF7FEFF 		bl	AnalogSetDefault
 492              	.LVL35:
 442:.\Generated_Source\PSoC4/cyfitter_cfg.c **** 
 443:.\Generated_Source\PSoC4/cyfitter_cfg.c **** }
 493              		.loc 1 443 0
 494              		@ sp needed
 495              	.LVL36:
 496 0194 10BD     		pop	{r4, pc}
 497              	.L22:
 498 0196 C046     		.align	2
 499              	.L21:
 500 0198 1C700F40 		.word	1074753564
 501 019c 00000000 		.word	.LANCHOR0
 502 01a0 0C000140 		.word	1073807372
 503 01a4 10000140 		.word	1073807376
 504 01a8 00500F40 		.word	1074745344
 505 01ac 10500F40 		.word	1074745360
 506 01b0 20500F40 		.word	1074745376
 507 01b4 30500F40 		.word	1074745392
 508 01b8 38500F40 		.word	1074745400
 509 01bc 20000040 		.word	1073741856
 510 01c0 00800F40 		.word	1074757632
 511 01c4 00700F40 		.word	1074753536
 512 01c8 01700F40 		.word	1074753537
 513 01cc 00000440 		.word	1074003968
 514 01d0 B60D4000 		.word	4197814
 515 01d4 08000440 		.word	1074003976
ARM GAS  C:\Users\Simon\AppData\Local\Temp\ccOVYVYR.s 			page 18


 516 01d8 18000440 		.word	1074003992
 517 01dc 00010440 		.word	1074004224
 518 01e0 12001800 		.word	1572882
 519 01e4 08010440 		.word	1074004232
 520 01e8 18010440 		.word	1074004248
 521 01ec B66D0300 		.word	224694
 522 01f0 08020440 		.word	1074004488
 523 01f4 00030440 		.word	1074004736
 524 01f8 08030440 		.word	1074004744
 525 01fc 18030440 		.word	1074004760
 526 0200 00040440 		.word	1074004992
 527 0204 08040440 		.word	1074005000
 528 0208 18040440 		.word	1074005016
 529              		.cfi_endproc
 530              	.LFE7:
 531              		.size	cyfitter_cfg, .-cyfitter_cfg
 532              		.section	.rodata
 533              		.align	2
 534              		.set	.LANCHOR0,. + 0
 535              		.type	cfg_memset_list.4745, %object
 536              		.size	cfg_memset_list.4745, 12
 537              	cfg_memset_list.4745:
 538 0000 00300F40 		.word	1074737152
 539 0004 0004     		.short	1024
 540 0006 00400F40 		.4byte	1074741248
 541 000a 0004     		.short	1024
 542              		.type	cy_cfg_addr_table.4739, %object
 543              		.size	cy_cfg_addr_table.4739, 28
 544              	cy_cfg_addr_table.4739:
 545 000c 04300F40 		.word	1074737156
 546 0010 01310F40 		.word	1074737409
 547 0014 01330F40 		.word	1074737921
 548 0018 04400F40 		.word	1074741252
 549 001c 05410F40 		.word	1074741509
 550 0020 03420F40 		.word	1074741763
 551 0024 06430F40 		.word	1074742022
 552              		.type	cy_cfg_data_table.4740, %object
 553              		.size	cy_cfg_data_table.4740, 48
 554              	cy_cfg_data_table.4740:
 555 0028 38       		.byte	56
 556 0029 80       		.byte	-128
 557 002a 3E       		.byte	62
 558 002b 40       		.byte	64
 559 002c 58       		.byte	88
 560 002d 04       		.byte	4
 561 002e 5F       		.byte	95
 562 002f 01       		.byte	1
 563 0030 18       		.byte	24
 564 0031 01       		.byte	1
 565 0032 B4       		.byte	-76
 566 0033 01       		.byte	1
 567 0034 6B       		.byte	107
 568 0035 80       		.byte	-128
 569 0036 6F       		.byte	111
 570 0037 20       		.byte	32
 571 0038 DA       		.byte	-38
 572 0039 80       		.byte	-128
ARM GAS  C:\Users\Simon\AppData\Local\Temp\ccOVYVYR.s 			page 19


 573 003a DC       		.byte	-36
 574 003b 20       		.byte	32
 575 003c 03       		.byte	3
 576 003d 20       		.byte	32
 577 003e 07       		.byte	7
 578 003f 80       		.byte	-128
 579 0040 9F       		.byte	-97
 580 0041 80       		.byte	-128
 581 0042 A7       		.byte	-89
 582 0043 20       		.byte	32
 583 0044 C0       		.byte	-64
 584 0045 30       		.byte	48
 585 0046 6C       		.byte	108
 586 0047 40       		.byte	64
 587 0048 70       		.byte	112
 588 0049 08       		.byte	8
 589 004a DC       		.byte	-36
 590 004b 03       		.byte	3
 591 004c 61       		.byte	97
 592 004d 02       		.byte	2
 593 004e A1       		.byte	-95
 594 004f 02       		.byte	2
 595 0050 B4       		.byte	-76
 596 0051 48       		.byte	72
 597 0052 B5       		.byte	-75
 598 0053 02       		.byte	2
 599 0054 D8       		.byte	-40
 600 0055 02       		.byte	2
 601 0056 EC       		.byte	-20
 602 0057 08       		.byte	8
 603              		.text
 604              	.Letext0:
 605              		.file 2 "c:\\program files (x86)\\cypress\\psoc creator\\3.3\\psoc creator\\import\\gnu\\arm\\4.9.
 606              		.file 3 ".\\Generated_Source\\PSoC4\\cytypes.h"
 607              		.file 4 ".\\Generated_Source\\PSoC4\\CyLib.h"