ARM GAS  C:\Users\JEPPES~1\AppData\Local\Temp\cceQK4oS.s 			page 1


   1              		.cpu cortex-m0
   2              		.fpu softvfp
   3              		.eabi_attribute 20, 1
   4              		.eabi_attribute 21, 1
   5              		.eabi_attribute 23, 3
   6              		.eabi_attribute 24, 1
   7              		.eabi_attribute 25, 1
   8              		.eabi_attribute 26, 1
   9              		.eabi_attribute 30, 1
  10              		.eabi_attribute 34, 0
  11              		.eabi_attribute 18, 4
  12              		.code	16
  13              		.file	"i2c.c"
  14              		.text
  15              	.Ltext0:
  16              		.cfi_sections	.debug_frame
  17              		.section	.text.isr_i2c_rx,"ax",%progbits
  18              		.align	2
  19              		.global	isr_i2c_rx
  20              		.code	16
  21              		.thumb_func
  22              		.type	isr_i2c_rx, %function
  23              	isr_i2c_rx:
  24              	.LFB35:
  25              		.file 1 ".\\i2c.c"
   1:.\i2c.c       **** /* ========================================
   2:.\i2c.c       ****  *
   3:.\i2c.c       ****  * File: i2c.c
   4:.\i2c.c       ****  * Description: 
   5:.\i2c.c       ****  *
   6:.\i2c.c       ****  * University: AARHUS UNIVERSITY SCHOOL OF ENGINEERING
   7:.\i2c.c       ****  * Project: F16 - E3PRJ3-02 Semesterprojekt 3 [240501U178]
   8:.\i2c.c       ****  * Group: 1
   9:.\i2c.c       ****  * 
  10:.\i2c.c       ****  * Author: Jeppe Stærk
  11:.\i2c.c       ****  * Matriculation number: 201271201
  12:.\i2c.c       ****  *
  13:.\i2c.c       ****  * Version: 1.0
  14:.\i2c.c       ****  * Date: 13-05-2016
  15:.\i2c.c       ****  *
  16:.\i2c.c       ****  * ========================================
  17:.\i2c.c       **** */
  18:.\i2c.c       **** 
  19:.\i2c.c       **** #include "i2c.h"
  20:.\i2c.c       **** 
  21:.\i2c.c       **** uint8 i2cTxBuffer[I2C_BUFFER_SIZE] = {I2C_PACKET_SOP, I2C_STS_CMD_FAIL, I2C_STS_CMD_FAIL, I2C_PACKE
  22:.\i2c.c       **** uint8 i2cRxBuffer[I2C_BUFFER_SIZE];
  23:.\i2c.c       **** 
  24:.\i2c.c       **** void i2c_init()
  25:.\i2c.c       **** {
  26:.\i2c.c       ****     I2CS_I2CSlaveInitReadBuf(i2cTxBuffer, I2C_BUFFER_SIZE);
  27:.\i2c.c       ****     I2CS_I2CSlaveClearReadBuf();
  28:.\i2c.c       ****     I2CS_I2CSlaveClearReadStatus();
  29:.\i2c.c       ****     
  30:.\i2c.c       ****     I2CS_I2CSlaveInitWriteBuf(i2cRxBuffer, I2C_BUFFER_SIZE);
  31:.\i2c.c       ****     I2CS_I2CSlaveClearWriteBuf();
  32:.\i2c.c       ****     I2CS_I2CSlaveClearWriteStatus();
ARM GAS  C:\Users\JEPPES~1\AppData\Local\Temp\cceQK4oS.s 			page 2


  33:.\i2c.c       ****     
  34:.\i2c.c       ****     I2CS_SetCustomInterruptHandler(isr_i2c_rx);
  35:.\i2c.c       ****     
  36:.\i2c.c       ****     I2CS_Start();
  37:.\i2c.c       **** }
  38:.\i2c.c       **** 
  39:.\i2c.c       **** CY_ISR(isr_i2c_rx)
  40:.\i2c.c       **** {
  26              		.loc 1 40 0
  27              		.cfi_startproc
  28 0000 00B5     		push	{lr}
  29              		.cfi_def_cfa_offset 4
  30              		.cfi_offset 14, -4
  31 0002 83B0     		sub	sp, sp, #12
  32              		.cfi_def_cfa_offset 16
  41:.\i2c.c       ****   if(0u != (I2CS_I2CSlaveStatus() & I2CS_I2C_SSTAT_WR_CMPLT))
  33              		.loc 1 41 0
  34 0004 FFF7FEFF 		bl	I2CS_I2CSlaveStatus
  35              	.LVL0:
  36 0008 C306     		lsl	r3, r0, #27
  37 000a 19D5     		bpl	.L1
  42:.\i2c.c       ****   {
  43:.\i2c.c       ****     if(I2C_BUFFER_SIZE == I2CS_I2CSlaveGetWriteBufSize())
  38              		.loc 1 43 0
  39 000c FFF7FEFF 		bl	I2CS_I2CSlaveGetWriteBufSize
  40              	.LVL1:
  41 0010 0428     		cmp	r0, #4
  42 0012 11D1     		bne	.L3
  44:.\i2c.c       ****     {
  45:.\i2c.c       ****       if((i2cRxBuffer[I2C_PACKET_SOP_POS] == I2C_PACKET_SOP) && (i2cRxBuffer[I2C_PACKET_EOP_POS] ==
  43              		.loc 1 45 0
  44 0014 0B4B     		ldr	r3, .L4
  45 0016 1B78     		ldrb	r3, [r3]
  46 0018 012B     		cmp	r3, #1
  47 001a 0DD1     		bne	.L3
  48              		.loc 1 45 0 is_stmt 0 discriminator 1
  49 001c 094B     		ldr	r3, .L4
  50 001e DB78     		ldrb	r3, [r3, #3]
  51 0020 172B     		cmp	r3, #23
  52 0022 09D1     		bne	.L3
  53              	.LBB2:
  46:.\i2c.c       ****       {
  47:.\i2c.c       ****         interruptX = 1;
  54              		.loc 1 47 0 is_stmt 1
  55 0024 163B     		sub	r3, r3, #22
  56 0026 084A     		ldr	r2, .L4+4
  57 0028 1370     		strb	r3, [r2]
  48:.\i2c.c       ****         interruptY = 1;
  58              		.loc 1 48 0
  59 002a 084A     		ldr	r2, .L4+8
  60 002c 1370     		strb	r3, [r2]
  49:.\i2c.c       ****         
  50:.\i2c.c       ****         struct Data action;
  51:.\i2c.c       ****         action.cmd_ = i2cRxBuffer[I2C_PACKET_CMD_POS];
  61              		.loc 1 51 0
  62 002e 054B     		ldr	r3, .L4
  63 0030 5878     		ldrb	r0, [r3, #1]
ARM GAS  C:\Users\JEPPES~1\AppData\Local\Temp\cceQK4oS.s 			page 3


  52:.\i2c.c       ****         action.val_ = i2cRxBuffer[I2C_PACKET_VAL_POS];
  64              		.loc 1 52 0
  65 0032 9978     		ldrb	r1, [r3, #2]
  53:.\i2c.c       ****         
  54:.\i2c.c       ****         pushQueue(action);
  66              		.loc 1 54 0
  67 0034 FFF7FEFF 		bl	pushQueue
  68              	.LVL2:
  69              	.L3:
  70              	.LBE2:
  55:.\i2c.c       ****       }
  56:.\i2c.c       ****     }
  57:.\i2c.c       ****     
  58:.\i2c.c       ****     I2CS_I2CSlaveClearWriteBuf();
  71              		.loc 1 58 0
  72 0038 FFF7FEFF 		bl	I2CS_I2CSlaveClearWriteBuf
  73              	.LVL3:
  59:.\i2c.c       ****     I2CS_I2CSlaveClearWriteStatus();
  74              		.loc 1 59 0
  75 003c FFF7FEFF 		bl	I2CS_I2CSlaveClearWriteStatus
  76              	.LVL4:
  77              	.L1:
  60:.\i2c.c       ****   }
  61:.\i2c.c       **** }
  78              		.loc 1 61 0
  79 0040 03B0     		add	sp, sp, #12
  80              		@ sp needed
  81 0042 00BD     		pop	{pc}
  82              	.L5:
  83              		.align	2
  84              	.L4:
  85 0044 00000000 		.word	i2cRxBuffer
  86 0048 00000000 		.word	interruptX
  87 004c 00000000 		.word	interruptY
  88              		.cfi_endproc
  89              	.LFE35:
  90              		.size	isr_i2c_rx, .-isr_i2c_rx
  91              		.section	.text.i2c_init,"ax",%progbits
  92              		.align	2
  93              		.global	i2c_init
  94              		.code	16
  95              		.thumb_func
  96              		.type	i2c_init, %function
  97              	i2c_init:
  98              	.LFB34:
  25:.\i2c.c       ****     I2CS_I2CSlaveInitReadBuf(i2cTxBuffer, I2C_BUFFER_SIZE);
  99              		.loc 1 25 0
 100              		.cfi_startproc
 101 0000 08B5     		push	{r3, lr}
 102              		.cfi_def_cfa_offset 8
 103              		.cfi_offset 3, -8
 104              		.cfi_offset 14, -4
  26:.\i2c.c       ****     I2CS_I2CSlaveClearReadBuf();
 105              		.loc 1 26 0
 106 0002 0B48     		ldr	r0, .L7
 107 0004 0421     		mov	r1, #4
 108 0006 FFF7FEFF 		bl	I2CS_I2CSlaveInitReadBuf
ARM GAS  C:\Users\JEPPES~1\AppData\Local\Temp\cceQK4oS.s 			page 4


 109              	.LVL5:
  27:.\i2c.c       ****     I2CS_I2CSlaveClearReadStatus();
 110              		.loc 1 27 0
 111 000a FFF7FEFF 		bl	I2CS_I2CSlaveClearReadBuf
 112              	.LVL6:
  28:.\i2c.c       ****     
 113              		.loc 1 28 0
 114 000e FFF7FEFF 		bl	I2CS_I2CSlaveClearReadStatus
 115              	.LVL7:
  30:.\i2c.c       ****     I2CS_I2CSlaveClearWriteBuf();
 116              		.loc 1 30 0
 117 0012 0848     		ldr	r0, .L7+4
 118 0014 0421     		mov	r1, #4
 119 0016 FFF7FEFF 		bl	I2CS_I2CSlaveInitWriteBuf
 120              	.LVL8:
  31:.\i2c.c       ****     I2CS_I2CSlaveClearWriteStatus();
 121              		.loc 1 31 0
 122 001a FFF7FEFF 		bl	I2CS_I2CSlaveClearWriteBuf
 123              	.LVL9:
  32:.\i2c.c       ****     
 124              		.loc 1 32 0
 125 001e FFF7FEFF 		bl	I2CS_I2CSlaveClearWriteStatus
 126              	.LVL10:
  34:.\i2c.c       ****     
 127              		.loc 1 34 0
 128 0022 0548     		ldr	r0, .L7+8
 129 0024 FFF7FEFF 		bl	I2CS_SetCustomInterruptHandler
 130              	.LVL11:
  36:.\i2c.c       **** }
 131              		.loc 1 36 0
 132 0028 FFF7FEFF 		bl	I2CS_Start
 133              	.LVL12:
  37:.\i2c.c       **** 
 134              		.loc 1 37 0
 135              		@ sp needed
 136 002c 08BD     		pop	{r3, pc}
 137              	.L8:
 138 002e C046     		.align	2
 139              	.L7:
 140 0030 00000000 		.word	.LANCHOR0
 141 0034 00000000 		.word	i2cRxBuffer
 142 0038 00000000 		.word	isr_i2c_rx
 143              		.cfi_endproc
 144              	.LFE34:
 145              		.size	i2c_init, .-i2c_init
 146              		.section	.text.i2c_tx,"ax",%progbits
 147              		.align	2
 148              		.global	i2c_tx
 149              		.code	16
 150              		.thumb_func
 151              		.type	i2c_tx, %function
 152              	i2c_tx:
 153              	.LFB36:
  62:.\i2c.c       **** 
  63:.\i2c.c       **** //void i2c_rx()
  64:.\i2c.c       **** //{
  65:.\i2c.c       **** //    if(0u != (I2CS_I2CSlaveStatus() & I2CS_I2C_SSTAT_WR_CMPLT))
ARM GAS  C:\Users\JEPPES~1\AppData\Local\Temp\cceQK4oS.s 			page 5


  66:.\i2c.c       **** //    {
  67:.\i2c.c       **** //        if(I2C_BUFFER_SIZE == I2CS_I2CSlaveGetWriteBufSize())
  68:.\i2c.c       **** //        {
  69:.\i2c.c       **** //            if((i2cRxBuffer[I2C_PACKET_SOP_POS] == I2C_PACKET_SOP) && (i2cRxBuffer[I2C_PACKET_EOP
  70:.\i2c.c       **** //            {
  71:.\i2c.c       **** //                struct Data action;
  72:.\i2c.c       **** //                action.cmd_ = i2cRxBuffer[I2C_PACKET_CMD_POS];
  73:.\i2c.c       **** //                action.val_ = i2cRxBuffer[I2C_PACKET_VAL_POS];
  74:.\i2c.c       **** //                
  75:.\i2c.c       **** //                pushQueue(action);
  76:.\i2c.c       **** //            }
  77:.\i2c.c       **** //        }
  78:.\i2c.c       **** //
  79:.\i2c.c       **** //      I2CS_I2CSlaveClearWriteBuf();
  80:.\i2c.c       **** //      I2CS_I2CSlaveClearWriteStatus();
  81:.\i2c.c       **** //    }
  82:.\i2c.c       **** //}
  83:.\i2c.c       **** 
  84:.\i2c.c       **** void i2c_tx()
  85:.\i2c.c       **** {
 154              		.loc 1 85 0
 155              		.cfi_startproc
 156 0000 08B5     		push	{r3, lr}
 157              		.cfi_def_cfa_offset 8
 158              		.cfi_offset 3, -8
 159              		.cfi_offset 14, -4
  86:.\i2c.c       ****     if(0u != (I2CS_I2CSlaveStatus() & I2CS_I2C_SSTAT_RD_CMPLT))
 160              		.loc 1 86 0
 161 0002 FFF7FEFF 		bl	I2CS_I2CSlaveStatus
 162              	.LVL13:
 163 0006 C307     		lsl	r3, r0, #31
 164 0008 03D5     		bpl	.L9
  87:.\i2c.c       ****     {
  88:.\i2c.c       ****         I2CS_I2CSlaveClearReadBuf();
 165              		.loc 1 88 0
 166 000a FFF7FEFF 		bl	I2CS_I2CSlaveClearReadBuf
 167              	.LVL14:
  89:.\i2c.c       ****         (void) I2CS_I2CSlaveClearReadStatus();   
 168              		.loc 1 89 0
 169 000e FFF7FEFF 		bl	I2CS_I2CSlaveClearReadStatus
 170              	.LVL15:
 171              	.L9:
  90:.\i2c.c       ****     }   
  91:.\i2c.c       **** }
 172              		.loc 1 91 0
 173              		@ sp needed
 174 0012 08BD     		pop	{r3, pc}
 175              		.cfi_endproc
 176              	.LFE36:
 177              		.size	i2c_tx, .-i2c_tx
 178              		.comm	i2cRxBuffer,4,4
 179              		.global	i2cTxBuffer
 180              		.comm	backOfQueuePtr,4,4
 181              		.comm	frontOfQueuePtr,4,4
 182              		.data
 183              		.align	2
 184              		.set	.LANCHOR0,. + 0
ARM GAS  C:\Users\JEPPES~1\AppData\Local\Temp\cceQK4oS.s 			page 6


 185              		.type	i2cTxBuffer, %object
 186              		.size	i2cTxBuffer, 4
 187              	i2cTxBuffer:
 188 0000 01       		.byte	1
 189 0001 EE       		.byte	-18
 190 0002 EE       		.byte	-18
 191 0003 17       		.byte	23
 192              		.text
 193              	.Letext0:
 194              		.file 2 "Generated_Source\\PSoC4/cytypes.h"
 195              		.file 3 ".\\queue.h"
 196              		.file 4 ".\\xy.h"
 197              		.file 5 "Generated_Source\\PSoC4/I2CS_I2C.h"
 198              		.file 6 "Generated_Source\\PSoC4/I2CS.h"