ARM GAS  C:\Users\JEPPES~1\AppData\Local\Temp\ccUJAb1b.s 			page 1


   1              		.cpu cortex-m0
   2              		.fpu softvfp
   3              		.eabi_attribute 20, 1
   4              		.eabi_attribute 21, 1
   5              		.eabi_attribute 23, 3
   6              		.eabi_attribute 24, 1
   7              		.eabi_attribute 25, 1
   8              		.eabi_attribute 26, 1
   9              		.eabi_attribute 30, 1
  10              		.eabi_attribute 34, 0
  11              		.eabi_attribute 18, 4
  12              		.code	16
  13              		.file	"led.c"
  14              		.text
  15              	.Ltext0:
  16              		.cfi_sections	.debug_frame
  17              		.section	.text.setLed,"ax",%progbits
  18              		.align	2
  19              		.global	setLed
  20              		.code	16
  21              		.thumb_func
  22              		.type	setLed, %function
  23              	setLed:
  24              	.LFB34:
  25              		.file 1 ".\\led.c"
   1:.\led.c       **** /* ========================================
   2:.\led.c       ****  *
   3:.\led.c       ****  * File: handler.c
   4:.\led.c       ****  * Description: 
   5:.\led.c       ****  *
   6:.\led.c       ****  * University: AARHUS UNIVERSITY SCHOOL OF ENGINEERING
   7:.\led.c       ****  * Project: F16 - E3PRJ3-02 Semesterprojekt 3 [240501U178]
   8:.\led.c       ****  * Group: 1
   9:.\led.c       ****  * 
  10:.\led.c       ****  * Author: 
  11:.\led.c       ****  * Matriculation number: 
  12:.\led.c       ****  *
  13:.\led.c       ****  * Version: 1.0
  14:.\led.c       ****  * Date: 13-05-2016
  15:.\led.c       ****  *
  16:.\led.c       ****  * ========================================
  17:.\led.c       **** */
  18:.\led.c       **** 
  19:.\led.c       **** #include "led.h"
  20:.\led.c       **** 
  21:.\led.c       **** void setLed(uint8 red, uint8 green, uint8 blue)
  22:.\led.c       **** {
  26              		.loc 1 22 0
  27              		.cfi_startproc
  28              	.LVL0:
  29 0000 38B5     		push	{r3, r4, r5, lr}
  30              		.cfi_def_cfa_offset 16
  31              		.cfi_offset 3, -16
  32              		.cfi_offset 4, -12
  33              		.cfi_offset 5, -8
  34              		.cfi_offset 14, -4
  35 0002 0D1C     		mov	r5, r1
ARM GAS  C:\Users\JEPPES~1\AppData\Local\Temp\ccUJAb1b.s 			page 2


  36 0004 141C     		mov	r4, r2
  23:.\led.c       ****     red ? LED_Red_Write(0u) : LED_Red_Write(1u);
  37              		.loc 1 23 0
  38 0006 0028     		cmp	r0, #0
  39 0008 03D0     		beq	.L2
  40              		.loc 1 23 0 is_stmt 0 discriminator 1
  41 000a 0020     		mov	r0, #0
  42              	.LVL1:
  43 000c FFF7FEFF 		bl	LED_Red_Write
  44              	.LVL2:
  45 0010 02E0     		b	.L3
  46              	.LVL3:
  47              	.L2:
  48              		.loc 1 23 0 discriminator 2
  49 0012 0120     		mov	r0, #1
  50              	.LVL4:
  51 0014 FFF7FEFF 		bl	LED_Red_Write
  52              	.LVL5:
  53              	.L3:
  24:.\led.c       ****     green ? LED_Green_Write(0u) : LED_Green_Write(1u);
  54              		.loc 1 24 0 is_stmt 1
  55 0018 002D     		cmp	r5, #0
  56 001a 03D0     		beq	.L4
  57              		.loc 1 24 0 is_stmt 0 discriminator 1
  58 001c 0020     		mov	r0, #0
  59 001e FFF7FEFF 		bl	LED_Green_Write
  60              	.LVL6:
  61 0022 02E0     		b	.L5
  62              	.L4:
  63              		.loc 1 24 0 discriminator 2
  64 0024 0120     		mov	r0, #1
  65 0026 FFF7FEFF 		bl	LED_Green_Write
  66              	.LVL7:
  67              	.L5:
  25:.\led.c       ****     blue ? LED_Blue_Write(0u) : LED_Blue_Write(1u);
  68              		.loc 1 25 0 is_stmt 1
  69 002a 002C     		cmp	r4, #0
  70 002c 03D0     		beq	.L6
  71              		.loc 1 25 0 is_stmt 0 discriminator 1
  72 002e 0020     		mov	r0, #0
  73 0030 FFF7FEFF 		bl	LED_Blue_Write
  74              	.LVL8:
  75 0034 02E0     		b	.L1
  76              	.L6:
  77              		.loc 1 25 0 discriminator 2
  78 0036 0120     		mov	r0, #1
  79 0038 FFF7FEFF 		bl	LED_Blue_Write
  80              	.LVL9:
  81              	.L1:
  26:.\led.c       **** }
  82              		.loc 1 26 0 is_stmt 1
  83              		@ sp needed
  84 003c 38BD     		pop	{r3, r4, r5, pc}
  85              		.cfi_endproc
  86              	.LFE34:
  87              		.size	setLed, .-setLed
  88              		.comm	i2cRxBuffer,4,4
ARM GAS  C:\Users\JEPPES~1\AppData\Local\Temp\ccUJAb1b.s 			page 3


  89              		.comm	i2cTxBuffer,4,4
  90              		.comm	backOfQueuePtr,4,4
  91              		.comm	frontOfQueuePtr,4,4
  92 003e C046     		.text
  93              	.Letext0:
  94              		.file 2 ".\\queue.h"
  95              		.file 3 ".\\i2c.h"
  96              		.file 4 "Generated_Source\\PSoC4/LED_Red.h"
  97              		.file 5 "Generated_Source\\PSoC4/LED_Green.h"
  98              		.file 6 "Generated_Source\\PSoC4/cytypes.h"
  99              		.file 7 "Generated_Source\\PSoC4/LED_Blue.h"