ARM GAS  C:\Users\Simon\AppData\Local\Temp\ccrUac0b.s 			page 1


   1              		.cpu cortex-m0
   2              		.fpu softvfp
   3              		.eabi_attribute 20, 1
   4              		.eabi_attribute 21, 1
   5              		.eabi_attribute 23, 3
   6              		.eabi_attribute 24, 1
   7              		.eabi_attribute 25, 1
   8              		.eabi_attribute 26, 1
   9              		.eabi_attribute 30, 1
  10              		.eabi_attribute 34, 0
  11              		.eabi_attribute 18, 4
  12              		.code	16
  13              		.file	"xy.c"
  14              		.text
  15              	.Ltext0:
  16              		.cfi_sections	.debug_frame
  17              		.section	.text.xy_init,"ax",%progbits
  18              		.align	2
  19              		.global	xy_init
  20              		.code	16
  21              		.thumb_func
  22              		.type	xy_init, %function
  23              	xy_init:
  24              	.LFB34:
  25              		.file 1 ".\\xy.c"
   1:.\xy.c        **** /* ========================================
   2:.\xy.c        ****  *
   3:.\xy.c        ****  * File: xy.c
   4:.\xy.c        ****  * Description: 
   5:.\xy.c        ****  *
   6:.\xy.c        ****  * University: AARHUS UNIVERSITY SCHOOL OF ENGINEERING
   7:.\xy.c        ****  * Project: F16 - E3PRJ3-02 Semesterprojekt 3 [240501U178]
   8:.\xy.c        ****  * Group: 1
   9:.\xy.c        ****  * 
  10:.\xy.c        ****  * Author: 
  11:.\xy.c        ****  * Matriculation number: 
  12:.\xy.c        ****  *
  13:.\xy.c        ****  * Version: 1.0
  14:.\xy.c        ****  * Date: 13-05-2016
  15:.\xy.c        ****  *
  16:.\xy.c        ****  * ========================================
  17:.\xy.c        **** */
  18:.\xy.c        **** 
  19:.\xy.c        **** #include "xy.h"
  20:.\xy.c        **** 
  21:.\xy.c        **** uint8 calibratedX = 0;
  22:.\xy.c        **** uint8 calibratedY = 0;
  23:.\xy.c        **** uint8 xFlag = 0;
  24:.\xy.c        **** uint8 yFlag = 0;
  25:.\xy.c        **** uint32 xMax = 0;
  26:.\xy.c        **** uint32 xPos;
  27:.\xy.c        **** uint32 yMax = 0;
  28:.\xy.c        **** uint32 yPos;
  29:.\xy.c        **** 
  30:.\xy.c        **** void xy_init()
  31:.\xy.c        **** {
  26              		.loc 1 31 0
ARM GAS  C:\Users\Simon\AppData\Local\Temp\ccrUac0b.s 			page 2


  27              		.cfi_startproc
  28 0000 08B5     		push	{r3, lr}
  29              		.cfi_def_cfa_offset 8
  30              		.cfi_offset 3, -8
  31              		.cfi_offset 14, -4
  32:.\xy.c        ****     interrupt_X_StartEx(isr_X);
  32              		.loc 1 32 0
  33 0002 0348     		ldr	r0, .L2
  34 0004 FFF7FEFF 		bl	interrupt_X_StartEx
  35              	.LVL0:
  33:.\xy.c        ****     interrupt_Y_StartEx(isr_Y);
  36              		.loc 1 33 0
  37 0008 0248     		ldr	r0, .L2+4
  38 000a FFF7FEFF 		bl	interrupt_Y_StartEx
  39              	.LVL1:
  34:.\xy.c        **** }
  40              		.loc 1 34 0
  41              		@ sp needed
  42 000e 08BD     		pop	{r3, pc}
  43              	.L3:
  44              		.align	2
  45              	.L2:
  46 0010 00000000 		.word	isr_X
  47 0014 00000000 		.word	isr_Y
  48              		.cfi_endproc
  49              	.LFE34:
  50              		.size	xy_init, .-xy_init
  51              		.section	.text.getXPos,"ax",%progbits
  52              		.align	2
  53              		.global	getXPos
  54              		.code	16
  55              		.thumb_func
  56              		.type	getXPos, %function
  57              	getXPos:
  58              	.LFB41:
  35:.\xy.c        **** 
  36:.\xy.c        **** CY_ISR(isr_X)
  37:.\xy.c        **** {
  38:.\xy.c        ****     interrupt_X_Disable();
  39:.\xy.c        ****     uint32 i;
  40:.\xy.c        ****     stopX();
  41:.\xy.c        ****     setLed(0,0,1);
  42:.\xy.c        ****     if(xFlag == 0)
  43:.\xy.c        ****     {
  44:.\xy.c        ****         for(i = 0; i < interruptSteps; i++)
  45:.\xy.c        ****         {
  46:.\xy.c        ****             stepXBackwards();   
  47:.\xy.c        ****         }
  48:.\xy.c        ****         xFlag = 1;
  49:.\xy.c        ****     }
  50:.\xy.c        ****     else
  51:.\xy.c        ****     {
  52:.\xy.c        ****         for(i = 0; i < interruptSteps; i++)
  53:.\xy.c        ****         {
  54:.\xy.c        ****             stepXForwards();   
  55:.\xy.c        ****         }
  56:.\xy.c        ****         xFlag = 0;
ARM GAS  C:\Users\Simon\AppData\Local\Temp\ccrUac0b.s 			page 3


  57:.\xy.c        ****     }
  58:.\xy.c        ****     setLed(0,0,0);
  59:.\xy.c        ****     interrupt_X_ClearPending();
  60:.\xy.c        ****     interrupt_X_Enable();
  61:.\xy.c        **** }
  62:.\xy.c        **** 
  63:.\xy.c        **** CY_ISR(isr_Y)
  64:.\xy.c        **** {
  65:.\xy.c        ****     interrupt_Y_Disable();
  66:.\xy.c        ****     uint32 i;
  67:.\xy.c        ****     stopY();
  68:.\xy.c        ****     setLed(0,0,1);
  69:.\xy.c        ****     if(yFlag == 0)
  70:.\xy.c        ****     {
  71:.\xy.c        ****         for(i = 0; i < interruptSteps; i++)
  72:.\xy.c        ****         {
  73:.\xy.c        ****             stepYBackwards();   
  74:.\xy.c        ****         }
  75:.\xy.c        ****         yFlag = 1;
  76:.\xy.c        ****     }
  77:.\xy.c        ****     else if(yFlag == 1)
  78:.\xy.c        ****     {
  79:.\xy.c        ****         for(i = 0; i < interruptSteps; i++)
  80:.\xy.c        ****         {
  81:.\xy.c        ****             stepYForwards();   
  82:.\xy.c        ****         }
  83:.\xy.c        ****         yFlag = 0;
  84:.\xy.c        ****     }
  85:.\xy.c        ****     setLed(0,0,0);
  86:.\xy.c        ****     interrupt_Y_ClearPending();
  87:.\xy.c        ****     interrupt_Y_Enable();
  88:.\xy.c        **** }
  89:.\xy.c        **** 
  90:.\xy.c        **** void calibrateX()
  91:.\xy.c        **** {
  92:.\xy.c        ****     xFlag = 0;
  93:.\xy.c        ****     while(interrupt_X_GetState() == 1 && xFlag == 0)
  94:.\xy.c        ****     {
  95:.\xy.c        ****         setLed(1,0,0);
  96:.\xy.c        ****         stepXForwards();
  97:.\xy.c        ****     }
  98:.\xy.c        ****     while(interrupt_X_GetState() == 1 && xFlag == 1)
  99:.\xy.c        ****     {
 100:.\xy.c        ****         setLed(1,0,0);
 101:.\xy.c        ****         stepXBackwards();
 102:.\xy.c        ****         xMax++;
 103:.\xy.c        ****     }
 104:.\xy.c        ****     xPos = 0;
 105:.\xy.c        ****     xMax = xMax - 100;
 106:.\xy.c        ****     calibratedX = 1;
 107:.\xy.c        ****     setLed(0,0,0);
 108:.\xy.c        **** }
 109:.\xy.c        **** 
 110:.\xy.c        **** void calibrateY()
 111:.\xy.c        **** {
 112:.\xy.c        ****     yFlag = 0;
 113:.\xy.c        ****     while(interrupt_Y_GetState() == 1 && yFlag == 0)
ARM GAS  C:\Users\Simon\AppData\Local\Temp\ccrUac0b.s 			page 4


 114:.\xy.c        ****     {
 115:.\xy.c        ****         setLed(1,0,0);
 116:.\xy.c        ****         stepYForwards();
 117:.\xy.c        ****     }
 118:.\xy.c        ****     while(interrupt_Y_GetState() == 1 && yFlag == 1)
 119:.\xy.c        ****     {
 120:.\xy.c        ****         setLed(1,0,0);
 121:.\xy.c        ****         stepYBackwards();
 122:.\xy.c        ****         yMax++;
 123:.\xy.c        ****     }
 124:.\xy.c        ****     yPos = 0;
 125:.\xy.c        ****     yMax = yMax - 100;
 126:.\xy.c        ****     calibratedY = 1;
 127:.\xy.c        ****     setLed(0,0,0);
 128:.\xy.c        **** }
 129:.\xy.c        **** 
 130:.\xy.c        **** void setXPos(uint8 xVal)
 131:.\xy.c        **** {
 132:.\xy.c        ****     uint32 i;
 133:.\xy.c        ****     uint32 xDes = 0;
 134:.\xy.c        ****     uint32 xSteps = 0;
 135:.\xy.c        ****     
 136:.\xy.c        ****     if(calibratedX == 1)
 137:.\xy.c        ****     {
 138:.\xy.c        ****         xDes = xVal * xMax / resolution;
 139:.\xy.c        ****         if(xDes < xPos)
 140:.\xy.c        ****         {
 141:.\xy.c        ****             setLed(0,1,0);
 142:.\xy.c        ****             xSteps = xPos - xDes;
 143:.\xy.c        ****             for(i = 0; i < xSteps; i++)
 144:.\xy.c        ****             {
 145:.\xy.c        ****                 stepXBackwards();
 146:.\xy.c        ****                 xPos--;                
 147:.\xy.c        ****             }
 148:.\xy.c        ****             setLed(0,0,0);
 149:.\xy.c        ****         }
 150:.\xy.c        ****         else if(xDes > xPos)
 151:.\xy.c        ****         {
 152:.\xy.c        ****             setLed(0,1,0);
 153:.\xy.c        ****             xSteps = xDes - xPos;
 154:.\xy.c        ****             for(i = 0; i < xSteps; i++)
 155:.\xy.c        ****             {
 156:.\xy.c        ****                 stepXForwards();
 157:.\xy.c        ****                 xPos++;                
 158:.\xy.c        ****             }
 159:.\xy.c        ****             setLed(0,0,0);
 160:.\xy.c        ****         }
 161:.\xy.c        ****     }
 162:.\xy.c        ****     else
 163:.\xy.c        ****     {
 164:.\xy.c        ****         calibrateX();
 165:.\xy.c        ****         setXPos(xVal);
 166:.\xy.c        ****     }
 167:.\xy.c        **** }
 168:.\xy.c        **** 
 169:.\xy.c        **** void setYPos(uint8 yVal)
 170:.\xy.c        **** {
ARM GAS  C:\Users\Simon\AppData\Local\Temp\ccrUac0b.s 			page 5


 171:.\xy.c        ****     uint32 i;
 172:.\xy.c        ****     uint32 yDes = 0;
 173:.\xy.c        ****     uint32 ySteps = 0;
 174:.\xy.c        ****     
 175:.\xy.c        ****     if(calibratedY == 1)
 176:.\xy.c        ****     {
 177:.\xy.c        ****         yDes = yVal * yMax / resolution;
 178:.\xy.c        ****         if(yDes < yPos)
 179:.\xy.c        ****         {
 180:.\xy.c        ****             setLed(0,1,0);
 181:.\xy.c        ****             ySteps = yPos - yDes;
 182:.\xy.c        ****             for(i = 0; i < ySteps; i++)
 183:.\xy.c        ****             {
 184:.\xy.c        ****                 stepYBackwards();
 185:.\xy.c        ****                 yPos--;                
 186:.\xy.c        ****             }
 187:.\xy.c        ****             setLed(0,0,0);
 188:.\xy.c        ****         }
 189:.\xy.c        ****         else if(yDes > yPos)
 190:.\xy.c        ****         {
 191:.\xy.c        ****             setLed(0,1,0);
 192:.\xy.c        ****             ySteps = yDes - yPos;
 193:.\xy.c        ****             for(i = 0; i < ySteps; i++)
 194:.\xy.c        ****             {
 195:.\xy.c        ****                 stepYForwards();
 196:.\xy.c        ****                 yPos++;                
 197:.\xy.c        ****             }
 198:.\xy.c        ****             setLed(0,0,0);
 199:.\xy.c        ****         }
 200:.\xy.c        ****     }
 201:.\xy.c        ****     else
 202:.\xy.c        ****     {
 203:.\xy.c        ****         calibrateY();
 204:.\xy.c        ****         setYPos(yVal);
 205:.\xy.c        ****     }
 206:.\xy.c        **** }
 207:.\xy.c        **** 
 208:.\xy.c        **** uint8 getXPos()
 209:.\xy.c        **** {
  59              		.loc 1 209 0
  60              		.cfi_startproc
 210:.\xy.c        ****     return xPos;   
  61              		.loc 1 210 0
  62 0000 014B     		ldr	r3, .L5
  63 0002 1878     		ldrb	r0, [r3]
 211:.\xy.c        **** }
  64              		.loc 1 211 0
  65              		@ sp needed
  66 0004 7047     		bx	lr
  67              	.L6:
  68 0006 C046     		.align	2
  69              	.L5:
  70 0008 00000000 		.word	xPos
  71              		.cfi_endproc
  72              	.LFE41:
  73              		.size	getXPos, .-getXPos
  74              		.section	.text.getYPos,"ax",%progbits
ARM GAS  C:\Users\Simon\AppData\Local\Temp\ccrUac0b.s 			page 6


  75              		.align	2
  76              		.global	getYPos
  77              		.code	16
  78              		.thumb_func
  79              		.type	getYPos, %function
  80              	getYPos:
  81              	.LFB42:
 212:.\xy.c        **** 
 213:.\xy.c        **** uint8 getYPos()
 214:.\xy.c        **** {
  82              		.loc 1 214 0
  83              		.cfi_startproc
 215:.\xy.c        ****     return yPos;   
  84              		.loc 1 215 0
  85 0000 014B     		ldr	r3, .L8
  86 0002 1878     		ldrb	r0, [r3]
 216:.\xy.c        **** }
  87              		.loc 1 216 0
  88              		@ sp needed
  89 0004 7047     		bx	lr
  90              	.L9:
  91 0006 C046     		.align	2
  92              	.L8:
  93 0008 00000000 		.word	yPos
  94              		.cfi_endproc
  95              	.LFE42:
  96              		.size	getYPos, .-getYPos
  97              		.section	.text.getXMax,"ax",%progbits
  98              		.align	2
  99              		.global	getXMax
 100              		.code	16
 101              		.thumb_func
 102              		.type	getXMax, %function
 103              	getXMax:
 104              	.LFB43:
 217:.\xy.c        **** 
 218:.\xy.c        **** uint8 getXMax()
 219:.\xy.c        **** {
 105              		.loc 1 219 0
 106              		.cfi_startproc
 220:.\xy.c        ****     return xMax;   
 107              		.loc 1 220 0
 108 0000 014B     		ldr	r3, .L11
 109 0002 1878     		ldrb	r0, [r3]
 221:.\xy.c        **** }
 110              		.loc 1 221 0
 111              		@ sp needed
 112 0004 7047     		bx	lr
 113              	.L12:
 114 0006 C046     		.align	2
 115              	.L11:
 116 0008 00000000 		.word	.LANCHOR0
 117              		.cfi_endproc
 118              	.LFE43:
 119              		.size	getXMax, .-getXMax
 120              		.section	.text.getYMax,"ax",%progbits
 121              		.align	2
ARM GAS  C:\Users\Simon\AppData\Local\Temp\ccrUac0b.s 			page 7


 122              		.global	getYMax
 123              		.code	16
 124              		.thumb_func
 125              		.type	getYMax, %function
 126              	getYMax:
 127              	.LFB44:
 222:.\xy.c        **** 
 223:.\xy.c        **** uint8 getYMax()
 224:.\xy.c        **** {
 128              		.loc 1 224 0
 129              		.cfi_startproc
 225:.\xy.c        ****     return yMax;   
 130              		.loc 1 225 0
 131 0000 014B     		ldr	r3, .L14
 132 0002 1879     		ldrb	r0, [r3, #4]
 226:.\xy.c        **** }
 133              		.loc 1 226 0
 134              		@ sp needed
 135 0004 7047     		bx	lr
 136              	.L15:
 137 0006 C046     		.align	2
 138              	.L14:
 139 0008 00000000 		.word	.LANCHOR0
 140              		.cfi_endproc
 141              	.LFE44:
 142              		.size	getYMax, .-getYMax
 143              		.section	.text.stepXForwards,"ax",%progbits
 144              		.align	2
 145              		.global	stepXForwards
 146              		.code	16
 147              		.thumb_func
 148              		.type	stepXForwards, %function
 149              	stepXForwards:
 150              	.LFB45:
 227:.\xy.c        **** 
 228:.\xy.c        **** void stepXForwards()
 229:.\xy.c        **** {
 151              		.loc 1 229 0
 152              		.cfi_startproc
 153 0000 08B5     		push	{r3, lr}
 154              		.cfi_def_cfa_offset 8
 155              		.cfi_offset 3, -8
 156              		.cfi_offset 14, -4
 230:.\xy.c        ****     Pin_1a_X_Write(1);
 157              		.loc 1 230 0
 158 0002 0120     		mov	r0, #1
 159 0004 FFF7FEFF 		bl	Pin_1a_X_Write
 160              	.LVL2:
 231:.\xy.c        ****     Pin_2a_X_Write(0);
 161              		.loc 1 231 0
 162 0008 0020     		mov	r0, #0
 163 000a FFF7FEFF 		bl	Pin_2a_X_Write
 164              	.LVL3:
 232:.\xy.c        **** 	Pin_1b_X_Write(0);
 165              		.loc 1 232 0
 166 000e 0020     		mov	r0, #0
 167 0010 FFF7FEFF 		bl	Pin_1b_X_Write
ARM GAS  C:\Users\Simon\AppData\Local\Temp\ccrUac0b.s 			page 8


 168              	.LVL4:
 233:.\xy.c        **** 	Pin_2b_X_Write(0);
 169              		.loc 1 233 0
 170 0014 0020     		mov	r0, #0
 171 0016 FFF7FEFF 		bl	Pin_2b_X_Write
 172              	.LVL5:
 234:.\xy.c        **** 	CyDelay(stepDelay);
 173              		.loc 1 234 0
 174 001a 0320     		mov	r0, #3
 175 001c FFF7FEFF 		bl	CyDelay
 176              	.LVL6:
 235:.\xy.c        **** 
 236:.\xy.c        **** 	Pin_1a_X_Write(0);
 177              		.loc 1 236 0
 178 0020 0020     		mov	r0, #0
 179 0022 FFF7FEFF 		bl	Pin_1a_X_Write
 180              	.LVL7:
 237:.\xy.c        ****     Pin_2a_X_Write(1);
 181              		.loc 1 237 0
 182 0026 0120     		mov	r0, #1
 183 0028 FFF7FEFF 		bl	Pin_2a_X_Write
 184              	.LVL8:
 238:.\xy.c        **** 	Pin_1b_X_Write(0);
 185              		.loc 1 238 0
 186 002c 0020     		mov	r0, #0
 187 002e FFF7FEFF 		bl	Pin_1b_X_Write
 188              	.LVL9:
 239:.\xy.c        **** 	Pin_2b_X_Write(0);
 189              		.loc 1 239 0
 190 0032 0020     		mov	r0, #0
 191 0034 FFF7FEFF 		bl	Pin_2b_X_Write
 192              	.LVL10:
 240:.\xy.c        **** 	CyDelay(stepDelay);
 193              		.loc 1 240 0
 194 0038 0320     		mov	r0, #3
 195 003a FFF7FEFF 		bl	CyDelay
 196              	.LVL11:
 241:.\xy.c        **** 
 242:.\xy.c        **** 	Pin_1a_X_Write(0);
 197              		.loc 1 242 0
 198 003e 0020     		mov	r0, #0
 199 0040 FFF7FEFF 		bl	Pin_1a_X_Write
 200              	.LVL12:
 243:.\xy.c        **** 	Pin_2a_X_Write(0);
 201              		.loc 1 243 0
 202 0044 0020     		mov	r0, #0
 203 0046 FFF7FEFF 		bl	Pin_2a_X_Write
 204              	.LVL13:
 244:.\xy.c        **** 	Pin_1b_X_Write(1);
 205              		.loc 1 244 0
 206 004a 0120     		mov	r0, #1
 207 004c FFF7FEFF 		bl	Pin_1b_X_Write
 208              	.LVL14:
 245:.\xy.c        **** 	Pin_2b_X_Write(0);
 209              		.loc 1 245 0
 210 0050 0020     		mov	r0, #0
 211 0052 FFF7FEFF 		bl	Pin_2b_X_Write
ARM GAS  C:\Users\Simon\AppData\Local\Temp\ccrUac0b.s 			page 9


 212              	.LVL15:
 246:.\xy.c        **** 	CyDelay(stepDelay);
 213              		.loc 1 246 0
 214 0056 0320     		mov	r0, #3
 215 0058 FFF7FEFF 		bl	CyDelay
 216              	.LVL16:
 247:.\xy.c        **** 
 248:.\xy.c        **** 	Pin_1a_X_Write(0);
 217              		.loc 1 248 0
 218 005c 0020     		mov	r0, #0
 219 005e FFF7FEFF 		bl	Pin_1a_X_Write
 220              	.LVL17:
 249:.\xy.c        **** 	Pin_2a_X_Write(0);
 221              		.loc 1 249 0
 222 0062 0020     		mov	r0, #0
 223 0064 FFF7FEFF 		bl	Pin_2a_X_Write
 224              	.LVL18:
 250:.\xy.c        **** 	Pin_1b_X_Write(0);
 225              		.loc 1 250 0
 226 0068 0020     		mov	r0, #0
 227 006a FFF7FEFF 		bl	Pin_1b_X_Write
 228              	.LVL19:
 251:.\xy.c        **** 	Pin_2b_X_Write(1);
 229              		.loc 1 251 0
 230 006e 0120     		mov	r0, #1
 231 0070 FFF7FEFF 		bl	Pin_2b_X_Write
 232              	.LVL20:
 252:.\xy.c        **** 	CyDelay(stepDelay);   
 233              		.loc 1 252 0
 234 0074 0320     		mov	r0, #3
 235 0076 FFF7FEFF 		bl	CyDelay
 236              	.LVL21:
 253:.\xy.c        **** }
 237              		.loc 1 253 0
 238              		@ sp needed
 239 007a 08BD     		pop	{r3, pc}
 240              		.cfi_endproc
 241              	.LFE45:
 242              		.size	stepXForwards, .-stepXForwards
 243              		.section	.text.stepXBackwards,"ax",%progbits
 244              		.align	2
 245              		.global	stepXBackwards
 246              		.code	16
 247              		.thumb_func
 248              		.type	stepXBackwards, %function
 249              	stepXBackwards:
 250              	.LFB46:
 254:.\xy.c        **** 
 255:.\xy.c        **** void stepXBackwards()
 256:.\xy.c        **** {
 251              		.loc 1 256 0
 252              		.cfi_startproc
 253 0000 08B5     		push	{r3, lr}
 254              		.cfi_def_cfa_offset 8
 255              		.cfi_offset 3, -8
 256              		.cfi_offset 14, -4
 257:.\xy.c        ****     Pin_1a_X_Write(0);
ARM GAS  C:\Users\Simon\AppData\Local\Temp\ccrUac0b.s 			page 10


 257              		.loc 1 257 0
 258 0002 0020     		mov	r0, #0
 259 0004 FFF7FEFF 		bl	Pin_1a_X_Write
 260              	.LVL22:
 258:.\xy.c        **** 	Pin_2a_X_Write(0);
 261              		.loc 1 258 0
 262 0008 0020     		mov	r0, #0
 263 000a FFF7FEFF 		bl	Pin_2a_X_Write
 264              	.LVL23:
 259:.\xy.c        **** 	Pin_1b_X_Write(0);
 265              		.loc 1 259 0
 266 000e 0020     		mov	r0, #0
 267 0010 FFF7FEFF 		bl	Pin_1b_X_Write
 268              	.LVL24:
 260:.\xy.c        **** 	Pin_2b_X_Write(1);
 269              		.loc 1 260 0
 270 0014 0120     		mov	r0, #1
 271 0016 FFF7FEFF 		bl	Pin_2b_X_Write
 272              	.LVL25:
 261:.\xy.c        **** 	CyDelay(stepDelay);
 273              		.loc 1 261 0
 274 001a 0320     		mov	r0, #3
 275 001c FFF7FEFF 		bl	CyDelay
 276              	.LVL26:
 262:.\xy.c        **** 
 263:.\xy.c        **** 	Pin_1a_X_Write(0);
 277              		.loc 1 263 0
 278 0020 0020     		mov	r0, #0
 279 0022 FFF7FEFF 		bl	Pin_1a_X_Write
 280              	.LVL27:
 264:.\xy.c        **** 	Pin_2a_X_Write(0);
 281              		.loc 1 264 0
 282 0026 0020     		mov	r0, #0
 283 0028 FFF7FEFF 		bl	Pin_2a_X_Write
 284              	.LVL28:
 265:.\xy.c        **** 	Pin_1b_X_Write(1);
 285              		.loc 1 265 0
 286 002c 0120     		mov	r0, #1
 287 002e FFF7FEFF 		bl	Pin_1b_X_Write
 288              	.LVL29:
 266:.\xy.c        **** 	Pin_2b_X_Write(0);
 289              		.loc 1 266 0
 290 0032 0020     		mov	r0, #0
 291 0034 FFF7FEFF 		bl	Pin_2b_X_Write
 292              	.LVL30:
 267:.\xy.c        **** 	CyDelay(stepDelay);
 293              		.loc 1 267 0
 294 0038 0320     		mov	r0, #3
 295 003a FFF7FEFF 		bl	CyDelay
 296              	.LVL31:
 268:.\xy.c        **** 
 269:.\xy.c        **** 	Pin_1a_X_Write(0);
 297              		.loc 1 269 0
 298 003e 0020     		mov	r0, #0
 299 0040 FFF7FEFF 		bl	Pin_1a_X_Write
 300              	.LVL32:
 270:.\xy.c        ****     Pin_2a_X_Write(1);
ARM GAS  C:\Users\Simon\AppData\Local\Temp\ccrUac0b.s 			page 11


 301              		.loc 1 270 0
 302 0044 0120     		mov	r0, #1
 303 0046 FFF7FEFF 		bl	Pin_2a_X_Write
 304              	.LVL33:
 271:.\xy.c        **** 	Pin_1b_X_Write(0);
 305              		.loc 1 271 0
 306 004a 0020     		mov	r0, #0
 307 004c FFF7FEFF 		bl	Pin_1b_X_Write
 308              	.LVL34:
 272:.\xy.c        **** 	Pin_2b_X_Write(0);
 309              		.loc 1 272 0
 310 0050 0020     		mov	r0, #0
 311 0052 FFF7FEFF 		bl	Pin_2b_X_Write
 312              	.LVL35:
 273:.\xy.c        **** 	CyDelay(stepDelay);
 313              		.loc 1 273 0
 314 0056 0320     		mov	r0, #3
 315 0058 FFF7FEFF 		bl	CyDelay
 316              	.LVL36:
 274:.\xy.c        **** 
 275:.\xy.c        **** 	Pin_1a_X_Write(1);
 317              		.loc 1 275 0
 318 005c 0120     		mov	r0, #1
 319 005e FFF7FEFF 		bl	Pin_1a_X_Write
 320              	.LVL37:
 276:.\xy.c        **** 	Pin_2a_X_Write(0);
 321              		.loc 1 276 0
 322 0062 0020     		mov	r0, #0
 323 0064 FFF7FEFF 		bl	Pin_2a_X_Write
 324              	.LVL38:
 277:.\xy.c        **** 	Pin_1b_X_Write(0);
 325              		.loc 1 277 0
 326 0068 0020     		mov	r0, #0
 327 006a FFF7FEFF 		bl	Pin_1b_X_Write
 328              	.LVL39:
 278:.\xy.c        **** 	Pin_2b_X_Write(0);
 329              		.loc 1 278 0
 330 006e 0020     		mov	r0, #0
 331 0070 FFF7FEFF 		bl	Pin_2b_X_Write
 332              	.LVL40:
 279:.\xy.c        **** 	CyDelay(stepDelay);
 333              		.loc 1 279 0
 334 0074 0320     		mov	r0, #3
 335 0076 FFF7FEFF 		bl	CyDelay
 336              	.LVL41:
 280:.\xy.c        **** }
 337              		.loc 1 280 0
 338              		@ sp needed
 339 007a 08BD     		pop	{r3, pc}
 340              		.cfi_endproc
 341              	.LFE46:
 342              		.size	stepXBackwards, .-stepXBackwards
 343              		.section	.text.calibrateX,"ax",%progbits
 344              		.align	2
 345              		.global	calibrateX
 346              		.code	16
 347              		.thumb_func
ARM GAS  C:\Users\Simon\AppData\Local\Temp\ccrUac0b.s 			page 12


 348              		.type	calibrateX, %function
 349              	calibrateX:
 350              	.LFB37:
  91:.\xy.c        ****     xFlag = 0;
 351              		.loc 1 91 0
 352              		.cfi_startproc
 353 0000 08B5     		push	{r3, lr}
 354              		.cfi_def_cfa_offset 8
 355              		.cfi_offset 3, -8
 356              		.cfi_offset 14, -4
  92:.\xy.c        ****     while(interrupt_X_GetState() == 1 && xFlag == 0)
 357              		.loc 1 92 0
 358 0002 0022     		mov	r2, #0
 359 0004 1A4B     		ldr	r3, .L24
 360 0006 1A72     		strb	r2, [r3, #8]
  93:.\xy.c        ****     {
 361              		.loc 1 93 0
 362 0008 06E0     		b	.L19
 363              	.L21:
  95:.\xy.c        ****         stepXForwards();
 364              		.loc 1 95 0
 365 000a 0120     		mov	r0, #1
 366 000c 0021     		mov	r1, #0
 367 000e 0022     		mov	r2, #0
 368 0010 FFF7FEFF 		bl	setLed
 369              	.LVL42:
  96:.\xy.c        ****     }
 370              		.loc 1 96 0
 371 0014 FFF7FEFF 		bl	stepXForwards
 372              	.LVL43:
 373              	.L19:
  93:.\xy.c        ****     {
 374              		.loc 1 93 0
 375 0018 FFF7FEFF 		bl	interrupt_X_GetState
 376              	.LVL44:
 377 001c 0128     		cmp	r0, #1
 378 001e 0FD1     		bne	.L20
  93:.\xy.c        ****     {
 379              		.loc 1 93 0 is_stmt 0 discriminator 1
 380 0020 134B     		ldr	r3, .L24
 381 0022 1B7A     		ldrb	r3, [r3, #8]
 382 0024 002B     		cmp	r3, #0
 383 0026 F0D0     		beq	.L21
 384 0028 0AE0     		b	.L20
 385              	.L23:
 100:.\xy.c        ****         stepXBackwards();
 386              		.loc 1 100 0 is_stmt 1
 387 002a 0120     		mov	r0, #1
 388 002c 0021     		mov	r1, #0
 389 002e 0022     		mov	r2, #0
 390 0030 FFF7FEFF 		bl	setLed
 391              	.LVL45:
 101:.\xy.c        ****         xMax++;
 392              		.loc 1 101 0
 393 0034 FFF7FEFF 		bl	stepXBackwards
 394              	.LVL46:
 102:.\xy.c        ****     }
ARM GAS  C:\Users\Simon\AppData\Local\Temp\ccrUac0b.s 			page 13


 395              		.loc 1 102 0
 396 0038 0D4A     		ldr	r2, .L24
 397 003a 1368     		ldr	r3, [r2]
 398 003c 0133     		add	r3, r3, #1
 399 003e 1360     		str	r3, [r2]
 400              	.L20:
  98:.\xy.c        ****     {
 401              		.loc 1 98 0
 402 0040 FFF7FEFF 		bl	interrupt_X_GetState
 403              	.LVL47:
 404 0044 0128     		cmp	r0, #1
 405 0046 03D1     		bne	.L22
  98:.\xy.c        ****     {
 406              		.loc 1 98 0 is_stmt 0 discriminator 1
 407 0048 094B     		ldr	r3, .L24
 408 004a 1B7A     		ldrb	r3, [r3, #8]
 409 004c 012B     		cmp	r3, #1
 410 004e ECD0     		beq	.L23
 411              	.L22:
 104:.\xy.c        ****     xMax = xMax - 100;
 412              		.loc 1 104 0 is_stmt 1
 413 0050 0022     		mov	r2, #0
 414 0052 084B     		ldr	r3, .L24+4
 415 0054 1A60     		str	r2, [r3]
 105:.\xy.c        ****     calibratedX = 1;
 416              		.loc 1 105 0
 417 0056 064B     		ldr	r3, .L24
 418 0058 1A68     		ldr	r2, [r3]
 419 005a 643A     		sub	r2, r2, #100
 420 005c 1A60     		str	r2, [r3]
 106:.\xy.c        ****     setLed(0,0,0);
 421              		.loc 1 106 0
 422 005e 0122     		mov	r2, #1
 423 0060 5A72     		strb	r2, [r3, #9]
 107:.\xy.c        **** }
 424              		.loc 1 107 0
 425 0062 0020     		mov	r0, #0
 426 0064 0021     		mov	r1, #0
 427 0066 0022     		mov	r2, #0
 428 0068 FFF7FEFF 		bl	setLed
 429              	.LVL48:
 108:.\xy.c        **** 
 430              		.loc 1 108 0
 431              		@ sp needed
 432 006c 08BD     		pop	{r3, pc}
 433              	.L25:
 434 006e C046     		.align	2
 435              	.L24:
 436 0070 00000000 		.word	.LANCHOR0
 437 0074 00000000 		.word	xPos
 438              		.cfi_endproc
 439              	.LFE37:
 440              		.size	calibrateX, .-calibrateX
 441              		.global	__aeabi_uidiv
 442              		.section	.text.setXPos,"ax",%progbits
 443              		.align	2
 444              		.global	setXPos
ARM GAS  C:\Users\Simon\AppData\Local\Temp\ccrUac0b.s 			page 14


 445              		.code	16
 446              		.thumb_func
 447              		.type	setXPos, %function
 448              	setXPos:
 449              	.LFB39:
 131:.\xy.c        ****     uint32 i;
 450              		.loc 1 131 0
 451              		.cfi_startproc
 452              	.LVL49:
 453 0000 38B5     		push	{r3, r4, r5, lr}
 454              		.cfi_def_cfa_offset 16
 455              		.cfi_offset 3, -16
 456              		.cfi_offset 4, -12
 457              		.cfi_offset 5, -8
 458              		.cfi_offset 14, -4
 459 0002 041C     		mov	r4, r0
 460              	.LVL50:
 136:.\xy.c        ****     {
 461              		.loc 1 136 0
 462 0004 244B     		ldr	r3, .L34
 463 0006 5B7A     		ldrb	r3, [r3, #9]
 464 0008 012B     		cmp	r3, #1
 465 000a 3ED1     		bne	.L27
 138:.\xy.c        ****         if(xDes < xPos)
 466              		.loc 1 138 0
 467 000c 224B     		ldr	r3, .L34
 468 000e 1868     		ldr	r0, [r3]
 469              	.LVL51:
 470 0010 6043     		mul	r0, r4
 471 0012 FF21     		mov	r1, #255
 472 0014 FFF7FEFF 		bl	__aeabi_uidiv
 473              	.LVL52:
 474 0018 041E     		sub	r4, r0, #0
 475              	.LVL53:
 139:.\xy.c        ****         {
 476              		.loc 1 139 0
 477 001a 204B     		ldr	r3, .L34+4
 478 001c 1B68     		ldr	r3, [r3]
 479 001e 9C42     		cmp	r4, r3
 480 0020 18D2     		bcs	.L28
 141:.\xy.c        ****             xSteps = xPos - xDes;
 481              		.loc 1 141 0
 482 0022 0020     		mov	r0, #0
 483              	.LVL54:
 484 0024 0121     		mov	r1, #1
 485 0026 0022     		mov	r2, #0
 486 0028 FFF7FEFF 		bl	setLed
 487              	.LVL55:
 142:.\xy.c        ****             for(i = 0; i < xSteps; i++)
 488              		.loc 1 142 0
 489 002c 1B4B     		ldr	r3, .L34+4
 490 002e 1D68     		ldr	r5, [r3]
 491 0030 2D1B     		sub	r5, r5, r4
 492              	.LVL56:
 143:.\xy.c        ****             {
 493              		.loc 1 143 0
 494 0032 0024     		mov	r4, #0
ARM GAS  C:\Users\Simon\AppData\Local\Temp\ccrUac0b.s 			page 15


 495              	.LVL57:
 496 0034 06E0     		b	.L29
 497              	.LVL58:
 498              	.L30:
 145:.\xy.c        ****                 xPos--;                
 499              		.loc 1 145 0 discriminator 3
 500 0036 FFF7FEFF 		bl	stepXBackwards
 501              	.LVL59:
 146:.\xy.c        ****             }
 502              		.loc 1 146 0 discriminator 3
 503 003a 184A     		ldr	r2, .L34+4
 504 003c 1368     		ldr	r3, [r2]
 505 003e 013B     		sub	r3, r3, #1
 506 0040 1360     		str	r3, [r2]
 143:.\xy.c        ****             {
 507              		.loc 1 143 0 discriminator 3
 508 0042 0134     		add	r4, r4, #1
 509              	.LVL60:
 510              	.L29:
 143:.\xy.c        ****             {
 511              		.loc 1 143 0 is_stmt 0 discriminator 1
 512 0044 AC42     		cmp	r4, r5
 513 0046 F6D3     		bcc	.L30
 148:.\xy.c        ****         }
 514              		.loc 1 148 0 is_stmt 1
 515 0048 0020     		mov	r0, #0
 516 004a 0021     		mov	r1, #0
 517 004c 0022     		mov	r2, #0
 518 004e FFF7FEFF 		bl	setLed
 519              	.LVL61:
 520 0052 1FE0     		b	.L26
 521              	.LVL62:
 522              	.L28:
 150:.\xy.c        ****         {
 523              		.loc 1 150 0
 524 0054 9842     		cmp	r0, r3
 525 0056 1DD9     		bls	.L26
 152:.\xy.c        ****             xSteps = xDes - xPos;
 526              		.loc 1 152 0
 527 0058 0020     		mov	r0, #0
 528              	.LVL63:
 529 005a 0121     		mov	r1, #1
 530 005c 0022     		mov	r2, #0
 531 005e FFF7FEFF 		bl	setLed
 532              	.LVL64:
 153:.\xy.c        ****             for(i = 0; i < xSteps; i++)
 533              		.loc 1 153 0
 534 0062 0E4B     		ldr	r3, .L34+4
 535 0064 1D68     		ldr	r5, [r3]
 536 0066 651B     		sub	r5, r4, r5
 537              	.LVL65:
 154:.\xy.c        ****             {
 538              		.loc 1 154 0
 539 0068 0024     		mov	r4, #0
 540              	.LVL66:
 541 006a 06E0     		b	.L32
 542              	.LVL67:
ARM GAS  C:\Users\Simon\AppData\Local\Temp\ccrUac0b.s 			page 16


 543              	.L33:
 156:.\xy.c        ****                 xPos++;                
 544              		.loc 1 156 0 discriminator 3
 545 006c FFF7FEFF 		bl	stepXForwards
 546              	.LVL68:
 157:.\xy.c        ****             }
 547              		.loc 1 157 0 discriminator 3
 548 0070 0A4A     		ldr	r2, .L34+4
 549 0072 1368     		ldr	r3, [r2]
 550 0074 0133     		add	r3, r3, #1
 551 0076 1360     		str	r3, [r2]
 154:.\xy.c        ****             {
 552              		.loc 1 154 0 discriminator 3
 553 0078 0134     		add	r4, r4, #1
 554              	.LVL69:
 555              	.L32:
 154:.\xy.c        ****             {
 556              		.loc 1 154 0 is_stmt 0 discriminator 1
 557 007a AC42     		cmp	r4, r5
 558 007c F6D3     		bcc	.L33
 159:.\xy.c        ****         }
 559              		.loc 1 159 0 is_stmt 1
 560 007e 0020     		mov	r0, #0
 561 0080 0021     		mov	r1, #0
 562 0082 0022     		mov	r2, #0
 563 0084 FFF7FEFF 		bl	setLed
 564              	.LVL70:
 565 0088 04E0     		b	.L26
 566              	.LVL71:
 567              	.L27:
 164:.\xy.c        ****         setXPos(xVal);
 568              		.loc 1 164 0
 569 008a FFF7FEFF 		bl	calibrateX
 570              	.LVL72:
 165:.\xy.c        ****     }
 571              		.loc 1 165 0
 572 008e 201C     		mov	r0, r4
 573 0090 FFF7FEFF 		bl	setXPos
 574              	.LVL73:
 575              	.L26:
 167:.\xy.c        **** 
 576              		.loc 1 167 0
 577              		@ sp needed
 578 0094 38BD     		pop	{r3, r4, r5, pc}
 579              	.L35:
 580 0096 C046     		.align	2
 581              	.L34:
 582 0098 00000000 		.word	.LANCHOR0
 583 009c 00000000 		.word	xPos
 584              		.cfi_endproc
 585              	.LFE39:
 586              		.size	setXPos, .-setXPos
 587              		.section	.text.stopX,"ax",%progbits
 588              		.align	2
 589              		.global	stopX
 590              		.code	16
 591              		.thumb_func
ARM GAS  C:\Users\Simon\AppData\Local\Temp\ccrUac0b.s 			page 17


 592              		.type	stopX, %function
 593              	stopX:
 594              	.LFB47:
 281:.\xy.c        **** 
 282:.\xy.c        **** void stopX()
 283:.\xy.c        **** {
 595              		.loc 1 283 0
 596              		.cfi_startproc
 597 0000 08B5     		push	{r3, lr}
 598              		.cfi_def_cfa_offset 8
 599              		.cfi_offset 3, -8
 600              		.cfi_offset 14, -4
 284:.\xy.c        ****     Pin_1a_X_Write(0);
 601              		.loc 1 284 0
 602 0002 0020     		mov	r0, #0
 603 0004 FFF7FEFF 		bl	Pin_1a_X_Write
 604              	.LVL74:
 285:.\xy.c        **** 	Pin_2a_X_Write(0);
 605              		.loc 1 285 0
 606 0008 0020     		mov	r0, #0
 607 000a FFF7FEFF 		bl	Pin_2a_X_Write
 608              	.LVL75:
 286:.\xy.c        **** 	Pin_1b_X_Write(0);
 609              		.loc 1 286 0
 610 000e 0020     		mov	r0, #0
 611 0010 FFF7FEFF 		bl	Pin_1b_X_Write
 612              	.LVL76:
 287:.\xy.c        **** 	Pin_2b_X_Write(0);
 613              		.loc 1 287 0
 614 0014 0020     		mov	r0, #0
 615 0016 FFF7FEFF 		bl	Pin_2b_X_Write
 616              	.LVL77:
 288:.\xy.c        **** }
 617              		.loc 1 288 0
 618              		@ sp needed
 619 001a 08BD     		pop	{r3, pc}
 620              		.cfi_endproc
 621              	.LFE47:
 622              		.size	stopX, .-stopX
 623              		.section	.text.isr_X,"ax",%progbits
 624              		.align	2
 625              		.global	isr_X
 626              		.code	16
 627              		.thumb_func
 628              		.type	isr_X, %function
 629              	isr_X:
 630              	.LFB35:
  37:.\xy.c        ****     interrupt_X_Disable();
 631              		.loc 1 37 0
 632              		.cfi_startproc
 633 0000 10B5     		push	{r4, lr}
 634              		.cfi_def_cfa_offset 8
 635              		.cfi_offset 4, -8
 636              		.cfi_offset 14, -4
  38:.\xy.c        ****     uint32 i;
 637              		.loc 1 38 0
 638 0002 FFF7FEFF 		bl	interrupt_X_Disable
ARM GAS  C:\Users\Simon\AppData\Local\Temp\ccrUac0b.s 			page 18


 639              	.LVL78:
  40:.\xy.c        ****     setLed(0,0,1);
 640              		.loc 1 40 0
 641 0006 FFF7FEFF 		bl	stopX
 642              	.LVL79:
  41:.\xy.c        ****     if(xFlag == 0)
 643              		.loc 1 41 0
 644 000a 0020     		mov	r0, #0
 645 000c 0021     		mov	r1, #0
 646 000e 0122     		mov	r2, #1
 647 0010 FFF7FEFF 		bl	setLed
 648              	.LVL80:
  42:.\xy.c        ****     {
 649              		.loc 1 42 0
 650 0014 114B     		ldr	r3, .L44
 651 0016 1B7A     		ldrb	r3, [r3, #8]
 652 0018 002B     		cmp	r3, #0
 653 001a 05D0     		beq	.L43
 654 001c 0024     		mov	r4, #0
 655 001e 0DE0     		b	.L39
 656              	.LVL81:
 657              	.L40:
  46:.\xy.c        ****         }
 658              		.loc 1 46 0 discriminator 3
 659 0020 FFF7FEFF 		bl	stepXBackwards
 660              	.LVL82:
  44:.\xy.c        ****         {
 661              		.loc 1 44 0 discriminator 3
 662 0024 0134     		add	r4, r4, #1
 663              	.LVL83:
 664 0026 00E0     		b	.L38
 665              	.LVL84:
 666              	.L43:
 667 0028 0024     		mov	r4, #0
 668              	.L38:
 669              	.LVL85:
  44:.\xy.c        ****         {
 670              		.loc 1 44 0 is_stmt 0 discriminator 1
 671 002a 312C     		cmp	r4, #49
 672 002c F8D9     		bls	.L40
  48:.\xy.c        ****     }
 673              		.loc 1 48 0 is_stmt 1
 674 002e 0122     		mov	r2, #1
 675 0030 0A4B     		ldr	r3, .L44
 676 0032 1A72     		strb	r2, [r3, #8]
 677 0034 07E0     		b	.L41
 678              	.L42:
  54:.\xy.c        ****         }
 679              		.loc 1 54 0 discriminator 3
 680 0036 FFF7FEFF 		bl	stepXForwards
 681              	.LVL86:
  52:.\xy.c        ****         {
 682              		.loc 1 52 0 discriminator 3
 683 003a 0134     		add	r4, r4, #1
 684              	.LVL87:
 685              	.L39:
  52:.\xy.c        ****         {
ARM GAS  C:\Users\Simon\AppData\Local\Temp\ccrUac0b.s 			page 19


 686              		.loc 1 52 0 is_stmt 0 discriminator 1
 687 003c 312C     		cmp	r4, #49
 688 003e FAD9     		bls	.L42
  56:.\xy.c        ****     }
 689              		.loc 1 56 0 is_stmt 1
 690 0040 0022     		mov	r2, #0
 691 0042 064B     		ldr	r3, .L44
 692 0044 1A72     		strb	r2, [r3, #8]
 693              	.L41:
  58:.\xy.c        ****     interrupt_X_ClearPending();
 694              		.loc 1 58 0
 695 0046 0020     		mov	r0, #0
 696 0048 0021     		mov	r1, #0
 697 004a 0022     		mov	r2, #0
 698 004c FFF7FEFF 		bl	setLed
 699              	.LVL88:
  59:.\xy.c        ****     interrupt_X_Enable();
 700              		.loc 1 59 0
 701 0050 FFF7FEFF 		bl	interrupt_X_ClearPending
 702              	.LVL89:
  60:.\xy.c        **** }
 703              		.loc 1 60 0
 704 0054 FFF7FEFF 		bl	interrupt_X_Enable
 705              	.LVL90:
  61:.\xy.c        **** 
 706              		.loc 1 61 0
 707              		@ sp needed
 708              	.LVL91:
 709 0058 10BD     		pop	{r4, pc}
 710              	.L45:
 711 005a C046     		.align	2
 712              	.L44:
 713 005c 00000000 		.word	.LANCHOR0
 714              		.cfi_endproc
 715              	.LFE35:
 716              		.size	isr_X, .-isr_X
 717              		.section	.text.stepYForwards,"ax",%progbits
 718              		.align	2
 719              		.global	stepYForwards
 720              		.code	16
 721              		.thumb_func
 722              		.type	stepYForwards, %function
 723              	stepYForwards:
 724              	.LFB48:
 289:.\xy.c        **** 
 290:.\xy.c        **** void stepYForwards()
 291:.\xy.c        **** {
 725              		.loc 1 291 0
 726              		.cfi_startproc
 727 0000 08B5     		push	{r3, lr}
 728              		.cfi_def_cfa_offset 8
 729              		.cfi_offset 3, -8
 730              		.cfi_offset 14, -4
 292:.\xy.c        ****     Pin_1a_Y_Write(1);
 731              		.loc 1 292 0
 732 0002 0120     		mov	r0, #1
 733 0004 FFF7FEFF 		bl	Pin_1a_Y_Write
ARM GAS  C:\Users\Simon\AppData\Local\Temp\ccrUac0b.s 			page 20


 734              	.LVL92:
 293:.\xy.c        ****     Pin_2a_Y_Write(0);
 735              		.loc 1 293 0
 736 0008 0020     		mov	r0, #0
 737 000a FFF7FEFF 		bl	Pin_2a_Y_Write
 738              	.LVL93:
 294:.\xy.c        **** 	Pin_1b_Y_Write(0);
 739              		.loc 1 294 0
 740 000e 0020     		mov	r0, #0
 741 0010 FFF7FEFF 		bl	Pin_1b_Y_Write
 742              	.LVL94:
 295:.\xy.c        **** 	Pin_2b_Y_Write(0);
 743              		.loc 1 295 0
 744 0014 0020     		mov	r0, #0
 745 0016 FFF7FEFF 		bl	Pin_2b_Y_Write
 746              	.LVL95:
 296:.\xy.c        **** 	CyDelay(stepDelay);
 747              		.loc 1 296 0
 748 001a 0320     		mov	r0, #3
 749 001c FFF7FEFF 		bl	CyDelay
 750              	.LVL96:
 297:.\xy.c        **** 
 298:.\xy.c        **** 	Pin_1a_Y_Write(0);
 751              		.loc 1 298 0
 752 0020 0020     		mov	r0, #0
 753 0022 FFF7FEFF 		bl	Pin_1a_Y_Write
 754              	.LVL97:
 299:.\xy.c        ****     Pin_2a_Y_Write(1);
 755              		.loc 1 299 0
 756 0026 0120     		mov	r0, #1
 757 0028 FFF7FEFF 		bl	Pin_2a_Y_Write
 758              	.LVL98:
 300:.\xy.c        **** 	Pin_1b_Y_Write(0);
 759              		.loc 1 300 0
 760 002c 0020     		mov	r0, #0
 761 002e FFF7FEFF 		bl	Pin_1b_Y_Write
 762              	.LVL99:
 301:.\xy.c        **** 	Pin_2b_Y_Write(0);
 763              		.loc 1 301 0
 764 0032 0020     		mov	r0, #0
 765 0034 FFF7FEFF 		bl	Pin_2b_Y_Write
 766              	.LVL100:
 302:.\xy.c        **** 	CyDelay(stepDelay);
 767              		.loc 1 302 0
 768 0038 0320     		mov	r0, #3
 769 003a FFF7FEFF 		bl	CyDelay
 770              	.LVL101:
 303:.\xy.c        **** 
 304:.\xy.c        **** 	Pin_1a_Y_Write(0);
 771              		.loc 1 304 0
 772 003e 0020     		mov	r0, #0
 773 0040 FFF7FEFF 		bl	Pin_1a_Y_Write
 774              	.LVL102:
 305:.\xy.c        **** 	Pin_2a_Y_Write(0);
 775              		.loc 1 305 0
 776 0044 0020     		mov	r0, #0
 777 0046 FFF7FEFF 		bl	Pin_2a_Y_Write
ARM GAS  C:\Users\Simon\AppData\Local\Temp\ccrUac0b.s 			page 21


 778              	.LVL103:
 306:.\xy.c        **** 	Pin_1b_Y_Write(1);
 779              		.loc 1 306 0
 780 004a 0120     		mov	r0, #1
 781 004c FFF7FEFF 		bl	Pin_1b_Y_Write
 782              	.LVL104:
 307:.\xy.c        **** 	Pin_2b_Y_Write(0);
 783              		.loc 1 307 0
 784 0050 0020     		mov	r0, #0
 785 0052 FFF7FEFF 		bl	Pin_2b_Y_Write
 786              	.LVL105:
 308:.\xy.c        **** 	CyDelay(stepDelay);
 787              		.loc 1 308 0
 788 0056 0320     		mov	r0, #3
 789 0058 FFF7FEFF 		bl	CyDelay
 790              	.LVL106:
 309:.\xy.c        **** 
 310:.\xy.c        **** 	Pin_1a_Y_Write(0);
 791              		.loc 1 310 0
 792 005c 0020     		mov	r0, #0
 793 005e FFF7FEFF 		bl	Pin_1a_Y_Write
 794              	.LVL107:
 311:.\xy.c        **** 	Pin_2a_Y_Write(0);
 795              		.loc 1 311 0
 796 0062 0020     		mov	r0, #0
 797 0064 FFF7FEFF 		bl	Pin_2a_Y_Write
 798              	.LVL108:
 312:.\xy.c        **** 	Pin_1b_Y_Write(0);
 799              		.loc 1 312 0
 800 0068 0020     		mov	r0, #0
 801 006a FFF7FEFF 		bl	Pin_1b_Y_Write
 802              	.LVL109:
 313:.\xy.c        **** 	Pin_2b_Y_Write(1);
 803              		.loc 1 313 0
 804 006e 0120     		mov	r0, #1
 805 0070 FFF7FEFF 		bl	Pin_2b_Y_Write
 806              	.LVL110:
 314:.\xy.c        **** 	CyDelay(stepDelay);   
 807              		.loc 1 314 0
 808 0074 0320     		mov	r0, #3
 809 0076 FFF7FEFF 		bl	CyDelay
 810              	.LVL111:
 315:.\xy.c        **** }
 811              		.loc 1 315 0
 812              		@ sp needed
 813 007a 08BD     		pop	{r3, pc}
 814              		.cfi_endproc
 815              	.LFE48:
 816              		.size	stepYForwards, .-stepYForwards
 817              		.section	.text.stepYBackwards,"ax",%progbits
 818              		.align	2
 819              		.global	stepYBackwards
 820              		.code	16
 821              		.thumb_func
 822              		.type	stepYBackwards, %function
 823              	stepYBackwards:
 824              	.LFB49:
ARM GAS  C:\Users\Simon\AppData\Local\Temp\ccrUac0b.s 			page 22


 316:.\xy.c        **** 
 317:.\xy.c        **** void stepYBackwards()
 318:.\xy.c        **** {
 825              		.loc 1 318 0
 826              		.cfi_startproc
 827 0000 08B5     		push	{r3, lr}
 828              		.cfi_def_cfa_offset 8
 829              		.cfi_offset 3, -8
 830              		.cfi_offset 14, -4
 319:.\xy.c        ****     Pin_1a_Y_Write(0);
 831              		.loc 1 319 0
 832 0002 0020     		mov	r0, #0
 833 0004 FFF7FEFF 		bl	Pin_1a_Y_Write
 834              	.LVL112:
 320:.\xy.c        **** 	Pin_2a_Y_Write(0);
 835              		.loc 1 320 0
 836 0008 0020     		mov	r0, #0
 837 000a FFF7FEFF 		bl	Pin_2a_Y_Write
 838              	.LVL113:
 321:.\xy.c        **** 	Pin_1b_Y_Write(0);
 839              		.loc 1 321 0
 840 000e 0020     		mov	r0, #0
 841 0010 FFF7FEFF 		bl	Pin_1b_Y_Write
 842              	.LVL114:
 322:.\xy.c        **** 	Pin_2b_Y_Write(1);
 843              		.loc 1 322 0
 844 0014 0120     		mov	r0, #1
 845 0016 FFF7FEFF 		bl	Pin_2b_Y_Write
 846              	.LVL115:
 323:.\xy.c        **** 	CyDelay(stepDelay);
 847              		.loc 1 323 0
 848 001a 0320     		mov	r0, #3
 849 001c FFF7FEFF 		bl	CyDelay
 850              	.LVL116:
 324:.\xy.c        **** 
 325:.\xy.c        **** 	Pin_1a_Y_Write(0);
 851              		.loc 1 325 0
 852 0020 0020     		mov	r0, #0
 853 0022 FFF7FEFF 		bl	Pin_1a_Y_Write
 854              	.LVL117:
 326:.\xy.c        **** 	Pin_2a_Y_Write(0);
 855              		.loc 1 326 0
 856 0026 0020     		mov	r0, #0
 857 0028 FFF7FEFF 		bl	Pin_2a_Y_Write
 858              	.LVL118:
 327:.\xy.c        **** 	Pin_1b_Y_Write(1);
 859              		.loc 1 327 0
 860 002c 0120     		mov	r0, #1
 861 002e FFF7FEFF 		bl	Pin_1b_Y_Write
 862              	.LVL119:
 328:.\xy.c        **** 	Pin_2b_Y_Write(0);
 863              		.loc 1 328 0
 864 0032 0020     		mov	r0, #0
 865 0034 FFF7FEFF 		bl	Pin_2b_Y_Write
 866              	.LVL120:
 329:.\xy.c        **** 	CyDelay(stepDelay);
 867              		.loc 1 329 0
ARM GAS  C:\Users\Simon\AppData\Local\Temp\ccrUac0b.s 			page 23


 868 0038 0320     		mov	r0, #3
 869 003a FFF7FEFF 		bl	CyDelay
 870              	.LVL121:
 330:.\xy.c        **** 
 331:.\xy.c        **** 	Pin_1a_Y_Write(0);
 871              		.loc 1 331 0
 872 003e 0020     		mov	r0, #0
 873 0040 FFF7FEFF 		bl	Pin_1a_Y_Write
 874              	.LVL122:
 332:.\xy.c        ****     Pin_2a_Y_Write(1);
 875              		.loc 1 332 0
 876 0044 0120     		mov	r0, #1
 877 0046 FFF7FEFF 		bl	Pin_2a_Y_Write
 878              	.LVL123:
 333:.\xy.c        **** 	Pin_1b_Y_Write(0);
 879              		.loc 1 333 0
 880 004a 0020     		mov	r0, #0
 881 004c FFF7FEFF 		bl	Pin_1b_Y_Write
 882              	.LVL124:
 334:.\xy.c        **** 	Pin_2b_Y_Write(0);
 883              		.loc 1 334 0
 884 0050 0020     		mov	r0, #0
 885 0052 FFF7FEFF 		bl	Pin_2b_Y_Write
 886              	.LVL125:
 335:.\xy.c        **** 	CyDelay(stepDelay);
 887              		.loc 1 335 0
 888 0056 0320     		mov	r0, #3
 889 0058 FFF7FEFF 		bl	CyDelay
 890              	.LVL126:
 336:.\xy.c        **** 
 337:.\xy.c        **** 	Pin_1a_Y_Write(1);
 891              		.loc 1 337 0
 892 005c 0120     		mov	r0, #1
 893 005e FFF7FEFF 		bl	Pin_1a_Y_Write
 894              	.LVL127:
 338:.\xy.c        **** 	Pin_2a_Y_Write(0);
 895              		.loc 1 338 0
 896 0062 0020     		mov	r0, #0
 897 0064 FFF7FEFF 		bl	Pin_2a_Y_Write
 898              	.LVL128:
 339:.\xy.c        **** 	Pin_1b_Y_Write(0);
 899              		.loc 1 339 0
 900 0068 0020     		mov	r0, #0
 901 006a FFF7FEFF 		bl	Pin_1b_Y_Write
 902              	.LVL129:
 340:.\xy.c        **** 	Pin_2b_Y_Write(0);
 903              		.loc 1 340 0
 904 006e 0020     		mov	r0, #0
 905 0070 FFF7FEFF 		bl	Pin_2b_Y_Write
 906              	.LVL130:
 341:.\xy.c        **** 	CyDelay(stepDelay);
 907              		.loc 1 341 0
 908 0074 0320     		mov	r0, #3
 909 0076 FFF7FEFF 		bl	CyDelay
 910              	.LVL131:
 342:.\xy.c        **** }
 911              		.loc 1 342 0
ARM GAS  C:\Users\Simon\AppData\Local\Temp\ccrUac0b.s 			page 24


 912              		@ sp needed
 913 007a 08BD     		pop	{r3, pc}
 914              		.cfi_endproc
 915              	.LFE49:
 916              		.size	stepYBackwards, .-stepYBackwards
 917              		.section	.text.calibrateY,"ax",%progbits
 918              		.align	2
 919              		.global	calibrateY
 920              		.code	16
 921              		.thumb_func
 922              		.type	calibrateY, %function
 923              	calibrateY:
 924              	.LFB38:
 111:.\xy.c        ****     yFlag = 0;
 925              		.loc 1 111 0
 926              		.cfi_startproc
 927 0000 08B5     		push	{r3, lr}
 928              		.cfi_def_cfa_offset 8
 929              		.cfi_offset 3, -8
 930              		.cfi_offset 14, -4
 112:.\xy.c        ****     while(interrupt_Y_GetState() == 1 && yFlag == 0)
 931              		.loc 1 112 0
 932 0002 0022     		mov	r2, #0
 933 0004 1A4B     		ldr	r3, .L54
 934 0006 9A72     		strb	r2, [r3, #10]
 113:.\xy.c        ****     {
 935              		.loc 1 113 0
 936 0008 06E0     		b	.L49
 937              	.L51:
 115:.\xy.c        ****         stepYForwards();
 938              		.loc 1 115 0
 939 000a 0120     		mov	r0, #1
 940 000c 0021     		mov	r1, #0
 941 000e 0022     		mov	r2, #0
 942 0010 FFF7FEFF 		bl	setLed
 943              	.LVL132:
 116:.\xy.c        ****     }
 944              		.loc 1 116 0
 945 0014 FFF7FEFF 		bl	stepYForwards
 946              	.LVL133:
 947              	.L49:
 113:.\xy.c        ****     {
 948              		.loc 1 113 0
 949 0018 FFF7FEFF 		bl	interrupt_Y_GetState
 950              	.LVL134:
 951 001c 0128     		cmp	r0, #1
 952 001e 0FD1     		bne	.L50
 113:.\xy.c        ****     {
 953              		.loc 1 113 0 is_stmt 0 discriminator 1
 954 0020 134B     		ldr	r3, .L54
 955 0022 9B7A     		ldrb	r3, [r3, #10]
 956 0024 002B     		cmp	r3, #0
 957 0026 F0D0     		beq	.L51
 958 0028 0AE0     		b	.L50
 959              	.L53:
 120:.\xy.c        ****         stepYBackwards();
 960              		.loc 1 120 0 is_stmt 1
ARM GAS  C:\Users\Simon\AppData\Local\Temp\ccrUac0b.s 			page 25


 961 002a 0120     		mov	r0, #1
 962 002c 0021     		mov	r1, #0
 963 002e 0022     		mov	r2, #0
 964 0030 FFF7FEFF 		bl	setLed
 965              	.LVL135:
 121:.\xy.c        ****         yMax++;
 966              		.loc 1 121 0
 967 0034 FFF7FEFF 		bl	stepYBackwards
 968              	.LVL136:
 122:.\xy.c        ****     }
 969              		.loc 1 122 0
 970 0038 0D4A     		ldr	r2, .L54
 971 003a 5368     		ldr	r3, [r2, #4]
 972 003c 0133     		add	r3, r3, #1
 973 003e 5360     		str	r3, [r2, #4]
 974              	.L50:
 118:.\xy.c        ****     {
 975              		.loc 1 118 0
 976 0040 FFF7FEFF 		bl	interrupt_Y_GetState
 977              	.LVL137:
 978 0044 0128     		cmp	r0, #1
 979 0046 03D1     		bne	.L52
 118:.\xy.c        ****     {
 980              		.loc 1 118 0 is_stmt 0 discriminator 1
 981 0048 094B     		ldr	r3, .L54
 982 004a 9B7A     		ldrb	r3, [r3, #10]
 983 004c 012B     		cmp	r3, #1
 984 004e ECD0     		beq	.L53
 985              	.L52:
 124:.\xy.c        ****     yMax = yMax - 100;
 986              		.loc 1 124 0 is_stmt 1
 987 0050 0022     		mov	r2, #0
 988 0052 084B     		ldr	r3, .L54+4
 989 0054 1A60     		str	r2, [r3]
 125:.\xy.c        ****     calibratedY = 1;
 990              		.loc 1 125 0
 991 0056 064B     		ldr	r3, .L54
 992 0058 5A68     		ldr	r2, [r3, #4]
 993 005a 643A     		sub	r2, r2, #100
 994 005c 5A60     		str	r2, [r3, #4]
 126:.\xy.c        ****     setLed(0,0,0);
 995              		.loc 1 126 0
 996 005e 0122     		mov	r2, #1
 997 0060 DA72     		strb	r2, [r3, #11]
 127:.\xy.c        **** }
 998              		.loc 1 127 0
 999 0062 0020     		mov	r0, #0
 1000 0064 0021     		mov	r1, #0
 1001 0066 0022     		mov	r2, #0
 1002 0068 FFF7FEFF 		bl	setLed
 1003              	.LVL138:
 128:.\xy.c        **** 
 1004              		.loc 1 128 0
 1005              		@ sp needed
 1006 006c 08BD     		pop	{r3, pc}
 1007              	.L55:
 1008 006e C046     		.align	2
ARM GAS  C:\Users\Simon\AppData\Local\Temp\ccrUac0b.s 			page 26


 1009              	.L54:
 1010 0070 00000000 		.word	.LANCHOR0
 1011 0074 00000000 		.word	yPos
 1012              		.cfi_endproc
 1013              	.LFE38:
 1014              		.size	calibrateY, .-calibrateY
 1015              		.section	.text.setYPos,"ax",%progbits
 1016              		.align	2
 1017              		.global	setYPos
 1018              		.code	16
 1019              		.thumb_func
 1020              		.type	setYPos, %function
 1021              	setYPos:
 1022              	.LFB40:
 170:.\xy.c        ****     uint32 i;
 1023              		.loc 1 170 0
 1024              		.cfi_startproc
 1025              	.LVL139:
 1026 0000 38B5     		push	{r3, r4, r5, lr}
 1027              		.cfi_def_cfa_offset 16
 1028              		.cfi_offset 3, -16
 1029              		.cfi_offset 4, -12
 1030              		.cfi_offset 5, -8
 1031              		.cfi_offset 14, -4
 1032 0002 041C     		mov	r4, r0
 1033              	.LVL140:
 175:.\xy.c        ****     {
 1034              		.loc 1 175 0
 1035 0004 244B     		ldr	r3, .L64
 1036 0006 DB7A     		ldrb	r3, [r3, #11]
 1037 0008 012B     		cmp	r3, #1
 1038 000a 3ED1     		bne	.L57
 177:.\xy.c        ****         if(yDes < yPos)
 1039              		.loc 1 177 0
 1040 000c 224B     		ldr	r3, .L64
 1041 000e 5868     		ldr	r0, [r3, #4]
 1042              	.LVL141:
 1043 0010 6043     		mul	r0, r4
 1044 0012 FF21     		mov	r1, #255
 1045 0014 FFF7FEFF 		bl	__aeabi_uidiv
 1046              	.LVL142:
 1047 0018 041E     		sub	r4, r0, #0
 1048              	.LVL143:
 178:.\xy.c        ****         {
 1049              		.loc 1 178 0
 1050 001a 204B     		ldr	r3, .L64+4
 1051 001c 1B68     		ldr	r3, [r3]
 1052 001e 9C42     		cmp	r4, r3
 1053 0020 18D2     		bcs	.L58
 180:.\xy.c        ****             ySteps = yPos - yDes;
 1054              		.loc 1 180 0
 1055 0022 0020     		mov	r0, #0
 1056              	.LVL144:
 1057 0024 0121     		mov	r1, #1
 1058 0026 0022     		mov	r2, #0
 1059 0028 FFF7FEFF 		bl	setLed
 1060              	.LVL145:
ARM GAS  C:\Users\Simon\AppData\Local\Temp\ccrUac0b.s 			page 27


 181:.\xy.c        ****             for(i = 0; i < ySteps; i++)
 1061              		.loc 1 181 0
 1062 002c 1B4B     		ldr	r3, .L64+4
 1063 002e 1D68     		ldr	r5, [r3]
 1064 0030 2D1B     		sub	r5, r5, r4
 1065              	.LVL146:
 182:.\xy.c        ****             {
 1066              		.loc 1 182 0
 1067 0032 0024     		mov	r4, #0
 1068              	.LVL147:
 1069 0034 06E0     		b	.L59
 1070              	.LVL148:
 1071              	.L60:
 184:.\xy.c        ****                 yPos--;                
 1072              		.loc 1 184 0 discriminator 3
 1073 0036 FFF7FEFF 		bl	stepYBackwards
 1074              	.LVL149:
 185:.\xy.c        ****             }
 1075              		.loc 1 185 0 discriminator 3
 1076 003a 184A     		ldr	r2, .L64+4
 1077 003c 1368     		ldr	r3, [r2]
 1078 003e 013B     		sub	r3, r3, #1
 1079 0040 1360     		str	r3, [r2]
 182:.\xy.c        ****             {
 1080              		.loc 1 182 0 discriminator 3
 1081 0042 0134     		add	r4, r4, #1
 1082              	.LVL150:
 1083              	.L59:
 182:.\xy.c        ****             {
 1084              		.loc 1 182 0 is_stmt 0 discriminator 1
 1085 0044 AC42     		cmp	r4, r5
 1086 0046 F6D3     		bcc	.L60
 187:.\xy.c        ****         }
 1087              		.loc 1 187 0 is_stmt 1
 1088 0048 0020     		mov	r0, #0
 1089 004a 0021     		mov	r1, #0
 1090 004c 0022     		mov	r2, #0
 1091 004e FFF7FEFF 		bl	setLed
 1092              	.LVL151:
 1093 0052 1FE0     		b	.L56
 1094              	.LVL152:
 1095              	.L58:
 189:.\xy.c        ****         {
 1096              		.loc 1 189 0
 1097 0054 9842     		cmp	r0, r3
 1098 0056 1DD9     		bls	.L56
 191:.\xy.c        ****             ySteps = yDes - yPos;
 1099              		.loc 1 191 0
 1100 0058 0020     		mov	r0, #0
 1101              	.LVL153:
 1102 005a 0121     		mov	r1, #1
 1103 005c 0022     		mov	r2, #0
 1104 005e FFF7FEFF 		bl	setLed
 1105              	.LVL154:
 192:.\xy.c        ****             for(i = 0; i < ySteps; i++)
 1106              		.loc 1 192 0
 1107 0062 0E4B     		ldr	r3, .L64+4
ARM GAS  C:\Users\Simon\AppData\Local\Temp\ccrUac0b.s 			page 28


 1108 0064 1D68     		ldr	r5, [r3]
 1109 0066 651B     		sub	r5, r4, r5
 1110              	.LVL155:
 193:.\xy.c        ****             {
 1111              		.loc 1 193 0
 1112 0068 0024     		mov	r4, #0
 1113              	.LVL156:
 1114 006a 06E0     		b	.L62
 1115              	.LVL157:
 1116              	.L63:
 195:.\xy.c        ****                 yPos++;                
 1117              		.loc 1 195 0 discriminator 3
 1118 006c FFF7FEFF 		bl	stepYForwards
 1119              	.LVL158:
 196:.\xy.c        ****             }
 1120              		.loc 1 196 0 discriminator 3
 1121 0070 0A4A     		ldr	r2, .L64+4
 1122 0072 1368     		ldr	r3, [r2]
 1123 0074 0133     		add	r3, r3, #1
 1124 0076 1360     		str	r3, [r2]
 193:.\xy.c        ****             {
 1125              		.loc 1 193 0 discriminator 3
 1126 0078 0134     		add	r4, r4, #1
 1127              	.LVL159:
 1128              	.L62:
 193:.\xy.c        ****             {
 1129              		.loc 1 193 0 is_stmt 0 discriminator 1
 1130 007a AC42     		cmp	r4, r5
 1131 007c F6D3     		bcc	.L63
 198:.\xy.c        ****         }
 1132              		.loc 1 198 0 is_stmt 1
 1133 007e 0020     		mov	r0, #0
 1134 0080 0021     		mov	r1, #0
 1135 0082 0022     		mov	r2, #0
 1136 0084 FFF7FEFF 		bl	setLed
 1137              	.LVL160:
 1138 0088 04E0     		b	.L56
 1139              	.LVL161:
 1140              	.L57:
 203:.\xy.c        ****         setYPos(yVal);
 1141              		.loc 1 203 0
 1142 008a FFF7FEFF 		bl	calibrateY
 1143              	.LVL162:
 204:.\xy.c        ****     }
 1144              		.loc 1 204 0
 1145 008e 201C     		mov	r0, r4
 1146 0090 FFF7FEFF 		bl	setYPos
 1147              	.LVL163:
 1148              	.L56:
 206:.\xy.c        **** 
 1149              		.loc 1 206 0
 1150              		@ sp needed
 1151 0094 38BD     		pop	{r3, r4, r5, pc}
 1152              	.L65:
 1153 0096 C046     		.align	2
 1154              	.L64:
 1155 0098 00000000 		.word	.LANCHOR0
ARM GAS  C:\Users\Simon\AppData\Local\Temp\ccrUac0b.s 			page 29


 1156 009c 00000000 		.word	yPos
 1157              		.cfi_endproc
 1158              	.LFE40:
 1159              		.size	setYPos, .-setYPos
 1160              		.section	.text.stopY,"ax",%progbits
 1161              		.align	2
 1162              		.global	stopY
 1163              		.code	16
 1164              		.thumb_func
 1165              		.type	stopY, %function
 1166              	stopY:
 1167              	.LFB50:
 343:.\xy.c        **** 
 344:.\xy.c        **** void stopY()
 345:.\xy.c        **** {
 1168              		.loc 1 345 0
 1169              		.cfi_startproc
 1170 0000 08B5     		push	{r3, lr}
 1171              		.cfi_def_cfa_offset 8
 1172              		.cfi_offset 3, -8
 1173              		.cfi_offset 14, -4
 346:.\xy.c        ****     Pin_1a_Y_Write(0);
 1174              		.loc 1 346 0
 1175 0002 0020     		mov	r0, #0
 1176 0004 FFF7FEFF 		bl	Pin_1a_Y_Write
 1177              	.LVL164:
 347:.\xy.c        **** 	Pin_2a_Y_Write(0);
 1178              		.loc 1 347 0
 1179 0008 0020     		mov	r0, #0
 1180 000a FFF7FEFF 		bl	Pin_2a_Y_Write
 1181              	.LVL165:
 348:.\xy.c        **** 	Pin_1b_Y_Write(0);
 1182              		.loc 1 348 0
 1183 000e 0020     		mov	r0, #0
 1184 0010 FFF7FEFF 		bl	Pin_1b_Y_Write
 1185              	.LVL166:
 349:.\xy.c        **** 	Pin_2b_Y_Write(0);
 1186              		.loc 1 349 0
 1187 0014 0020     		mov	r0, #0
 1188 0016 FFF7FEFF 		bl	Pin_2b_Y_Write
 1189              	.LVL167:
 350:.\xy.c        **** }
 1190              		.loc 1 350 0
 1191              		@ sp needed
 1192 001a 08BD     		pop	{r3, pc}
 1193              		.cfi_endproc
 1194              	.LFE50:
 1195              		.size	stopY, .-stopY
 1196              		.section	.text.isr_Y,"ax",%progbits
 1197              		.align	2
 1198              		.global	isr_Y
 1199              		.code	16
 1200              		.thumb_func
 1201              		.type	isr_Y, %function
 1202              	isr_Y:
 1203              	.LFB36:
  64:.\xy.c        ****     interrupt_Y_Disable();
ARM GAS  C:\Users\Simon\AppData\Local\Temp\ccrUac0b.s 			page 30


 1204              		.loc 1 64 0
 1205              		.cfi_startproc
 1206 0000 10B5     		push	{r4, lr}
 1207              		.cfi_def_cfa_offset 8
 1208              		.cfi_offset 4, -8
 1209              		.cfi_offset 14, -4
  65:.\xy.c        ****     uint32 i;
 1210              		.loc 1 65 0
 1211 0002 FFF7FEFF 		bl	interrupt_Y_Disable
 1212              	.LVL168:
  67:.\xy.c        ****     setLed(0,0,1);
 1213              		.loc 1 67 0
 1214 0006 FFF7FEFF 		bl	stopY
 1215              	.LVL169:
  68:.\xy.c        ****     if(yFlag == 0)
 1216              		.loc 1 68 0
 1217 000a 0020     		mov	r0, #0
 1218 000c 0021     		mov	r1, #0
 1219 000e 0122     		mov	r2, #1
 1220 0010 FFF7FEFF 		bl	setLed
 1221              	.LVL170:
  69:.\xy.c        ****     {
 1222              		.loc 1 69 0
 1223 0014 134B     		ldr	r3, .L77
 1224 0016 9B7A     		ldrb	r3, [r3, #10]
 1225 0018 002B     		cmp	r3, #0
 1226 001a 04D0     		beq	.L74
 1227 001c 0AE0     		b	.L76
 1228              	.LVL171:
 1229              	.L70:
  73:.\xy.c        ****         }
 1230              		.loc 1 73 0 discriminator 3
 1231 001e FFF7FEFF 		bl	stepYBackwards
 1232              	.LVL172:
  71:.\xy.c        ****         {
 1233              		.loc 1 71 0 discriminator 3
 1234 0022 0134     		add	r4, r4, #1
 1235              	.LVL173:
 1236 0024 00E0     		b	.L68
 1237              	.LVL174:
 1238              	.L74:
 1239 0026 0024     		mov	r4, #0
 1240              	.L68:
 1241              	.LVL175:
  71:.\xy.c        ****         {
 1242              		.loc 1 71 0 is_stmt 0 discriminator 1
 1243 0028 312C     		cmp	r4, #49
 1244 002a F8D9     		bls	.L70
  75:.\xy.c        ****     }
 1245              		.loc 1 75 0 is_stmt 1
 1246 002c 0122     		mov	r2, #1
 1247 002e 0D4B     		ldr	r3, .L77
 1248 0030 9A72     		strb	r2, [r3, #10]
 1249 0032 0CE0     		b	.L71
 1250              	.LVL176:
 1251              	.L76:
  77:.\xy.c        ****     {
ARM GAS  C:\Users\Simon\AppData\Local\Temp\ccrUac0b.s 			page 31


 1252              		.loc 1 77 0
 1253 0034 012B     		cmp	r3, #1
 1254 0036 0AD1     		bne	.L71
 1255 0038 03E0     		b	.L75
 1256              	.LVL177:
 1257              	.L73:
  81:.\xy.c        ****         }
 1258              		.loc 1 81 0 discriminator 3
 1259 003a FFF7FEFF 		bl	stepYForwards
 1260              	.LVL178:
  79:.\xy.c        ****         {
 1261              		.loc 1 79 0 discriminator 3
 1262 003e 0134     		add	r4, r4, #1
 1263              	.LVL179:
 1264 0040 00E0     		b	.L72
 1265              	.LVL180:
 1266              	.L75:
 1267 0042 0024     		mov	r4, #0
 1268              	.L72:
 1269              	.LVL181:
  79:.\xy.c        ****         {
 1270              		.loc 1 79 0 is_stmt 0 discriminator 1
 1271 0044 312C     		cmp	r4, #49
 1272 0046 F8D9     		bls	.L73
  83:.\xy.c        ****     }
 1273              		.loc 1 83 0 is_stmt 1
 1274 0048 0022     		mov	r2, #0
 1275 004a 064B     		ldr	r3, .L77
 1276 004c 9A72     		strb	r2, [r3, #10]
 1277              	.LVL182:
 1278              	.L71:
  85:.\xy.c        ****     interrupt_Y_ClearPending();
 1279              		.loc 1 85 0
 1280 004e 0020     		mov	r0, #0
 1281 0050 0021     		mov	r1, #0
 1282 0052 0022     		mov	r2, #0
 1283 0054 FFF7FEFF 		bl	setLed
 1284              	.LVL183:
  86:.\xy.c        ****     interrupt_Y_Enable();
 1285              		.loc 1 86 0
 1286 0058 FFF7FEFF 		bl	interrupt_Y_ClearPending
 1287              	.LVL184:
  87:.\xy.c        **** }
 1288              		.loc 1 87 0
 1289 005c FFF7FEFF 		bl	interrupt_Y_Enable
 1290              	.LVL185:
  88:.\xy.c        **** 
 1291              		.loc 1 88 0
 1292              		@ sp needed
 1293 0060 10BD     		pop	{r4, pc}
 1294              	.L78:
 1295 0062 C046     		.align	2
 1296              	.L77:
 1297 0064 00000000 		.word	.LANCHOR0
 1298              		.cfi_endproc
 1299              	.LFE36:
 1300              		.size	isr_Y, .-isr_Y
ARM GAS  C:\Users\Simon\AppData\Local\Temp\ccrUac0b.s 			page 32


 1301              		.comm	yPos,4,4
 1302              		.global	yMax
 1303              		.comm	xPos,4,4
 1304              		.global	xMax
 1305              		.global	yFlag
 1306              		.global	xFlag
 1307              		.global	calibratedY
 1308              		.global	calibratedX
 1309              		.comm	i2c_rxBuffer,4,4
 1310              		.comm	i2c_txBuffer,4,4
 1311              		.comm	backOfQueuePtr,4,4
 1312              		.comm	frontOfQueuePtr,4,4
 1313              		.bss
 1314              		.align	2
 1315              		.set	.LANCHOR0,. + 0
 1316              		.type	xMax, %object
 1317              		.size	xMax, 4
 1318              	xMax:
 1319 0000 00000000 		.space	4
 1320              		.type	yMax, %object
 1321              		.size	yMax, 4
 1322              	yMax:
 1323 0004 00000000 		.space	4
 1324              		.type	xFlag, %object
 1325              		.size	xFlag, 1
 1326              	xFlag:
 1327 0008 00       		.space	1
 1328              		.type	calibratedX, %object
 1329              		.size	calibratedX, 1
 1330              	calibratedX:
 1331 0009 00       		.space	1
 1332              		.type	yFlag, %object
 1333              		.size	yFlag, 1
 1334              	yFlag:
 1335 000a 00       		.space	1
 1336              		.type	calibratedY, %object
 1337              		.size	calibratedY, 1
 1338              	calibratedY:
 1339 000b 00       		.space	1
 1340              		.text
 1341              	.Letext0:
 1342              		.file 2 "Generated_Source\\PSoC4/cytypes.h"
 1343              		.file 3 ".\\queue.h"
 1344              		.file 4 ".\\i2c.h"
 1345              		.file 5 "Generated_Source\\PSoC4/interrupt_X.h"
 1346              		.file 6 "Generated_Source\\PSoC4/interrupt_Y.h"
 1347              		.file 7 "Generated_Source\\PSoC4/Pin_1a_X.h"
 1348              		.file 8 "Generated_Source\\PSoC4/Pin_2a_X.h"
 1349              		.file 9 "Generated_Source\\PSoC4/Pin_1b_X.h"
 1350              		.file 10 "Generated_Source\\PSoC4/Pin_2b_X.h"
 1351              		.file 11 "Generated_Source\\PSoC4/CyLib.h"
 1352              		.file 12 ".\\led.h"
 1353              		.file 13 "Generated_Source\\PSoC4/Pin_1a_Y.h"
 1354              		.file 14 "Generated_Source\\PSoC4/Pin_2a_Y.h"
 1355              		.file 15 "Generated_Source\\PSoC4/Pin_1b_Y.h"
 1356              		.file 16 "Generated_Source\\PSoC4/Pin_2b_Y.h"