ARM GAS  C:\Users\JEPPES~1\AppData\Local\Temp\ccVLd7Jf.s 			page 1


   1              		.cpu cortex-m0
   2              		.fpu softvfp
   3              		.eabi_attribute 20, 1
   4              		.eabi_attribute 21, 1
   5              		.eabi_attribute 23, 3
   6              		.eabi_attribute 24, 1
   7              		.eabi_attribute 25, 1
   8              		.eabi_attribute 26, 1
   9              		.eabi_attribute 30, 1
  10              		.eabi_attribute 34, 0
  11              		.eabi_attribute 18, 4
  12              		.code	16
  13              		.file	"cyfitter_cfg.c"
  14              		.text
  15              	.Ltext0:
  16              		.cfi_sections	.debug_frame
  17              		.section	.text.cfg_write_bytes32,"ax",%progbits
  18              		.align	2
  19              		.code	16
  20              		.thumb_func
  21              		.type	cfg_write_bytes32, %function
  22              	cfg_write_bytes32:
  23              	.LFB3:
  24              		.file 1 ".\\Generated_Source\\PSoC4\\cyfitter_cfg.c"
   1:.\Generated_Source\PSoC4/cyfitter_cfg.c **** /*******************************************************************************
   2:.\Generated_Source\PSoC4/cyfitter_cfg.c **** * File Name: cyfitter_cfg.c
   3:.\Generated_Source\PSoC4/cyfitter_cfg.c **** * 
   4:.\Generated_Source\PSoC4/cyfitter_cfg.c **** * PSoC Creator  3.3 CP2
   5:.\Generated_Source\PSoC4/cyfitter_cfg.c **** *
   6:.\Generated_Source\PSoC4/cyfitter_cfg.c **** * Description:
   7:.\Generated_Source\PSoC4/cyfitter_cfg.c **** * This file contains device initialization code.
   8:.\Generated_Source\PSoC4/cyfitter_cfg.c **** * Except for the user defined sections in CyClockStartupError(), this file should not be modified.
   9:.\Generated_Source\PSoC4/cyfitter_cfg.c **** * This file is automatically generated by PSoC Creator.
  10:.\Generated_Source\PSoC4/cyfitter_cfg.c **** *
  11:.\Generated_Source\PSoC4/cyfitter_cfg.c **** ********************************************************************************
  12:.\Generated_Source\PSoC4/cyfitter_cfg.c **** * Copyright (c) 2007-2015 Cypress Semiconductor.  All rights reserved.
  13:.\Generated_Source\PSoC4/cyfitter_cfg.c **** * You may use this file only in accordance with the license, terms, conditions, 
  14:.\Generated_Source\PSoC4/cyfitter_cfg.c **** * disclaimers, and limitations in the end user license agreement accompanying 
  15:.\Generated_Source\PSoC4/cyfitter_cfg.c **** * the software package with which this file was provided.
  16:.\Generated_Source\PSoC4/cyfitter_cfg.c **** ********************************************************************************/
  17:.\Generated_Source\PSoC4/cyfitter_cfg.c **** 
  18:.\Generated_Source\PSoC4/cyfitter_cfg.c **** #include <string.h>
  19:.\Generated_Source\PSoC4/cyfitter_cfg.c **** #include "cytypes.h"
  20:.\Generated_Source\PSoC4/cyfitter_cfg.c **** #include "cydevice_trm.h"
  21:.\Generated_Source\PSoC4/cyfitter_cfg.c **** #include "cyfitter.h"
  22:.\Generated_Source\PSoC4/cyfitter_cfg.c **** #include "CyLib.h"
  23:.\Generated_Source\PSoC4/cyfitter_cfg.c **** #include "CyLFClk.h"
  24:.\Generated_Source\PSoC4/cyfitter_cfg.c **** #include "cyfitter_cfg.h"
  25:.\Generated_Source\PSoC4/cyfitter_cfg.c **** 
  26:.\Generated_Source\PSoC4/cyfitter_cfg.c **** 
  27:.\Generated_Source\PSoC4/cyfitter_cfg.c **** #if defined(__GNUC__) || defined(__ARMCC_VERSION)
  28:.\Generated_Source\PSoC4/cyfitter_cfg.c ****     #define CYPACKED 
  29:.\Generated_Source\PSoC4/cyfitter_cfg.c ****     #define CYPACKED_ATTR __attribute__ ((packed))
  30:.\Generated_Source\PSoC4/cyfitter_cfg.c ****     #define CYALIGNED __attribute__ ((aligned))
  31:.\Generated_Source\PSoC4/cyfitter_cfg.c ****     #define CY_CFG_UNUSED __attribute__ ((unused))
  32:.\Generated_Source\PSoC4/cyfitter_cfg.c ****     #ifndef CY_CFG_SECTION
  33:.\Generated_Source\PSoC4/cyfitter_cfg.c ****         #define CY_CFG_SECTION __attribute__ ((section(".psocinit")))
ARM GAS  C:\Users\JEPPES~1\AppData\Local\Temp\ccVLd7Jf.s 			page 2


  34:.\Generated_Source\PSoC4/cyfitter_cfg.c ****     #endif
  35:.\Generated_Source\PSoC4/cyfitter_cfg.c ****     
  36:.\Generated_Source\PSoC4/cyfitter_cfg.c ****     #if defined(__ARMCC_VERSION)
  37:.\Generated_Source\PSoC4/cyfitter_cfg.c ****         #define CY_CFG_MEMORY_BARRIER() __memory_changed()
  38:.\Generated_Source\PSoC4/cyfitter_cfg.c ****     #else
  39:.\Generated_Source\PSoC4/cyfitter_cfg.c ****         #define CY_CFG_MEMORY_BARRIER() __sync_synchronize()
  40:.\Generated_Source\PSoC4/cyfitter_cfg.c ****     #endif
  41:.\Generated_Source\PSoC4/cyfitter_cfg.c ****     
  42:.\Generated_Source\PSoC4/cyfitter_cfg.c **** #elif defined(__ICCARM__)
  43:.\Generated_Source\PSoC4/cyfitter_cfg.c ****     #include <intrinsics.h>
  44:.\Generated_Source\PSoC4/cyfitter_cfg.c **** 
  45:.\Generated_Source\PSoC4/cyfitter_cfg.c ****     #define CYPACKED __packed
  46:.\Generated_Source\PSoC4/cyfitter_cfg.c ****     #define CYPACKED_ATTR 
  47:.\Generated_Source\PSoC4/cyfitter_cfg.c ****     #define CYALIGNED _Pragma("data_alignment=4")
  48:.\Generated_Source\PSoC4/cyfitter_cfg.c ****     #define CY_CFG_UNUSED _Pragma("diag_suppress=Pe177")
  49:.\Generated_Source\PSoC4/cyfitter_cfg.c ****     #define CY_CFG_SECTION _Pragma("location=\".psocinit\"")
  50:.\Generated_Source\PSoC4/cyfitter_cfg.c ****     
  51:.\Generated_Source\PSoC4/cyfitter_cfg.c ****     #define CY_CFG_MEMORY_BARRIER() __DMB()
  52:.\Generated_Source\PSoC4/cyfitter_cfg.c ****     
  53:.\Generated_Source\PSoC4/cyfitter_cfg.c **** #else
  54:.\Generated_Source\PSoC4/cyfitter_cfg.c ****     #error Unsupported toolchain
  55:.\Generated_Source\PSoC4/cyfitter_cfg.c **** #endif
  56:.\Generated_Source\PSoC4/cyfitter_cfg.c **** 
  57:.\Generated_Source\PSoC4/cyfitter_cfg.c **** 
  58:.\Generated_Source\PSoC4/cyfitter_cfg.c **** CY_CFG_UNUSED
  59:.\Generated_Source\PSoC4/cyfitter_cfg.c **** static void CYMEMZERO(void *s, size_t n);
  60:.\Generated_Source\PSoC4/cyfitter_cfg.c **** CY_CFG_UNUSED
  61:.\Generated_Source\PSoC4/cyfitter_cfg.c **** static void CYMEMZERO(void *s, size_t n)
  62:.\Generated_Source\PSoC4/cyfitter_cfg.c **** {
  63:.\Generated_Source\PSoC4/cyfitter_cfg.c **** 	(void)memset(s, 0, n);
  64:.\Generated_Source\PSoC4/cyfitter_cfg.c **** }
  65:.\Generated_Source\PSoC4/cyfitter_cfg.c **** CY_CFG_UNUSED
  66:.\Generated_Source\PSoC4/cyfitter_cfg.c **** static void CYCONFIGCPY(void *dest, const void *src, size_t n);
  67:.\Generated_Source\PSoC4/cyfitter_cfg.c **** CY_CFG_UNUSED
  68:.\Generated_Source\PSoC4/cyfitter_cfg.c **** static void CYCONFIGCPY(void *dest, const void *src, size_t n)
  69:.\Generated_Source\PSoC4/cyfitter_cfg.c **** {
  70:.\Generated_Source\PSoC4/cyfitter_cfg.c **** 	(void)memcpy(dest, src, n);
  71:.\Generated_Source\PSoC4/cyfitter_cfg.c **** }
  72:.\Generated_Source\PSoC4/cyfitter_cfg.c **** CY_CFG_UNUSED
  73:.\Generated_Source\PSoC4/cyfitter_cfg.c **** static void CYCONFIGCPYCODE(void *dest, const void *src, size_t n);
  74:.\Generated_Source\PSoC4/cyfitter_cfg.c **** CY_CFG_UNUSED
  75:.\Generated_Source\PSoC4/cyfitter_cfg.c **** static void CYCONFIGCPYCODE(void *dest, const void *src, size_t n)
  76:.\Generated_Source\PSoC4/cyfitter_cfg.c **** {
  77:.\Generated_Source\PSoC4/cyfitter_cfg.c **** 	(void)memcpy(dest, src, n);
  78:.\Generated_Source\PSoC4/cyfitter_cfg.c **** }
  79:.\Generated_Source\PSoC4/cyfitter_cfg.c **** 
  80:.\Generated_Source\PSoC4/cyfitter_cfg.c **** 
  81:.\Generated_Source\PSoC4/cyfitter_cfg.c **** 
  82:.\Generated_Source\PSoC4/cyfitter_cfg.c **** /* Clock startup error codes                                                   */
  83:.\Generated_Source\PSoC4/cyfitter_cfg.c **** #define CYCLOCKSTART_NO_ERROR    0u
  84:.\Generated_Source\PSoC4/cyfitter_cfg.c **** #define CYCLOCKSTART_XTAL_ERROR  1u
  85:.\Generated_Source\PSoC4/cyfitter_cfg.c **** #define CYCLOCKSTART_32KHZ_ERROR 2u
  86:.\Generated_Source\PSoC4/cyfitter_cfg.c **** #define CYCLOCKSTART_PLL_ERROR   3u
  87:.\Generated_Source\PSoC4/cyfitter_cfg.c **** 
  88:.\Generated_Source\PSoC4/cyfitter_cfg.c **** #ifdef CY_NEED_CYCLOCKSTARTUPERROR
  89:.\Generated_Source\PSoC4/cyfitter_cfg.c **** /*******************************************************************************
  90:.\Generated_Source\PSoC4/cyfitter_cfg.c **** * Function Name: CyClockStartupError
ARM GAS  C:\Users\JEPPES~1\AppData\Local\Temp\ccVLd7Jf.s 			page 3


  91:.\Generated_Source\PSoC4/cyfitter_cfg.c **** ********************************************************************************
  92:.\Generated_Source\PSoC4/cyfitter_cfg.c **** * Summary:
  93:.\Generated_Source\PSoC4/cyfitter_cfg.c **** *  If an error is encountered during clock configuration (crystal startup error,
  94:.\Generated_Source\PSoC4/cyfitter_cfg.c **** *  PLL lock error, etc.), the system will end up here.  Unless reimplemented by
  95:.\Generated_Source\PSoC4/cyfitter_cfg.c **** *  the customer, this function will stop in an infinite loop.
  96:.\Generated_Source\PSoC4/cyfitter_cfg.c **** *
  97:.\Generated_Source\PSoC4/cyfitter_cfg.c **** * Parameters:
  98:.\Generated_Source\PSoC4/cyfitter_cfg.c **** *   void
  99:.\Generated_Source\PSoC4/cyfitter_cfg.c **** *
 100:.\Generated_Source\PSoC4/cyfitter_cfg.c **** * Return:
 101:.\Generated_Source\PSoC4/cyfitter_cfg.c **** *   void
 102:.\Generated_Source\PSoC4/cyfitter_cfg.c **** *
 103:.\Generated_Source\PSoC4/cyfitter_cfg.c **** *******************************************************************************/
 104:.\Generated_Source\PSoC4/cyfitter_cfg.c **** CY_CFG_UNUSED
 105:.\Generated_Source\PSoC4/cyfitter_cfg.c **** static void CyClockStartupError(uint8 errorCode);
 106:.\Generated_Source\PSoC4/cyfitter_cfg.c **** CY_CFG_UNUSED
 107:.\Generated_Source\PSoC4/cyfitter_cfg.c **** static void CyClockStartupError(uint8 errorCode)
 108:.\Generated_Source\PSoC4/cyfitter_cfg.c **** {
 109:.\Generated_Source\PSoC4/cyfitter_cfg.c ****     /* To remove the compiler warning if errorCode not used.                */
 110:.\Generated_Source\PSoC4/cyfitter_cfg.c ****     errorCode = errorCode;
 111:.\Generated_Source\PSoC4/cyfitter_cfg.c **** 
 112:.\Generated_Source\PSoC4/cyfitter_cfg.c ****     /* `#START CyClockStartupError` */
 113:.\Generated_Source\PSoC4/cyfitter_cfg.c **** 
 114:.\Generated_Source\PSoC4/cyfitter_cfg.c ****     /* If we have a clock startup error (bad MHz crystal, PLL lock, etc.),  */
 115:.\Generated_Source\PSoC4/cyfitter_cfg.c ****     /* we will end up here to allow the customer to implement something to  */
 116:.\Generated_Source\PSoC4/cyfitter_cfg.c ****     /* deal with the clock condition.                                       */
 117:.\Generated_Source\PSoC4/cyfitter_cfg.c **** 
 118:.\Generated_Source\PSoC4/cyfitter_cfg.c ****     /* `#END` */
 119:.\Generated_Source\PSoC4/cyfitter_cfg.c **** 
 120:.\Generated_Source\PSoC4/cyfitter_cfg.c ****     /* If nothing else, stop here since the clocks have not started         */
 121:.\Generated_Source\PSoC4/cyfitter_cfg.c ****     /* correctly.                                                           */
 122:.\Generated_Source\PSoC4/cyfitter_cfg.c ****     while(1) {}
 123:.\Generated_Source\PSoC4/cyfitter_cfg.c **** }
 124:.\Generated_Source\PSoC4/cyfitter_cfg.c **** #endif
 125:.\Generated_Source\PSoC4/cyfitter_cfg.c **** 
 126:.\Generated_Source\PSoC4/cyfitter_cfg.c **** #define CY_CFG_BASE_ADDR_COUNT 10u
 127:.\Generated_Source\PSoC4/cyfitter_cfg.c **** CYPACKED typedef struct
 128:.\Generated_Source\PSoC4/cyfitter_cfg.c **** {
 129:.\Generated_Source\PSoC4/cyfitter_cfg.c **** 	uint8 offset;
 130:.\Generated_Source\PSoC4/cyfitter_cfg.c **** 	uint8 value;
 131:.\Generated_Source\PSoC4/cyfitter_cfg.c **** } CYPACKED_ATTR cy_cfg_addrvalue_t;
 132:.\Generated_Source\PSoC4/cyfitter_cfg.c **** 
 133:.\Generated_Source\PSoC4/cyfitter_cfg.c **** 
 134:.\Generated_Source\PSoC4/cyfitter_cfg.c **** 
 135:.\Generated_Source\PSoC4/cyfitter_cfg.c **** /*******************************************************************************
 136:.\Generated_Source\PSoC4/cyfitter_cfg.c **** * Function Name: cfg_write_bytes32
 137:.\Generated_Source\PSoC4/cyfitter_cfg.c **** ********************************************************************************
 138:.\Generated_Source\PSoC4/cyfitter_cfg.c **** * Summary:
 139:.\Generated_Source\PSoC4/cyfitter_cfg.c **** *  This function is used for setting up the chip configuration areas that
 140:.\Generated_Source\PSoC4/cyfitter_cfg.c **** *  contain relatively sparse data.
 141:.\Generated_Source\PSoC4/cyfitter_cfg.c **** *
 142:.\Generated_Source\PSoC4/cyfitter_cfg.c **** * Parameters:
 143:.\Generated_Source\PSoC4/cyfitter_cfg.c **** *   void
 144:.\Generated_Source\PSoC4/cyfitter_cfg.c **** *
 145:.\Generated_Source\PSoC4/cyfitter_cfg.c **** * Return:
 146:.\Generated_Source\PSoC4/cyfitter_cfg.c **** *   void
 147:.\Generated_Source\PSoC4/cyfitter_cfg.c **** *
ARM GAS  C:\Users\JEPPES~1\AppData\Local\Temp\ccVLd7Jf.s 			page 4


 148:.\Generated_Source\PSoC4/cyfitter_cfg.c **** *******************************************************************************/
 149:.\Generated_Source\PSoC4/cyfitter_cfg.c **** static void cfg_write_bytes32(const uint32 addr_table[], const cy_cfg_addrvalue_t data_table[]);
 150:.\Generated_Source\PSoC4/cyfitter_cfg.c **** static void cfg_write_bytes32(const uint32 addr_table[], const cy_cfg_addrvalue_t data_table[])
 151:.\Generated_Source\PSoC4/cyfitter_cfg.c **** {
  25              		.loc 1 151 0
  26              		.cfi_startproc
  27              	.LVL0:
  28 0000 F0B5     		push	{r4, r5, r6, r7, lr}
  29              		.cfi_def_cfa_offset 20
  30              		.cfi_offset 4, -20
  31              		.cfi_offset 5, -16
  32              		.cfi_offset 6, -12
  33              		.cfi_offset 7, -8
  34              		.cfi_offset 14, -4
  35              	.LVL1:
 152:.\Generated_Source\PSoC4/cyfitter_cfg.c **** 	/* For 32-bit little-endian architectures */
 153:.\Generated_Source\PSoC4/cyfitter_cfg.c **** 	uint32 i, j = 0u;
  36              		.loc 1 153 0
  37 0002 0025     		mov	r5, #0
 154:.\Generated_Source\PSoC4/cyfitter_cfg.c **** 	for (i = 0u; i < CY_CFG_BASE_ADDR_COUNT; i++)
  38              		.loc 1 154 0
  39 0004 0027     		mov	r7, #0
  40 0006 11E0     		b	.L2
  41              	.LVL2:
  42              	.L5:
  43              	.LBB2:
 155:.\Generated_Source\PSoC4/cyfitter_cfg.c **** 	{
 156:.\Generated_Source\PSoC4/cyfitter_cfg.c **** 		uint32 baseAddr = addr_table[i];
  44              		.loc 1 156 0
  45 0008 BB00     		lsl	r3, r7, #2
  46 000a C658     		ldr	r6, [r0, r3]
  47              	.LVL3:
 157:.\Generated_Source\PSoC4/cyfitter_cfg.c **** 		uint8 count = (uint8)baseAddr;
  48              		.loc 1 157 0
  49 000c F3B2     		uxtb	r3, r6
  50              	.LVL4:
 158:.\Generated_Source\PSoC4/cyfitter_cfg.c **** 		baseAddr &= 0xFFFFFF00u;
  51              		.loc 1 158 0
  52 000e FF22     		mov	r2, #255
  53 0010 9643     		bic	r6, r2
  54              	.LVL5:
 159:.\Generated_Source\PSoC4/cyfitter_cfg.c **** 		while (count != 0u)
  55              		.loc 1 159 0
  56 0012 08E0     		b	.L3
  57              	.L4:
 160:.\Generated_Source\PSoC4/cyfitter_cfg.c **** 		{
 161:.\Generated_Source\PSoC4/cyfitter_cfg.c **** 			CY_SET_XTND_REG8((void CYFAR *)(baseAddr + data_table[j].offset), data_table[j].value);
  58              		.loc 1 161 0
  59 0014 6A00     		lsl	r2, r5, #1
  60 0016 8A18     		add	r2, r1, r2
  61 0018 1478     		ldrb	r4, [r2]
  62 001a A419     		add	r4, r4, r6
  63 001c 5278     		ldrb	r2, [r2, #1]
  64 001e 2270     		strb	r2, [r4]
 162:.\Generated_Source\PSoC4/cyfitter_cfg.c **** 			j++;
  65              		.loc 1 162 0
  66 0020 0135     		add	r5, r5, #1
ARM GAS  C:\Users\JEPPES~1\AppData\Local\Temp\ccVLd7Jf.s 			page 5


  67              	.LVL6:
 163:.\Generated_Source\PSoC4/cyfitter_cfg.c **** 			count--;
  68              		.loc 1 163 0
  69 0022 013B     		sub	r3, r3, #1
  70              	.LVL7:
  71 0024 DBB2     		uxtb	r3, r3
  72              	.LVL8:
  73              	.L3:
 159:.\Generated_Source\PSoC4/cyfitter_cfg.c **** 		{
  74              		.loc 1 159 0
  75 0026 002B     		cmp	r3, #0
  76 0028 F4D1     		bne	.L4
  77              	.LBE2:
 154:.\Generated_Source\PSoC4/cyfitter_cfg.c **** 	{
  78              		.loc 1 154 0 discriminator 2
  79 002a 0137     		add	r7, r7, #1
  80              	.LVL9:
  81              	.L2:
 154:.\Generated_Source\PSoC4/cyfitter_cfg.c **** 	{
  82              		.loc 1 154 0 is_stmt 0 discriminator 1
  83 002c 092F     		cmp	r7, #9
  84 002e EBD9     		bls	.L5
 164:.\Generated_Source\PSoC4/cyfitter_cfg.c **** 		}
 165:.\Generated_Source\PSoC4/cyfitter_cfg.c **** 	}
 166:.\Generated_Source\PSoC4/cyfitter_cfg.c **** }
  85              		.loc 1 166 0 is_stmt 1
  86              		@ sp needed
  87              	.LVL10:
  88              	.LVL11:
  89 0030 F0BD     		pop	{r4, r5, r6, r7, pc}
  90              		.cfi_endproc
  91              	.LFE3:
  92              		.size	cfg_write_bytes32, .-cfg_write_bytes32
  93 0032 C046     		.section	.text.CYMEMZERO,"ax",%progbits
  94              		.align	2
  95              		.code	16
  96              		.thumb_func
  97              		.type	CYMEMZERO, %function
  98              	CYMEMZERO:
  99              	.LFB0:
  62:.\Generated_Source\PSoC4/cyfitter_cfg.c **** 	(void)memset(s, 0, n);
 100              		.loc 1 62 0
 101              		.cfi_startproc
 102              	.LVL12:
 103 0000 08B5     		push	{r3, lr}
 104              		.cfi_def_cfa_offset 8
 105              		.cfi_offset 3, -8
 106              		.cfi_offset 14, -4
 107 0002 0A1C     		mov	r2, r1
  63:.\Generated_Source\PSoC4/cyfitter_cfg.c **** }
 108              		.loc 1 63 0
 109 0004 0021     		mov	r1, #0
 110              	.LVL13:
 111 0006 FFF7FEFF 		bl	memset
 112              	.LVL14:
  64:.\Generated_Source\PSoC4/cyfitter_cfg.c **** CY_CFG_UNUSED
 113              		.loc 1 64 0
ARM GAS  C:\Users\JEPPES~1\AppData\Local\Temp\ccVLd7Jf.s 			page 6


 114              		@ sp needed
 115 000a 08BD     		pop	{r3, pc}
 116              		.cfi_endproc
 117              	.LFE0:
 118              		.size	CYMEMZERO, .-CYMEMZERO
 119              		.section	.psocinit,"ax",%progbits
 120              		.align	2
 121              		.code	16
 122              		.thumb_func
 123              		.type	ClockSetup, %function
 124              	ClockSetup:
 125              	.LFB4:
 167:.\Generated_Source\PSoC4/cyfitter_cfg.c **** 
 168:.\Generated_Source\PSoC4/cyfitter_cfg.c **** 
 169:.\Generated_Source\PSoC4/cyfitter_cfg.c **** /*******************************************************************************
 170:.\Generated_Source\PSoC4/cyfitter_cfg.c **** * Function Name: ClockSetup
 171:.\Generated_Source\PSoC4/cyfitter_cfg.c **** ********************************************************************************
 172:.\Generated_Source\PSoC4/cyfitter_cfg.c **** *
 173:.\Generated_Source\PSoC4/cyfitter_cfg.c **** * Summary:
 174:.\Generated_Source\PSoC4/cyfitter_cfg.c **** *   Performs the initialization of all of the clocks in the device based on the
 175:.\Generated_Source\PSoC4/cyfitter_cfg.c **** *   settings in the Clock tab of the DWR.  This includes enabling the requested
 176:.\Generated_Source\PSoC4/cyfitter_cfg.c **** *   clocks and setting the necessary dividers to produce the desired frequency. 
 177:.\Generated_Source\PSoC4/cyfitter_cfg.c **** *
 178:.\Generated_Source\PSoC4/cyfitter_cfg.c **** * Parameters:
 179:.\Generated_Source\PSoC4/cyfitter_cfg.c **** *   void
 180:.\Generated_Source\PSoC4/cyfitter_cfg.c **** *
 181:.\Generated_Source\PSoC4/cyfitter_cfg.c **** * Return:
 182:.\Generated_Source\PSoC4/cyfitter_cfg.c **** *   void
 183:.\Generated_Source\PSoC4/cyfitter_cfg.c **** *
 184:.\Generated_Source\PSoC4/cyfitter_cfg.c **** *******************************************************************************/
 185:.\Generated_Source\PSoC4/cyfitter_cfg.c **** static void ClockSetup(void);
 186:.\Generated_Source\PSoC4/cyfitter_cfg.c **** CY_CFG_SECTION
 187:.\Generated_Source\PSoC4/cyfitter_cfg.c **** static void ClockSetup(void)
 188:.\Generated_Source\PSoC4/cyfitter_cfg.c **** {
 126              		.loc 1 188 0
 127              		.cfi_startproc
 128 0000 38B5     		push	{r3, r4, r5, lr}
 129              		.cfi_def_cfa_offset 16
 130              		.cfi_offset 3, -16
 131              		.cfi_offset 4, -12
 132              		.cfi_offset 5, -8
 133              		.cfi_offset 14, -4
 189:.\Generated_Source\PSoC4/cyfitter_cfg.c **** 	/* Enable HALF_EN before trimming for the flash accelerator. */
 190:.\Generated_Source\PSoC4/cyfitter_cfg.c **** 	CY_SET_REG32((void CYXDATA *)(CYREG_CLK_SELECT), (CY_GET_REG32((void *)CYREG_CLK_SELECT) | 0x00040
 134              		.loc 1 190 0
 135 0002 204C     		ldr	r4, .L8
 136 0004 2368     		ldr	r3, [r4]
 137 0006 8022     		mov	r2, #128
 138 0008 D202     		lsl	r2, r2, #11
 139 000a 1343     		orr	r3, r2
 140 000c 2360     		str	r3, [r4]
 191:.\Generated_Source\PSoC4/cyfitter_cfg.c **** 
 192:.\Generated_Source\PSoC4/cyfitter_cfg.c **** 	/* Setup and trim IMO based on desired frequency. */
 193:.\Generated_Source\PSoC4/cyfitter_cfg.c **** 	CySysClkWriteImoFreq(24u);
 141              		.loc 1 193 0
 142 000e 1820     		mov	r0, #24
 143 0010 FFF7FEFF 		bl	CySysClkWriteImoFreq
ARM GAS  C:\Users\JEPPES~1\AppData\Local\Temp\ccVLd7Jf.s 			page 7


 144              	.LVL15:
 194:.\Generated_Source\PSoC4/cyfitter_cfg.c **** 
 195:.\Generated_Source\PSoC4/cyfitter_cfg.c **** 	/* Disable HALF_EN since it is not required at this IMO frequency. */
 196:.\Generated_Source\PSoC4/cyfitter_cfg.c **** 	CY_SET_REG32((void CYXDATA *)(CYREG_CLK_SELECT), (CY_GET_REG32((void *)CYREG_CLK_SELECT) & 0xFFFBF
 145              		.loc 1 196 0
 146 0014 2268     		ldr	r2, [r4]
 147 0016 1C4B     		ldr	r3, .L8+4
 148 0018 1340     		and	r3, r2
 149 001a 2360     		str	r3, [r4]
 197:.\Generated_Source\PSoC4/cyfitter_cfg.c **** 	/* CYDEV_CLK_ILO_CONFIG Starting address: CYDEV_CLK_ILO_CONFIG */
 198:.\Generated_Source\PSoC4/cyfitter_cfg.c **** 	CY_SET_XTND_REG32((void CYFAR *)(CYREG_CLK_ILO_CONFIG), 0x80000006u);
 150              		.loc 1 198 0
 151 001c 1B4A     		ldr	r2, .L8+8
 152 001e 1C4B     		ldr	r3, .L8+12
 153 0020 1A60     		str	r2, [r3]
 199:.\Generated_Source\PSoC4/cyfitter_cfg.c **** 
 200:.\Generated_Source\PSoC4/cyfitter_cfg.c **** 
 201:.\Generated_Source\PSoC4/cyfitter_cfg.c **** 	/* CYDEV_CLK_SELECT00 Starting address: CYDEV_CLK_SELECT00 */
 202:.\Generated_Source\PSoC4/cyfitter_cfg.c **** 	CY_SET_XTND_REG32((void CYFAR *)(CYREG_CLK_SELECT02), 0x00000010u);
 154              		.loc 1 202 0
 155 0022 1022     		mov	r2, #16
 156 0024 1B4B     		ldr	r3, .L8+16
 157 0026 1A60     		str	r2, [r3]
 203:.\Generated_Source\PSoC4/cyfitter_cfg.c **** 	CY_SET_XTND_REG32((void CYFAR *)(CYREG_CLK_SELECT03), 0x00000020u);
 158              		.loc 1 203 0
 159 0028 1032     		add	r2, r2, #16
 160 002a 1B4B     		ldr	r3, .L8+20
 161 002c 1A60     		str	r2, [r3]
 204:.\Generated_Source\PSoC4/cyfitter_cfg.c **** 	CY_SET_XTND_REG32((void CYFAR *)(CYREG_CLK_SELECT08), 0x00000030u);
 162              		.loc 1 204 0
 163 002e 3023     		mov	r3, #48
 164 0030 1A4A     		ldr	r2, .L8+24
 165 0032 1360     		str	r3, [r2]
 205:.\Generated_Source\PSoC4/cyfitter_cfg.c **** 	CY_SET_XTND_REG32((void CYFAR *)(CYREG_CLK_SELECT09), 0x00000030u);
 166              		.loc 1 205 0
 167 0034 1A4A     		ldr	r2, .L8+28
 168 0036 1360     		str	r3, [r2]
 206:.\Generated_Source\PSoC4/cyfitter_cfg.c **** 	CY_SET_XTND_REG32((void CYFAR *)(CYREG_CLK_SELECT10), 0x00000030u);
 169              		.loc 1 206 0
 170 0038 1A4A     		ldr	r2, .L8+32
 171 003a 1360     		str	r3, [r2]
 207:.\Generated_Source\PSoC4/cyfitter_cfg.c **** 	CY_SET_XTND_REG32((void CYFAR *)(CYREG_CLK_SELECT13), 0x00000030u);
 172              		.loc 1 207 0
 173 003c 1A4A     		ldr	r2, .L8+36
 174 003e 1360     		str	r3, [r2]
 208:.\Generated_Source\PSoC4/cyfitter_cfg.c **** 	CY_SET_XTND_REG32((void CYFAR *)(CYREG_CLK_SELECT15), 0x00000021u);
 175              		.loc 1 208 0
 176 0040 2122     		mov	r2, #33
 177 0042 1A4B     		ldr	r3, .L8+40
 178 0044 1A60     		str	r2, [r3]
 209:.\Generated_Source\PSoC4/cyfitter_cfg.c **** 
 210:.\Generated_Source\PSoC4/cyfitter_cfg.c **** 	/* CYDEV_CLK_IMO_CONFIG Starting address: CYDEV_CLK_IMO_CONFIG */
 211:.\Generated_Source\PSoC4/cyfitter_cfg.c **** 	CY_SET_XTND_REG32((void CYFAR *)(CYREG_CLK_IMO_CONFIG), 0x80000000u);
 179              		.loc 1 211 0
 180 0046 8022     		mov	r2, #128
 181 0048 1206     		lsl	r2, r2, #24
 182 004a 194B     		ldr	r3, .L8+44
ARM GAS  C:\Users\JEPPES~1\AppData\Local\Temp\ccVLd7Jf.s 			page 8


 183 004c 1A60     		str	r2, [r3]
 212:.\Generated_Source\PSoC4/cyfitter_cfg.c **** 
 213:.\Generated_Source\PSoC4/cyfitter_cfg.c **** 	/* CYDEV_CLK_SELECT Starting address: CYDEV_CLK_SELECT */
 214:.\Generated_Source\PSoC4/cyfitter_cfg.c **** 	CY_SET_XTND_REG32((void CYFAR *)(CYREG_CLK_SELECT), 0x00000000u);
 184              		.loc 1 214 0
 185 004e 0025     		mov	r5, #0
 186 0050 2560     		str	r5, [r4]
 215:.\Generated_Source\PSoC4/cyfitter_cfg.c **** 
 216:.\Generated_Source\PSoC4/cyfitter_cfg.c **** 	/* CYDEV_CLK_DIVIDER_A00 Starting address: CYDEV_CLK_DIVIDER_A00 */
 217:.\Generated_Source\PSoC4/cyfitter_cfg.c **** 	CY_SET_XTND_REG32((void CYFAR *)(CYREG_CLK_DIVIDER_A00), 0x8000000Eu);
 187              		.loc 1 217 0
 188 0052 184B     		ldr	r3, .L8+48
 189 0054 184A     		ldr	r2, .L8+52
 190 0056 1360     		str	r3, [r2]
 218:.\Generated_Source\PSoC4/cyfitter_cfg.c **** 
 219:.\Generated_Source\PSoC4/cyfitter_cfg.c **** 	/* CYDEV_CLK_DIVIDER_B00 Starting address: CYDEV_CLK_DIVIDER_B00 */
 220:.\Generated_Source\PSoC4/cyfitter_cfg.c **** 	CY_SET_XTND_REG32((void CYFAR *)(CYREG_CLK_DIVIDER_B00), 0x8000000Eu);
 191              		.loc 1 220 0
 192 0058 184A     		ldr	r2, .L8+56
 193 005a 1360     		str	r3, [r2]
 221:.\Generated_Source\PSoC4/cyfitter_cfg.c **** 
 222:.\Generated_Source\PSoC4/cyfitter_cfg.c **** 	/* CYDEV_CLK_DIVIDER_C00 Starting address: CYDEV_CLK_DIVIDER_C00 */
 223:.\Generated_Source\PSoC4/cyfitter_cfg.c **** 	CY_SET_XTND_REG32((void CYFAR *)(CYREG_CLK_DIVIDER_C00), 0x80000017u);
 194              		.loc 1 223 0
 195 005c 184A     		ldr	r2, .L8+60
 196 005e 194B     		ldr	r3, .L8+64
 197 0060 1A60     		str	r2, [r3]
 224:.\Generated_Source\PSoC4/cyfitter_cfg.c **** 
 225:.\Generated_Source\PSoC4/cyfitter_cfg.c **** 	/* CYDEV_CLK_DIVIDER_A01 Starting address: CYDEV_CLK_DIVIDER_A01 */
 226:.\Generated_Source\PSoC4/cyfitter_cfg.c **** 	CY_SET_XTND_REG32((void CYFAR *)(CYREG_CLK_DIVIDER_A01), 0x80000176u);
 198              		.loc 1 226 0
 199 0062 194A     		ldr	r2, .L8+68
 200 0064 194B     		ldr	r3, .L8+72
 201 0066 1A60     		str	r2, [r3]
 227:.\Generated_Source\PSoC4/cyfitter_cfg.c **** 
 228:.\Generated_Source\PSoC4/cyfitter_cfg.c **** 	/* CYDEV_CLK_DIVIDER_B01 Starting address: CYDEV_CLK_DIVIDER_B01 */
 229:.\Generated_Source\PSoC4/cyfitter_cfg.c **** 	CY_SET_XTND_REG32((void CYFAR *)(CYREG_CLK_DIVIDER_B01), 0xC000013Fu);
 202              		.loc 1 229 0
 203 0068 194A     		ldr	r2, .L8+76
 204 006a 1A4B     		ldr	r3, .L8+80
 205 006c 1A60     		str	r2, [r3]
 230:.\Generated_Source\PSoC4/cyfitter_cfg.c **** 
 231:.\Generated_Source\PSoC4/cyfitter_cfg.c **** 	(void)CyIntSetVector(9u, &CySysWdtIsr);
 206              		.loc 1 231 0
 207 006e 0920     		mov	r0, #9
 208 0070 1949     		ldr	r1, .L8+84
 209 0072 FFF7FEFF 		bl	CyIntSetVector
 210              	.LVL16:
 232:.\Generated_Source\PSoC4/cyfitter_cfg.c **** 	CyIntEnable(9u);
 211              		.loc 1 232 0
 212 0076 0920     		mov	r0, #9
 213 0078 FFF7FEFF 		bl	CyIntEnable
 214              	.LVL17:
 233:.\Generated_Source\PSoC4/cyfitter_cfg.c **** 	CY_SET_XTND_REG32((void CYFAR *)(CYREG_WDT_CONFIG), 0x00000000u);
 215              		.loc 1 233 0
 216 007c 174B     		ldr	r3, .L8+88
 217 007e 1D60     		str	r5, [r3]
ARM GAS  C:\Users\JEPPES~1\AppData\Local\Temp\ccVLd7Jf.s 			page 9


 234:.\Generated_Source\PSoC4/cyfitter_cfg.c **** }
 218              		.loc 1 234 0
 219              		@ sp needed
 220 0080 38BD     		pop	{r3, r4, r5, pc}
 221              	.L9:
 222 0082 C046     		.align	2
 223              	.L8:
 224 0084 00010B40 		.word	1074462976
 225 0088 FFFFFBFF 		.word	-262145
 226 008c 06000080 		.word	-2147483642
 227 0090 04010B40 		.word	1074462980
 228 0094 08020240 		.word	1073873416
 229 0098 0C020240 		.word	1073873420
 230 009c 20020240 		.word	1073873440
 231 00a0 24020240 		.word	1073873444
 232 00a4 28020240 		.word	1073873448
 233 00a8 34020240 		.word	1073873460
 234 00ac 3C020240 		.word	1073873468
 235 00b0 08010B40 		.word	1074462984
 236 00b4 0E000080 		.word	-2147483634
 237 00b8 00000240 		.word	1073872896
 238 00bc 40000240 		.word	1073872960
 239 00c0 17000080 		.word	-2147483625
 240 00c4 80000240 		.word	1073873024
 241 00c8 76010080 		.word	-2147483274
 242 00cc 04000240 		.word	1073872900
 243 00d0 3F0100C0 		.word	-1073741505
 244 00d4 44000240 		.word	1073872964
 245 00d8 00000000 		.word	CySysWdtIsr
 246 00dc 0C020B40 		.word	1074463244
 247              		.cfi_endproc
 248              	.LFE4:
 249              		.size	ClockSetup, .-ClockSetup
 250              		.align	2
 251              		.global	cyfitter_cfg
 252              		.code	16
 253              		.thumb_func
 254              		.type	cyfitter_cfg, %function
 255              	cyfitter_cfg:
 256              	.LFB6:
 235:.\Generated_Source\PSoC4/cyfitter_cfg.c **** 
 236:.\Generated_Source\PSoC4/cyfitter_cfg.c **** 
 237:.\Generated_Source\PSoC4/cyfitter_cfg.c **** /* Analog API Functions */
 238:.\Generated_Source\PSoC4/cyfitter_cfg.c **** 
 239:.\Generated_Source\PSoC4/cyfitter_cfg.c **** 
 240:.\Generated_Source\PSoC4/cyfitter_cfg.c **** /*******************************************************************************
 241:.\Generated_Source\PSoC4/cyfitter_cfg.c **** * Function Name: AnalogSetDefault
 242:.\Generated_Source\PSoC4/cyfitter_cfg.c **** ********************************************************************************
 243:.\Generated_Source\PSoC4/cyfitter_cfg.c **** *
 244:.\Generated_Source\PSoC4/cyfitter_cfg.c **** * Summary:
 245:.\Generated_Source\PSoC4/cyfitter_cfg.c **** *  Sets up the analog portions of the chip to default values based on chip
 246:.\Generated_Source\PSoC4/cyfitter_cfg.c **** *  configuration options from the project.
 247:.\Generated_Source\PSoC4/cyfitter_cfg.c **** *
 248:.\Generated_Source\PSoC4/cyfitter_cfg.c **** * Parameters:
 249:.\Generated_Source\PSoC4/cyfitter_cfg.c **** *  void
 250:.\Generated_Source\PSoC4/cyfitter_cfg.c **** *
 251:.\Generated_Source\PSoC4/cyfitter_cfg.c **** * Return:
ARM GAS  C:\Users\JEPPES~1\AppData\Local\Temp\ccVLd7Jf.s 			page 10


 252:.\Generated_Source\PSoC4/cyfitter_cfg.c **** *  void
 253:.\Generated_Source\PSoC4/cyfitter_cfg.c **** *
 254:.\Generated_Source\PSoC4/cyfitter_cfg.c **** *******************************************************************************/
 255:.\Generated_Source\PSoC4/cyfitter_cfg.c **** static void AnalogSetDefault(void);
 256:.\Generated_Source\PSoC4/cyfitter_cfg.c **** static void AnalogSetDefault(void)
 257:.\Generated_Source\PSoC4/cyfitter_cfg.c **** {
 258:.\Generated_Source\PSoC4/cyfitter_cfg.c **** }
 259:.\Generated_Source\PSoC4/cyfitter_cfg.c **** 
 260:.\Generated_Source\PSoC4/cyfitter_cfg.c **** #define CY_AMUX_UNUSED CYREG_CM0_ROM_DWT
 261:.\Generated_Source\PSoC4/cyfitter_cfg.c **** 
 262:.\Generated_Source\PSoC4/cyfitter_cfg.c **** 
 263:.\Generated_Source\PSoC4/cyfitter_cfg.c **** /*******************************************************************************
 264:.\Generated_Source\PSoC4/cyfitter_cfg.c **** * Function Name: cyfitter_cfg
 265:.\Generated_Source\PSoC4/cyfitter_cfg.c **** ********************************************************************************
 266:.\Generated_Source\PSoC4/cyfitter_cfg.c **** * Summary:
 267:.\Generated_Source\PSoC4/cyfitter_cfg.c **** *  This function is called by the start-up code for the selected device. It
 268:.\Generated_Source\PSoC4/cyfitter_cfg.c **** *  performs all of the necessary device configuration based on the design
 269:.\Generated_Source\PSoC4/cyfitter_cfg.c **** *  settings.  This includes settings from the Design Wide Resources (DWR) such
 270:.\Generated_Source\PSoC4/cyfitter_cfg.c **** *  as Clocks and Pins as well as any component configuration that is necessary.
 271:.\Generated_Source\PSoC4/cyfitter_cfg.c **** *
 272:.\Generated_Source\PSoC4/cyfitter_cfg.c **** * Parameters:  
 273:.\Generated_Source\PSoC4/cyfitter_cfg.c **** *   void
 274:.\Generated_Source\PSoC4/cyfitter_cfg.c **** *
 275:.\Generated_Source\PSoC4/cyfitter_cfg.c **** * Return:
 276:.\Generated_Source\PSoC4/cyfitter_cfg.c **** *   void
 277:.\Generated_Source\PSoC4/cyfitter_cfg.c **** *
 278:.\Generated_Source\PSoC4/cyfitter_cfg.c **** *******************************************************************************/
 279:.\Generated_Source\PSoC4/cyfitter_cfg.c **** CY_CFG_SECTION
 280:.\Generated_Source\PSoC4/cyfitter_cfg.c **** void cyfitter_cfg(void)
 281:.\Generated_Source\PSoC4/cyfitter_cfg.c **** {
 257              		.loc 1 281 0
 258              		.cfi_startproc
 259 00e0 10B5     		push	{r4, lr}
 260              		.cfi_def_cfa_offset 8
 261              		.cfi_offset 4, -8
 262              		.cfi_offset 14, -4
 282:.\Generated_Source\PSoC4/cyfitter_cfg.c **** 	/* Disable interrupts by default. Let user enable if/when they want. */
 283:.\Generated_Source\PSoC4/cyfitter_cfg.c **** 	CyGlobalIntDisable;
 263              		.loc 1 283 0
 264              	@ 283 ".\Generated_Source\PSoC4\cyfitter_cfg.c" 1
 265 00e2 72B6     		CPSID   i
 266              	@ 0 "" 2
 284:.\Generated_Source\PSoC4/cyfitter_cfg.c **** 
 285:.\Generated_Source\PSoC4/cyfitter_cfg.c **** 	/* Enable the clock in the interrupt controller for the routed interrupts */
 286:.\Generated_Source\PSoC4/cyfitter_cfg.c **** 	CY_SET_REG8((void *)CYREG_UDB_UDBIF_INT_CLK_CTL, 0x01u);
 267              		.loc 1 286 0
 268              		.code	16
 269 00e4 0122     		mov	r2, #1
 270 00e6 314B     		ldr	r3, .L13
 271 00e8 1A70     		strb	r2, [r3]
 272              	.LVL18:
 273              	.LBB3:
 287:.\Generated_Source\PSoC4/cyfitter_cfg.c **** 	{
 288:.\Generated_Source\PSoC4/cyfitter_cfg.c **** 		static const uint32 CYCODE cy_cfg_addr_table[] = {
 289:.\Generated_Source\PSoC4/cyfitter_cfg.c **** 			0x400F0002u, /* Base address: 0x400F0000 Count: 2 */
 290:.\Generated_Source\PSoC4/cyfitter_cfg.c **** 			0x400F3053u, /* Base address: 0x400F3000 Count: 83 */
 291:.\Generated_Source\PSoC4/cyfitter_cfg.c **** 			0x400F312Fu, /* Base address: 0x400F3100 Count: 47 */
ARM GAS  C:\Users\JEPPES~1\AppData\Local\Temp\ccVLd7Jf.s 			page 11


 292:.\Generated_Source\PSoC4/cyfitter_cfg.c **** 			0x400F3244u, /* Base address: 0x400F3200 Count: 68 */
 293:.\Generated_Source\PSoC4/cyfitter_cfg.c **** 			0x400F3339u, /* Base address: 0x400F3300 Count: 57 */
 294:.\Generated_Source\PSoC4/cyfitter_cfg.c **** 			0x400F4004u, /* Base address: 0x400F4000 Count: 4 */
 295:.\Generated_Source\PSoC4/cyfitter_cfg.c **** 			0x400F4105u, /* Base address: 0x400F4100 Count: 5 */
 296:.\Generated_Source\PSoC4/cyfitter_cfg.c **** 			0x400F4202u, /* Base address: 0x400F4200 Count: 2 */
 297:.\Generated_Source\PSoC4/cyfitter_cfg.c **** 			0x400F430Cu, /* Base address: 0x400F4300 Count: 12 */
 298:.\Generated_Source\PSoC4/cyfitter_cfg.c **** 			0x400F6002u, /* Base address: 0x400F6000 Count: 2 */
 299:.\Generated_Source\PSoC4/cyfitter_cfg.c **** 		};
 300:.\Generated_Source\PSoC4/cyfitter_cfg.c **** 
 301:.\Generated_Source\PSoC4/cyfitter_cfg.c **** 		static const cy_cfg_addrvalue_t CYCODE cy_cfg_data_table[] = {
 302:.\Generated_Source\PSoC4/cyfitter_cfg.c **** 			{0x81u, 0x0Fu},
 303:.\Generated_Source\PSoC4/cyfitter_cfg.c **** 			{0x83u, 0x0Du},
 304:.\Generated_Source\PSoC4/cyfitter_cfg.c **** 			{0x0Cu, 0x01u},
 305:.\Generated_Source\PSoC4/cyfitter_cfg.c **** 			{0x16u, 0x01u},
 306:.\Generated_Source\PSoC4/cyfitter_cfg.c **** 			{0x2Au, 0x01u},
 307:.\Generated_Source\PSoC4/cyfitter_cfg.c **** 			{0x36u, 0x01u},
 308:.\Generated_Source\PSoC4/cyfitter_cfg.c **** 			{0x3Eu, 0x40u},
 309:.\Generated_Source\PSoC4/cyfitter_cfg.c **** 			{0x40u, 0x23u},
 310:.\Generated_Source\PSoC4/cyfitter_cfg.c **** 			{0x41u, 0x01u},
 311:.\Generated_Source\PSoC4/cyfitter_cfg.c **** 			{0x42u, 0x05u},
 312:.\Generated_Source\PSoC4/cyfitter_cfg.c **** 			{0x49u, 0xFFu},
 313:.\Generated_Source\PSoC4/cyfitter_cfg.c **** 			{0x4Au, 0xFFu},
 314:.\Generated_Source\PSoC4/cyfitter_cfg.c **** 			{0x4Bu, 0xFFu},
 315:.\Generated_Source\PSoC4/cyfitter_cfg.c **** 			{0x4Fu, 0x01u},
 316:.\Generated_Source\PSoC4/cyfitter_cfg.c **** 			{0x50u, 0x18u},
 317:.\Generated_Source\PSoC4/cyfitter_cfg.c **** 			{0x58u, 0x04u},
 318:.\Generated_Source\PSoC4/cyfitter_cfg.c **** 			{0x5Au, 0x04u},
 319:.\Generated_Source\PSoC4/cyfitter_cfg.c **** 			{0x5Du, 0x01u},
 320:.\Generated_Source\PSoC4/cyfitter_cfg.c **** 			{0x5Fu, 0x01u},
 321:.\Generated_Source\PSoC4/cyfitter_cfg.c **** 			{0x60u, 0x40u},
 322:.\Generated_Source\PSoC4/cyfitter_cfg.c **** 			{0x62u, 0x40u},
 323:.\Generated_Source\PSoC4/cyfitter_cfg.c **** 			{0x64u, 0x40u},
 324:.\Generated_Source\PSoC4/cyfitter_cfg.c **** 			{0x65u, 0x40u},
 325:.\Generated_Source\PSoC4/cyfitter_cfg.c **** 			{0x66u, 0x80u},
 326:.\Generated_Source\PSoC4/cyfitter_cfg.c **** 			{0x68u, 0x80u},
 327:.\Generated_Source\PSoC4/cyfitter_cfg.c **** 			{0x6Au, 0x80u},
 328:.\Generated_Source\PSoC4/cyfitter_cfg.c **** 			{0x6Cu, 0x80u},
 329:.\Generated_Source\PSoC4/cyfitter_cfg.c **** 			{0x6Eu, 0x80u},
 330:.\Generated_Source\PSoC4/cyfitter_cfg.c **** 			{0x83u, 0x02u},
 331:.\Generated_Source\PSoC4/cyfitter_cfg.c **** 			{0x84u, 0x02u},
 332:.\Generated_Source\PSoC4/cyfitter_cfg.c **** 			{0x86u, 0x10u},
 333:.\Generated_Source\PSoC4/cyfitter_cfg.c **** 			{0x87u, 0x04u},
 334:.\Generated_Source\PSoC4/cyfitter_cfg.c **** 			{0x88u, 0x0Eu},
 335:.\Generated_Source\PSoC4/cyfitter_cfg.c **** 			{0x8Bu, 0x03u},
 336:.\Generated_Source\PSoC4/cyfitter_cfg.c **** 			{0x8Fu, 0x08u},
 337:.\Generated_Source\PSoC4/cyfitter_cfg.c **** 			{0x90u, 0x0Au},
 338:.\Generated_Source\PSoC4/cyfitter_cfg.c **** 			{0x94u, 0x04u},
 339:.\Generated_Source\PSoC4/cyfitter_cfg.c **** 			{0x96u, 0x01u},
 340:.\Generated_Source\PSoC4/cyfitter_cfg.c **** 			{0x97u, 0x13u},
 341:.\Generated_Source\PSoC4/cyfitter_cfg.c **** 			{0x99u, 0x08u},
 342:.\Generated_Source\PSoC4/cyfitter_cfg.c **** 			{0x9Bu, 0x01u},
 343:.\Generated_Source\PSoC4/cyfitter_cfg.c **** 			{0x9Cu, 0x0Eu},
 344:.\Generated_Source\PSoC4/cyfitter_cfg.c **** 			{0xA1u, 0x1Fu},
 345:.\Generated_Source\PSoC4/cyfitter_cfg.c **** 			{0xA4u, 0x08u},
 346:.\Generated_Source\PSoC4/cyfitter_cfg.c **** 			{0xA6u, 0x10u},
 347:.\Generated_Source\PSoC4/cyfitter_cfg.c **** 			{0xAAu, 0x1Fu},
 348:.\Generated_Source\PSoC4/cyfitter_cfg.c **** 			{0xABu, 0x01u},
ARM GAS  C:\Users\JEPPES~1\AppData\Local\Temp\ccVLd7Jf.s 			page 12


 349:.\Generated_Source\PSoC4/cyfitter_cfg.c **** 			{0xAEu, 0x0Eu},
 350:.\Generated_Source\PSoC4/cyfitter_cfg.c **** 			{0xB0u, 0x10u},
 351:.\Generated_Source\PSoC4/cyfitter_cfg.c **** 			{0xB2u, 0x0Eu},
 352:.\Generated_Source\PSoC4/cyfitter_cfg.c **** 			{0xB3u, 0x18u},
 353:.\Generated_Source\PSoC4/cyfitter_cfg.c **** 			{0xB4u, 0x01u},
 354:.\Generated_Source\PSoC4/cyfitter_cfg.c **** 			{0xB5u, 0x07u},
 355:.\Generated_Source\PSoC4/cyfitter_cfg.c **** 			{0xBEu, 0x11u},
 356:.\Generated_Source\PSoC4/cyfitter_cfg.c **** 			{0xC0u, 0x23u},
 357:.\Generated_Source\PSoC4/cyfitter_cfg.c **** 			{0xC1u, 0x04u},
 358:.\Generated_Source\PSoC4/cyfitter_cfg.c **** 			{0xC2u, 0x05u},
 359:.\Generated_Source\PSoC4/cyfitter_cfg.c **** 			{0xC5u, 0xECu},
 360:.\Generated_Source\PSoC4/cyfitter_cfg.c **** 			{0xC6u, 0x20u},
 361:.\Generated_Source\PSoC4/cyfitter_cfg.c **** 			{0xC8u, 0x0Bu},
 362:.\Generated_Source\PSoC4/cyfitter_cfg.c **** 			{0xC9u, 0xFFu},
 363:.\Generated_Source\PSoC4/cyfitter_cfg.c **** 			{0xCAu, 0xFFu},
 364:.\Generated_Source\PSoC4/cyfitter_cfg.c **** 			{0xCBu, 0xFFu},
 365:.\Generated_Source\PSoC4/cyfitter_cfg.c **** 			{0xCDu, 0x83u},
 366:.\Generated_Source\PSoC4/cyfitter_cfg.c **** 			{0xCEu, 0x03u},
 367:.\Generated_Source\PSoC4/cyfitter_cfg.c **** 			{0xCFu, 0x01u},
 368:.\Generated_Source\PSoC4/cyfitter_cfg.c **** 			{0xD0u, 0x18u},
 369:.\Generated_Source\PSoC4/cyfitter_cfg.c **** 			{0xD4u, 0x03u},
 370:.\Generated_Source\PSoC4/cyfitter_cfg.c **** 			{0xD6u, 0x04u},
 371:.\Generated_Source\PSoC4/cyfitter_cfg.c **** 			{0xD8u, 0x04u},
 372:.\Generated_Source\PSoC4/cyfitter_cfg.c **** 			{0xD9u, 0x04u},
 373:.\Generated_Source\PSoC4/cyfitter_cfg.c **** 			{0xDAu, 0x04u},
 374:.\Generated_Source\PSoC4/cyfitter_cfg.c **** 			{0xDBu, 0x04u},
 375:.\Generated_Source\PSoC4/cyfitter_cfg.c **** 			{0xDCu, 0x11u},
 376:.\Generated_Source\PSoC4/cyfitter_cfg.c **** 			{0xDDu, 0x11u},
 377:.\Generated_Source\PSoC4/cyfitter_cfg.c **** 			{0xDFu, 0x05u},
 378:.\Generated_Source\PSoC4/cyfitter_cfg.c **** 			{0xE0u, 0x40u},
 379:.\Generated_Source\PSoC4/cyfitter_cfg.c **** 			{0xE2u, 0x40u},
 380:.\Generated_Source\PSoC4/cyfitter_cfg.c **** 			{0xE4u, 0x40u},
 381:.\Generated_Source\PSoC4/cyfitter_cfg.c **** 			{0xE5u, 0x40u},
 382:.\Generated_Source\PSoC4/cyfitter_cfg.c **** 			{0xE6u, 0x80u},
 383:.\Generated_Source\PSoC4/cyfitter_cfg.c **** 			{0xE8u, 0x80u},
 384:.\Generated_Source\PSoC4/cyfitter_cfg.c **** 			{0xEAu, 0x80u},
 385:.\Generated_Source\PSoC4/cyfitter_cfg.c **** 			{0xECu, 0x80u},
 386:.\Generated_Source\PSoC4/cyfitter_cfg.c **** 			{0xEEu, 0x80u},
 387:.\Generated_Source\PSoC4/cyfitter_cfg.c **** 			{0x01u, 0x40u},
 388:.\Generated_Source\PSoC4/cyfitter_cfg.c **** 			{0x07u, 0x28u},
 389:.\Generated_Source\PSoC4/cyfitter_cfg.c **** 			{0x0Au, 0x10u},
 390:.\Generated_Source\PSoC4/cyfitter_cfg.c **** 			{0x0Cu, 0x08u},
 391:.\Generated_Source\PSoC4/cyfitter_cfg.c **** 			{0x0Eu, 0x11u},
 392:.\Generated_Source\PSoC4/cyfitter_cfg.c **** 			{0x0Fu, 0x40u},
 393:.\Generated_Source\PSoC4/cyfitter_cfg.c **** 			{0x13u, 0x20u},
 394:.\Generated_Source\PSoC4/cyfitter_cfg.c **** 			{0x15u, 0x40u},
 395:.\Generated_Source\PSoC4/cyfitter_cfg.c **** 			{0x16u, 0x20u},
 396:.\Generated_Source\PSoC4/cyfitter_cfg.c **** 			{0x17u, 0x10u},
 397:.\Generated_Source\PSoC4/cyfitter_cfg.c **** 			{0x19u, 0x80u},
 398:.\Generated_Source\PSoC4/cyfitter_cfg.c **** 			{0x1Bu, 0x40u},
 399:.\Generated_Source\PSoC4/cyfitter_cfg.c **** 			{0x1Du, 0x20u},
 400:.\Generated_Source\PSoC4/cyfitter_cfg.c **** 			{0x1Eu, 0x50u},
 401:.\Generated_Source\PSoC4/cyfitter_cfg.c **** 			{0x24u, 0x04u},
 402:.\Generated_Source\PSoC4/cyfitter_cfg.c **** 			{0x26u, 0x08u},
 403:.\Generated_Source\PSoC4/cyfitter_cfg.c **** 			{0x27u, 0x18u},
 404:.\Generated_Source\PSoC4/cyfitter_cfg.c **** 			{0x2Eu, 0x21u},
 405:.\Generated_Source\PSoC4/cyfitter_cfg.c **** 			{0x36u, 0x08u},
ARM GAS  C:\Users\JEPPES~1\AppData\Local\Temp\ccVLd7Jf.s 			page 13


 406:.\Generated_Source\PSoC4/cyfitter_cfg.c **** 			{0x37u, 0x20u},
 407:.\Generated_Source\PSoC4/cyfitter_cfg.c **** 			{0x3Cu, 0x04u},
 408:.\Generated_Source\PSoC4/cyfitter_cfg.c **** 			{0x3Du, 0x40u},
 409:.\Generated_Source\PSoC4/cyfitter_cfg.c **** 			{0x3Eu, 0x12u},
 410:.\Generated_Source\PSoC4/cyfitter_cfg.c **** 			{0x41u, 0x20u},
 411:.\Generated_Source\PSoC4/cyfitter_cfg.c **** 			{0x42u, 0x21u},
 412:.\Generated_Source\PSoC4/cyfitter_cfg.c **** 			{0x45u, 0x21u},
 413:.\Generated_Source\PSoC4/cyfitter_cfg.c **** 			{0x46u, 0x20u},
 414:.\Generated_Source\PSoC4/cyfitter_cfg.c **** 			{0x49u, 0x80u},
 415:.\Generated_Source\PSoC4/cyfitter_cfg.c **** 			{0x4Fu, 0x85u},
 416:.\Generated_Source\PSoC4/cyfitter_cfg.c **** 			{0x56u, 0x20u},
 417:.\Generated_Source\PSoC4/cyfitter_cfg.c **** 			{0x5Eu, 0x60u},
 418:.\Generated_Source\PSoC4/cyfitter_cfg.c **** 			{0x5Fu, 0x05u},
 419:.\Generated_Source\PSoC4/cyfitter_cfg.c **** 			{0x66u, 0x02u},
 420:.\Generated_Source\PSoC4/cyfitter_cfg.c **** 			{0x67u, 0x40u},
 421:.\Generated_Source\PSoC4/cyfitter_cfg.c **** 			{0x7Du, 0x02u},
 422:.\Generated_Source\PSoC4/cyfitter_cfg.c **** 			{0x7Fu, 0x40u},
 423:.\Generated_Source\PSoC4/cyfitter_cfg.c **** 			{0xC0u, 0x61u},
 424:.\Generated_Source\PSoC4/cyfitter_cfg.c **** 			{0xC2u, 0xB4u},
 425:.\Generated_Source\PSoC4/cyfitter_cfg.c **** 			{0xC4u, 0xE2u},
 426:.\Generated_Source\PSoC4/cyfitter_cfg.c **** 			{0xCAu, 0xA0u},
 427:.\Generated_Source\PSoC4/cyfitter_cfg.c **** 			{0xCCu, 0x60u},
 428:.\Generated_Source\PSoC4/cyfitter_cfg.c **** 			{0xCEu, 0xF0u},
 429:.\Generated_Source\PSoC4/cyfitter_cfg.c **** 			{0xD0u, 0xEEu},
 430:.\Generated_Source\PSoC4/cyfitter_cfg.c **** 			{0xD2u, 0x18u},
 431:.\Generated_Source\PSoC4/cyfitter_cfg.c **** 			{0xD6u, 0xF0u},
 432:.\Generated_Source\PSoC4/cyfitter_cfg.c **** 			{0xD8u, 0x80u},
 433:.\Generated_Source\PSoC4/cyfitter_cfg.c **** 			{0xDEu, 0x80u},
 434:.\Generated_Source\PSoC4/cyfitter_cfg.c **** 			{0x01u, 0x03u},
 435:.\Generated_Source\PSoC4/cyfitter_cfg.c **** 			{0x08u, 0x01u},
 436:.\Generated_Source\PSoC4/cyfitter_cfg.c **** 			{0x0Cu, 0x01u},
 437:.\Generated_Source\PSoC4/cyfitter_cfg.c **** 			{0x10u, 0x01u},
 438:.\Generated_Source\PSoC4/cyfitter_cfg.c **** 			{0x16u, 0x01u},
 439:.\Generated_Source\PSoC4/cyfitter_cfg.c **** 			{0x1Bu, 0x01u},
 440:.\Generated_Source\PSoC4/cyfitter_cfg.c **** 			{0x1Fu, 0x02u},
 441:.\Generated_Source\PSoC4/cyfitter_cfg.c **** 			{0x2Au, 0x01u},
 442:.\Generated_Source\PSoC4/cyfitter_cfg.c **** 			{0x2Cu, 0x01u},
 443:.\Generated_Source\PSoC4/cyfitter_cfg.c **** 			{0x2Du, 0x01u},
 444:.\Generated_Source\PSoC4/cyfitter_cfg.c **** 			{0x31u, 0x03u},
 445:.\Generated_Source\PSoC4/cyfitter_cfg.c **** 			{0x32u, 0x01u},
 446:.\Generated_Source\PSoC4/cyfitter_cfg.c **** 			{0x58u, 0x04u},
 447:.\Generated_Source\PSoC4/cyfitter_cfg.c **** 			{0x59u, 0x04u},
 448:.\Generated_Source\PSoC4/cyfitter_cfg.c **** 			{0x5Cu, 0x11u},
 449:.\Generated_Source\PSoC4/cyfitter_cfg.c **** 			{0x5Fu, 0x01u},
 450:.\Generated_Source\PSoC4/cyfitter_cfg.c **** 			{0x81u, 0x01u},
 451:.\Generated_Source\PSoC4/cyfitter_cfg.c **** 			{0x82u, 0x01u},
 452:.\Generated_Source\PSoC4/cyfitter_cfg.c **** 			{0x83u, 0x04u},
 453:.\Generated_Source\PSoC4/cyfitter_cfg.c **** 			{0x86u, 0x02u},
 454:.\Generated_Source\PSoC4/cyfitter_cfg.c **** 			{0x8Au, 0x04u},
 455:.\Generated_Source\PSoC4/cyfitter_cfg.c **** 			{0x8Cu, 0x01u},
 456:.\Generated_Source\PSoC4/cyfitter_cfg.c **** 			{0x8Du, 0x03u},
 457:.\Generated_Source\PSoC4/cyfitter_cfg.c **** 			{0x8Fu, 0x08u},
 458:.\Generated_Source\PSoC4/cyfitter_cfg.c **** 			{0x92u, 0x04u},
 459:.\Generated_Source\PSoC4/cyfitter_cfg.c **** 			{0x97u, 0x03u},
 460:.\Generated_Source\PSoC4/cyfitter_cfg.c **** 			{0x9Bu, 0x03u},
 461:.\Generated_Source\PSoC4/cyfitter_cfg.c **** 			{0x9Cu, 0x01u},
 462:.\Generated_Source\PSoC4/cyfitter_cfg.c **** 			{0x9Eu, 0x02u},
ARM GAS  C:\Users\JEPPES~1\AppData\Local\Temp\ccVLd7Jf.s 			page 14


 463:.\Generated_Source\PSoC4/cyfitter_cfg.c **** 			{0x9Fu, 0x06u},
 464:.\Generated_Source\PSoC4/cyfitter_cfg.c **** 			{0xA6u, 0x01u},
 465:.\Generated_Source\PSoC4/cyfitter_cfg.c **** 			{0xAAu, 0x01u},
 466:.\Generated_Source\PSoC4/cyfitter_cfg.c **** 			{0xABu, 0x01u},
 467:.\Generated_Source\PSoC4/cyfitter_cfg.c **** 			{0xB3u, 0x08u},
 468:.\Generated_Source\PSoC4/cyfitter_cfg.c **** 			{0xB4u, 0x03u},
 469:.\Generated_Source\PSoC4/cyfitter_cfg.c **** 			{0xB6u, 0x04u},
 470:.\Generated_Source\PSoC4/cyfitter_cfg.c **** 			{0xB7u, 0x07u},
 471:.\Generated_Source\PSoC4/cyfitter_cfg.c **** 			{0xBAu, 0x20u},
 472:.\Generated_Source\PSoC4/cyfitter_cfg.c **** 			{0xBBu, 0x80u},
 473:.\Generated_Source\PSoC4/cyfitter_cfg.c **** 			{0xBEu, 0x40u},
 474:.\Generated_Source\PSoC4/cyfitter_cfg.c **** 			{0xC0u, 0x46u},
 475:.\Generated_Source\PSoC4/cyfitter_cfg.c **** 			{0xC5u, 0xECu},
 476:.\Generated_Source\PSoC4/cyfitter_cfg.c **** 			{0xC6u, 0x20u},
 477:.\Generated_Source\PSoC4/cyfitter_cfg.c **** 			{0xC8u, 0x0Bu},
 478:.\Generated_Source\PSoC4/cyfitter_cfg.c **** 			{0xC9u, 0xFFu},
 479:.\Generated_Source\PSoC4/cyfitter_cfg.c **** 			{0xCAu, 0xFFu},
 480:.\Generated_Source\PSoC4/cyfitter_cfg.c **** 			{0xCBu, 0xFFu},
 481:.\Generated_Source\PSoC4/cyfitter_cfg.c **** 			{0xCFu, 0x01u},
 482:.\Generated_Source\PSoC4/cyfitter_cfg.c **** 			{0xD0u, 0x18u},
 483:.\Generated_Source\PSoC4/cyfitter_cfg.c **** 			{0xD2u, 0x80u},
 484:.\Generated_Source\PSoC4/cyfitter_cfg.c **** 			{0xD4u, 0x01u},
 485:.\Generated_Source\PSoC4/cyfitter_cfg.c **** 			{0xD6u, 0x04u},
 486:.\Generated_Source\PSoC4/cyfitter_cfg.c **** 			{0xD8u, 0x04u},
 487:.\Generated_Source\PSoC4/cyfitter_cfg.c **** 			{0xD9u, 0x04u},
 488:.\Generated_Source\PSoC4/cyfitter_cfg.c **** 			{0xDAu, 0x04u},
 489:.\Generated_Source\PSoC4/cyfitter_cfg.c **** 			{0xDBu, 0x04u},
 490:.\Generated_Source\PSoC4/cyfitter_cfg.c **** 			{0xDCu, 0x11u},
 491:.\Generated_Source\PSoC4/cyfitter_cfg.c **** 			{0xDDu, 0x33u},
 492:.\Generated_Source\PSoC4/cyfitter_cfg.c **** 			{0xDFu, 0x01u},
 493:.\Generated_Source\PSoC4/cyfitter_cfg.c **** 			{0xE0u, 0x40u},
 494:.\Generated_Source\PSoC4/cyfitter_cfg.c **** 			{0xE2u, 0x40u},
 495:.\Generated_Source\PSoC4/cyfitter_cfg.c **** 			{0xE4u, 0x40u},
 496:.\Generated_Source\PSoC4/cyfitter_cfg.c **** 			{0xE5u, 0x40u},
 497:.\Generated_Source\PSoC4/cyfitter_cfg.c **** 			{0xE6u, 0x80u},
 498:.\Generated_Source\PSoC4/cyfitter_cfg.c **** 			{0xE8u, 0x80u},
 499:.\Generated_Source\PSoC4/cyfitter_cfg.c **** 			{0xEAu, 0x80u},
 500:.\Generated_Source\PSoC4/cyfitter_cfg.c **** 			{0xECu, 0x80u},
 501:.\Generated_Source\PSoC4/cyfitter_cfg.c **** 			{0xEEu, 0x80u},
 502:.\Generated_Source\PSoC4/cyfitter_cfg.c **** 			{0x00u, 0x06u},
 503:.\Generated_Source\PSoC4/cyfitter_cfg.c **** 			{0x01u, 0x60u},
 504:.\Generated_Source\PSoC4/cyfitter_cfg.c **** 			{0x05u, 0x10u},
 505:.\Generated_Source\PSoC4/cyfitter_cfg.c **** 			{0x06u, 0x01u},
 506:.\Generated_Source\PSoC4/cyfitter_cfg.c **** 			{0x0Au, 0x41u},
 507:.\Generated_Source\PSoC4/cyfitter_cfg.c **** 			{0x0Bu, 0x02u},
 508:.\Generated_Source\PSoC4/cyfitter_cfg.c **** 			{0x0Cu, 0x08u},
 509:.\Generated_Source\PSoC4/cyfitter_cfg.c **** 			{0x0Fu, 0x40u},
 510:.\Generated_Source\PSoC4/cyfitter_cfg.c **** 			{0x10u, 0x18u},
 511:.\Generated_Source\PSoC4/cyfitter_cfg.c **** 			{0x15u, 0x80u},
 512:.\Generated_Source\PSoC4/cyfitter_cfg.c **** 			{0x17u, 0x20u},
 513:.\Generated_Source\PSoC4/cyfitter_cfg.c **** 			{0x18u, 0x04u},
 514:.\Generated_Source\PSoC4/cyfitter_cfg.c **** 			{0x19u, 0x90u},
 515:.\Generated_Source\PSoC4/cyfitter_cfg.c **** 			{0x1Eu, 0x20u},
 516:.\Generated_Source\PSoC4/cyfitter_cfg.c **** 			{0x20u, 0x02u},
 517:.\Generated_Source\PSoC4/cyfitter_cfg.c **** 			{0x21u, 0x40u},
 518:.\Generated_Source\PSoC4/cyfitter_cfg.c **** 			{0x22u, 0x40u},
 519:.\Generated_Source\PSoC4/cyfitter_cfg.c **** 			{0x23u, 0x20u},
ARM GAS  C:\Users\JEPPES~1\AppData\Local\Temp\ccVLd7Jf.s 			page 15


 520:.\Generated_Source\PSoC4/cyfitter_cfg.c **** 			{0x27u, 0x80u},
 521:.\Generated_Source\PSoC4/cyfitter_cfg.c **** 			{0x29u, 0x10u},
 522:.\Generated_Source\PSoC4/cyfitter_cfg.c **** 			{0x2Du, 0x40u},
 523:.\Generated_Source\PSoC4/cyfitter_cfg.c **** 			{0x30u, 0x18u},
 524:.\Generated_Source\PSoC4/cyfitter_cfg.c **** 			{0x32u, 0x40u},
 525:.\Generated_Source\PSoC4/cyfitter_cfg.c **** 			{0x34u, 0x10u},
 526:.\Generated_Source\PSoC4/cyfitter_cfg.c **** 			{0x37u, 0xA0u},
 527:.\Generated_Source\PSoC4/cyfitter_cfg.c **** 			{0x39u, 0x40u},
 528:.\Generated_Source\PSoC4/cyfitter_cfg.c **** 			{0x3Au, 0x01u},
 529:.\Generated_Source\PSoC4/cyfitter_cfg.c **** 			{0x3Bu, 0x42u},
 530:.\Generated_Source\PSoC4/cyfitter_cfg.c **** 			{0x3Eu, 0x01u},
 531:.\Generated_Source\PSoC4/cyfitter_cfg.c **** 			{0x42u, 0x40u},
 532:.\Generated_Source\PSoC4/cyfitter_cfg.c **** 			{0x49u, 0x25u},
 533:.\Generated_Source\PSoC4/cyfitter_cfg.c **** 			{0x4Bu, 0x20u},
 534:.\Generated_Source\PSoC4/cyfitter_cfg.c **** 			{0x53u, 0x10u},
 535:.\Generated_Source\PSoC4/cyfitter_cfg.c **** 			{0x59u, 0x85u},
 536:.\Generated_Source\PSoC4/cyfitter_cfg.c **** 			{0x63u, 0x80u},
 537:.\Generated_Source\PSoC4/cyfitter_cfg.c **** 			{0x72u, 0x40u},
 538:.\Generated_Source\PSoC4/cyfitter_cfg.c **** 			{0x83u, 0x40u},
 539:.\Generated_Source\PSoC4/cyfitter_cfg.c **** 			{0x91u, 0x40u},
 540:.\Generated_Source\PSoC4/cyfitter_cfg.c **** 			{0x92u, 0x01u},
 541:.\Generated_Source\PSoC4/cyfitter_cfg.c **** 			{0x9Fu, 0x20u},
 542:.\Generated_Source\PSoC4/cyfitter_cfg.c **** 			{0xA0u, 0x08u},
 543:.\Generated_Source\PSoC4/cyfitter_cfg.c **** 			{0xA6u, 0x10u},
 544:.\Generated_Source\PSoC4/cyfitter_cfg.c **** 			{0xA9u, 0x40u},
 545:.\Generated_Source\PSoC4/cyfitter_cfg.c **** 			{0xAEu, 0x03u},
 546:.\Generated_Source\PSoC4/cyfitter_cfg.c **** 			{0xAFu, 0x40u},
 547:.\Generated_Source\PSoC4/cyfitter_cfg.c **** 			{0xC0u, 0xCFu},
 548:.\Generated_Source\PSoC4/cyfitter_cfg.c **** 			{0xC2u, 0x39u},
 549:.\Generated_Source\PSoC4/cyfitter_cfg.c **** 			{0xC4u, 0xC6u},
 550:.\Generated_Source\PSoC4/cyfitter_cfg.c **** 			{0xCAu, 0x14u},
 551:.\Generated_Source\PSoC4/cyfitter_cfg.c **** 			{0xCCu, 0x3Eu},
 552:.\Generated_Source\PSoC4/cyfitter_cfg.c **** 			{0xCEu, 0x89u},
 553:.\Generated_Source\PSoC4/cyfitter_cfg.c **** 			{0xD0u, 0x01u},
 554:.\Generated_Source\PSoC4/cyfitter_cfg.c **** 			{0xD2u, 0x04u},
 555:.\Generated_Source\PSoC4/cyfitter_cfg.c **** 			{0xD6u, 0x0Bu},
 556:.\Generated_Source\PSoC4/cyfitter_cfg.c **** 			{0xD8u, 0x01u},
 557:.\Generated_Source\PSoC4/cyfitter_cfg.c **** 			{0xEAu, 0x08u},
 558:.\Generated_Source\PSoC4/cyfitter_cfg.c **** 			{0xEEu, 0x04u},
 559:.\Generated_Source\PSoC4/cyfitter_cfg.c **** 			{0x6Fu, 0x20u},
 560:.\Generated_Source\PSoC4/cyfitter_cfg.c **** 			{0x71u, 0x20u},
 561:.\Generated_Source\PSoC4/cyfitter_cfg.c **** 			{0xDAu, 0x80u},
 562:.\Generated_Source\PSoC4/cyfitter_cfg.c **** 			{0xDCu, 0x20u},
 563:.\Generated_Source\PSoC4/cyfitter_cfg.c **** 			{0x81u, 0x20u},
 564:.\Generated_Source\PSoC4/cyfitter_cfg.c **** 			{0xA5u, 0x20u},
 565:.\Generated_Source\PSoC4/cyfitter_cfg.c **** 			{0xAFu, 0x20u},
 566:.\Generated_Source\PSoC4/cyfitter_cfg.c **** 			{0xE2u, 0x20u},
 567:.\Generated_Source\PSoC4/cyfitter_cfg.c **** 			{0xEEu, 0x10u},
 568:.\Generated_Source\PSoC4/cyfitter_cfg.c **** 			{0x03u, 0x22u},
 569:.\Generated_Source\PSoC4/cyfitter_cfg.c **** 			{0xC0u, 0x0Au},
 570:.\Generated_Source\PSoC4/cyfitter_cfg.c **** 			{0x18u, 0x08u},
 571:.\Generated_Source\PSoC4/cyfitter_cfg.c **** 			{0x19u, 0x04u},
 572:.\Generated_Source\PSoC4/cyfitter_cfg.c **** 			{0x1Fu, 0x04u},
 573:.\Generated_Source\PSoC4/cyfitter_cfg.c **** 			{0x50u, 0x04u},
 574:.\Generated_Source\PSoC4/cyfitter_cfg.c **** 			{0x59u, 0x04u},
 575:.\Generated_Source\PSoC4/cyfitter_cfg.c **** 			{0x67u, 0x08u},
 576:.\Generated_Source\PSoC4/cyfitter_cfg.c **** 			{0xABu, 0x20u},
ARM GAS  C:\Users\JEPPES~1\AppData\Local\Temp\ccVLd7Jf.s 			page 16


 577:.\Generated_Source\PSoC4/cyfitter_cfg.c **** 			{0xAFu, 0x02u},
 578:.\Generated_Source\PSoC4/cyfitter_cfg.c **** 			{0xC6u, 0x0Eu},
 579:.\Generated_Source\PSoC4/cyfitter_cfg.c **** 			{0xD4u, 0x04u},
 580:.\Generated_Source\PSoC4/cyfitter_cfg.c **** 			{0xD6u, 0x02u},
 581:.\Generated_Source\PSoC4/cyfitter_cfg.c **** 			{0xD8u, 0x01u},
 582:.\Generated_Source\PSoC4/cyfitter_cfg.c **** 			{0x01u, 0x0Au},
 583:.\Generated_Source\PSoC4/cyfitter_cfg.c **** 			{0x10u, 0x0Au},
 584:.\Generated_Source\PSoC4/cyfitter_cfg.c **** 		};
 585:.\Generated_Source\PSoC4/cyfitter_cfg.c **** 
 586:.\Generated_Source\PSoC4/cyfitter_cfg.c **** 
 587:.\Generated_Source\PSoC4/cyfitter_cfg.c **** 
 588:.\Generated_Source\PSoC4/cyfitter_cfg.c **** 		CYPACKED typedef struct {
 589:.\Generated_Source\PSoC4/cyfitter_cfg.c **** 			void CYFAR *address;
 590:.\Generated_Source\PSoC4/cyfitter_cfg.c **** 			uint16 size;
 591:.\Generated_Source\PSoC4/cyfitter_cfg.c **** 		} CYPACKED_ATTR cfg_memset_t;
 592:.\Generated_Source\PSoC4/cyfitter_cfg.c **** 
 593:.\Generated_Source\PSoC4/cyfitter_cfg.c **** 		static const cfg_memset_t CYCODE cfg_memset_list [] = {
 594:.\Generated_Source\PSoC4/cyfitter_cfg.c **** 			/* address, size */
 595:.\Generated_Source\PSoC4/cyfitter_cfg.c **** 			{(void CYFAR *)(CYDEV_UDB_P0_U0_BASE), 1024u},
 596:.\Generated_Source\PSoC4/cyfitter_cfg.c **** 			{(void CYFAR *)(CYDEV_UDB_DSI0_BASE), 1024u},
 597:.\Generated_Source\PSoC4/cyfitter_cfg.c **** 		};
 598:.\Generated_Source\PSoC4/cyfitter_cfg.c **** 
 599:.\Generated_Source\PSoC4/cyfitter_cfg.c **** 		uint8 CYDATA i;
 600:.\Generated_Source\PSoC4/cyfitter_cfg.c **** 
 601:.\Generated_Source\PSoC4/cyfitter_cfg.c **** 		/* Zero out critical memory blocks before beginning configuration */
 602:.\Generated_Source\PSoC4/cyfitter_cfg.c **** 		for (i = 0u; i < (sizeof(cfg_memset_list)/sizeof(cfg_memset_list[0])); i++)
 274              		.loc 1 602 0
 275 00ea 0024     		mov	r4, #0
 276 00ec 10E0     		b	.L11
 277              	.LVL19:
 278              	.L12:
 279              	.LBB4:
 603:.\Generated_Source\PSoC4/cyfitter_cfg.c **** 		{
 604:.\Generated_Source\PSoC4/cyfitter_cfg.c **** 			const cfg_memset_t CYCODE * CYDATA ms = &cfg_memset_list[i];
 605:.\Generated_Source\PSoC4/cyfitter_cfg.c **** 			CYMEMZERO(ms->address, (size_t)(uint32)(ms->size));
 280              		.loc 1 605 0 discriminator 3
 281 00ee 3048     		ldr	r0, .L13+4
 282 00f0 6300     		lsl	r3, r4, #1
 283 00f2 1A19     		add	r2, r3, r4
 284 00f4 5200     		lsl	r2, r2, #1
 285 00f6 8218     		add	r2, r0, r2
 286 00f8 9188     		ldrh	r1, [r2, #4]
 287 00fa 1B19     		add	r3, r3, r4
 288 00fc 5B00     		lsl	r3, r3, #1
 289 00fe 1A5A     		ldrh	r2, [r3, r0]
 290 0100 C318     		add	r3, r0, r3
 291 0102 5888     		ldrh	r0, [r3, #2]
 292 0104 0004     		lsl	r0, r0, #16
 293 0106 1043     		orr	r0, r2
 294 0108 FFF7FEFF 		bl	CYMEMZERO
 295              	.LVL20:
 296              	.LBE4:
 602:.\Generated_Source\PSoC4/cyfitter_cfg.c **** 		{
 297              		.loc 1 602 0 discriminator 3
 298 010c 0134     		add	r4, r4, #1
 299              	.LVL21:
 300 010e E4B2     		uxtb	r4, r4
ARM GAS  C:\Users\JEPPES~1\AppData\Local\Temp\ccVLd7Jf.s 			page 17


 301              	.LVL22:
 302              	.L11:
 602:.\Generated_Source\PSoC4/cyfitter_cfg.c **** 		{
 303              		.loc 1 602 0 is_stmt 0 discriminator 1
 304 0110 012C     		cmp	r4, #1
 305 0112 ECD9     		bls	.L12
 606:.\Generated_Source\PSoC4/cyfitter_cfg.c **** 		}
 607:.\Generated_Source\PSoC4/cyfitter_cfg.c **** 
 608:.\Generated_Source\PSoC4/cyfitter_cfg.c **** 		cfg_write_bytes32(cy_cfg_addr_table, cy_cfg_data_table);
 306              		.loc 1 608 0 is_stmt 1
 307 0114 2649     		ldr	r1, .L13+4
 308 0116 081C     		mov	r0, r1
 309 0118 0C30     		add	r0, r0, #12
 310 011a 3431     		add	r1, r1, #52
 311 011c FFF7FEFF 		bl	cfg_write_bytes32
 312              	.LVL23:
 609:.\Generated_Source\PSoC4/cyfitter_cfg.c **** 
 610:.\Generated_Source\PSoC4/cyfitter_cfg.c **** 		/* HSIOM Starting address: CYDEV_HSIOM_BASE */
 611:.\Generated_Source\PSoC4/cyfitter_cfg.c **** 		CY_SET_XTND_REG32((void CYFAR *)(CYDEV_HSIOM_BASE), 0x00EE0000u);
 313              		.loc 1 611 0
 314 0120 EE22     		mov	r2, #238
 315 0122 1204     		lsl	r2, r2, #16
 316 0124 234B     		ldr	r3, .L13+8
 317 0126 1A60     		str	r2, [r3]
 612:.\Generated_Source\PSoC4/cyfitter_cfg.c **** 		CY_SET_XTND_REG32((void CYFAR *)(CYREG_HSIOM_PORT_SEL3), 0x0303EE03u);
 318              		.loc 1 612 0
 319 0128 234A     		ldr	r2, .L13+12
 320 012a 244B     		ldr	r3, .L13+16
 321 012c 1A60     		str	r2, [r3]
 613:.\Generated_Source\PSoC4/cyfitter_cfg.c **** 		CY_SET_XTND_REG32((void CYFAR *)(CYREG_HSIOM_PORT_SEL4), 0x000000EEu);
 322              		.loc 1 613 0
 323 012e EE22     		mov	r2, #238
 324 0130 234B     		ldr	r3, .L13+20
 325 0132 1A60     		str	r2, [r3]
 614:.\Generated_Source\PSoC4/cyfitter_cfg.c **** 
 615:.\Generated_Source\PSoC4/cyfitter_cfg.c **** 		/* UDB_PA_0 Starting address: CYDEV_UDB_PA0_BASE */
 616:.\Generated_Source\PSoC4/cyfitter_cfg.c **** 		CY_SET_XTND_REG32((void CYFAR *)(CYDEV_UDB_PA0_BASE), 0x00990000u);
 326              		.loc 1 616 0
 327 0134 9923     		mov	r3, #153
 328 0136 1B04     		lsl	r3, r3, #16
 329 0138 224A     		ldr	r2, .L13+24
 330 013a 1360     		str	r3, [r2]
 617:.\Generated_Source\PSoC4/cyfitter_cfg.c **** 
 618:.\Generated_Source\PSoC4/cyfitter_cfg.c **** 		/* UDB_PA_2 Starting address: CYDEV_UDB_PA2_BASE */
 619:.\Generated_Source\PSoC4/cyfitter_cfg.c **** 		CY_SET_XTND_REG32((void CYFAR *)(CYDEV_UDB_PA2_BASE), 0x00990000u);
 331              		.loc 1 619 0
 332 013c 224A     		ldr	r2, .L13+28
 333 013e 1360     		str	r3, [r2]
 620:.\Generated_Source\PSoC4/cyfitter_cfg.c **** 
 621:.\Generated_Source\PSoC4/cyfitter_cfg.c **** 		/* UDB_PA_3 Starting address: CYDEV_UDB_PA3_BASE */
 622:.\Generated_Source\PSoC4/cyfitter_cfg.c **** 		CY_SET_XTND_REG32((void CYFAR *)(CYDEV_UDB_PA3_BASE), 0x00990000u);
 334              		.loc 1 622 0
 335 0140 224A     		ldr	r2, .L13+32
 336 0142 1360     		str	r3, [r2]
 623:.\Generated_Source\PSoC4/cyfitter_cfg.c **** 		CY_SET_XTND_REG32((void CYFAR *)(CYREG_UDB_PA3_CFG8), 0x47540000u);
 337              		.loc 1 623 0
 338 0144 224A     		ldr	r2, .L13+36
ARM GAS  C:\Users\JEPPES~1\AppData\Local\Temp\ccVLd7Jf.s 			page 18


 339 0146 234B     		ldr	r3, .L13+40
 340 0148 1A60     		str	r2, [r3]
 624:.\Generated_Source\PSoC4/cyfitter_cfg.c **** 
 625:.\Generated_Source\PSoC4/cyfitter_cfg.c **** 		/* INT_SELECT Starting address: CYDEV_CPUSS_INTR_SELECT */
 626:.\Generated_Source\PSoC4/cyfitter_cfg.c **** 		CY_SET_XTND_REG32((void CYFAR *)(CYREG_CPUSS_INTR_SELECT), 0x00000005u);
 341              		.loc 1 626 0
 342 014a 0522     		mov	r2, #5
 343 014c 224B     		ldr	r3, .L13+44
 344 014e 1A60     		str	r2, [r3]
 627:.\Generated_Source\PSoC4/cyfitter_cfg.c **** 
 628:.\Generated_Source\PSoC4/cyfitter_cfg.c **** 		/* INT_CONFIG Starting address: CYDEV_UDB_INT_CFG */
 629:.\Generated_Source\PSoC4/cyfitter_cfg.c **** 		CY_SET_XTND_REG32((void CYFAR *)(CYREG_UDB_INT_CFG), 0x00000006u);
 345              		.loc 1 629 0
 346 0150 0132     		add	r2, r2, #1
 347 0152 224B     		ldr	r3, .L13+48
 348 0154 1A60     		str	r2, [r3]
 630:.\Generated_Source\PSoC4/cyfitter_cfg.c **** 
 631:.\Generated_Source\PSoC4/cyfitter_cfg.c **** 		/* Enable digital routing */
 632:.\Generated_Source\PSoC4/cyfitter_cfg.c **** 		CY_SET_XTND_REG8((void *)CYREG_UDB_UDBIF_BANK_CTL, CY_GET_XTND_REG8((void *)CYREG_UDB_UDBIF_BANK_
 349              		.loc 1 632 0
 350 0156 224B     		ldr	r3, .L13+52
 351 0158 1978     		ldrb	r1, [r3]
 352 015a 043A     		sub	r2, r2, #4
 353 015c 0A43     		orr	r2, r1
 354 015e 1A70     		strb	r2, [r3]
 633:.\Generated_Source\PSoC4/cyfitter_cfg.c **** 
 634:.\Generated_Source\PSoC4/cyfitter_cfg.c **** 		/* Enable UDB array */
 635:.\Generated_Source\PSoC4/cyfitter_cfg.c **** 		CY_SET_XTND_REG8((void *)CYREG_UDB_UDBIF_WAIT_CFG, (uint8)((CY_GET_XTND_REG8((void *)CYREG_UDB_UD
 355              		.loc 1 635 0
 356 0160 2048     		ldr	r0, .L13+56
 357 0162 0278     		ldrb	r2, [r0]
 358 0164 3C21     		mov	r1, #60
 359 0166 8A43     		bic	r2, r1
 360 0168 2839     		sub	r1, r1, #40
 361 016a 0A43     		orr	r2, r1
 362 016c 0270     		strb	r2, [r0]
 636:.\Generated_Source\PSoC4/cyfitter_cfg.c **** 		CY_SET_XTND_REG8((void *)CYREG_UDB_UDBIF_BANK_CTL, (uint8)(CY_GET_XTND_REG8((void *)CYREG_UDB_UDB
 363              		.loc 1 636 0
 364 016e 1978     		ldrb	r1, [r3]
 365 0170 1622     		mov	r2, #22
 366 0172 0A43     		orr	r2, r1
 367 0174 1A70     		strb	r2, [r3]
 368              	.LBE3:
 637:.\Generated_Source\PSoC4/cyfitter_cfg.c **** 	}
 638:.\Generated_Source\PSoC4/cyfitter_cfg.c **** 
 639:.\Generated_Source\PSoC4/cyfitter_cfg.c **** 
 640:.\Generated_Source\PSoC4/cyfitter_cfg.c **** 	/* Perform second pass device configuration. These items must be configured in specific order afte
 641:.\Generated_Source\PSoC4/cyfitter_cfg.c **** 	CY_SET_XTND_REG8((void CYFAR *)(CYREG_UDB_P0_U1_CFG27), 0xC4u);
 369              		.loc 1 641 0
 370 0176 C422     		mov	r2, #196
 371 0178 1B4B     		ldr	r3, .L13+60
 372 017a 1A70     		strb	r2, [r3]
 642:.\Generated_Source\PSoC4/cyfitter_cfg.c **** 	/* IOPINS0_0 Starting address: CYDEV_PRT0_BASE */
 643:.\Generated_Source\PSoC4/cyfitter_cfg.c **** 	CY_SET_XTND_REG32((void CYFAR *)(CYDEV_PRT0_BASE), 0x00000030u);
 373              		.loc 1 643 0
 374 017c 943A     		sub	r2, r2, #148
 375 017e 1B4B     		ldr	r3, .L13+64
ARM GAS  C:\Users\JEPPES~1\AppData\Local\Temp\ccVLd7Jf.s 			page 19


 376 0180 1A60     		str	r2, [r3]
 644:.\Generated_Source\PSoC4/cyfitter_cfg.c **** 	CY_SET_XTND_REG32((void CYFAR *)(CYREG_PRT0_PC), 0x02024000u);
 377              		.loc 1 644 0
 378 0182 1B4A     		ldr	r2, .L13+68
 379 0184 1B4B     		ldr	r3, .L13+72
 380 0186 1A60     		str	r2, [r3]
 645:.\Generated_Source\PSoC4/cyfitter_cfg.c **** 
 646:.\Generated_Source\PSoC4/cyfitter_cfg.c **** 	/* IOPINS0_2 Starting address: CYDEV_PRT2_BASE */
 647:.\Generated_Source\PSoC4/cyfitter_cfg.c **** 	CY_SET_XTND_REG32((void CYFAR *)(CYREG_PRT2_PC), 0x000002F1u);
 381              		.loc 1 647 0
 382 0188 1B4A     		ldr	r2, .L13+76
 383 018a 1C4B     		ldr	r3, .L13+80
 384 018c 1A60     		str	r2, [r3]
 648:.\Generated_Source\PSoC4/cyfitter_cfg.c **** 
 649:.\Generated_Source\PSoC4/cyfitter_cfg.c **** 	/* IOPINS0_3 Starting address: CYDEV_PRT3_BASE */
 650:.\Generated_Source\PSoC4/cyfitter_cfg.c **** 	CY_SET_XTND_REG32((void CYFAR *)(CYDEV_PRT3_BASE), 0x00000051u);
 385              		.loc 1 650 0
 386 018e 5122     		mov	r2, #81
 387 0190 1B4B     		ldr	r3, .L13+84
 388 0192 1A60     		str	r2, [r3]
 651:.\Generated_Source\PSoC4/cyfitter_cfg.c **** 	CY_SET_XTND_REG32((void CYFAR *)(CYREG_PRT3_PC), 0x00186D86u);
 389              		.loc 1 651 0
 390 0194 1B4A     		ldr	r2, .L13+88
 391 0196 1C4B     		ldr	r3, .L13+92
 392 0198 1A60     		str	r2, [r3]
 652:.\Generated_Source\PSoC4/cyfitter_cfg.c **** 
 653:.\Generated_Source\PSoC4/cyfitter_cfg.c **** 	/* IOPINS0_4 Starting address: CYDEV_PRT4_BASE */
 654:.\Generated_Source\PSoC4/cyfitter_cfg.c **** 	CY_SET_XTND_REG32((void CYFAR *)(CYDEV_PRT4_BASE), 0x00000003u);
 393              		.loc 1 654 0
 394 019a 0322     		mov	r2, #3
 395 019c 1B4B     		ldr	r3, .L13+96
 396 019e 1A60     		str	r2, [r3]
 655:.\Generated_Source\PSoC4/cyfitter_cfg.c **** 	CY_SET_XTND_REG32((void CYFAR *)(CYREG_PRT4_PC), 0x00000024u);
 397              		.loc 1 655 0
 398 01a0 2132     		add	r2, r2, #33
 399 01a2 1B4B     		ldr	r3, .L13+100
 400 01a4 1A60     		str	r2, [r3]
 656:.\Generated_Source\PSoC4/cyfitter_cfg.c **** 
 657:.\Generated_Source\PSoC4/cyfitter_cfg.c **** 
 658:.\Generated_Source\PSoC4/cyfitter_cfg.c **** 	/* Setup clocks based on selections from Clock DWR */
 659:.\Generated_Source\PSoC4/cyfitter_cfg.c **** 	ClockSetup();
 401              		.loc 1 659 0
 402 01a6 FFF72BFF 		bl	ClockSetup
 403              	.LVL24:
 660:.\Generated_Source\PSoC4/cyfitter_cfg.c **** 
 661:.\Generated_Source\PSoC4/cyfitter_cfg.c **** 	/* Perform basic analog initialization to defaults */
 662:.\Generated_Source\PSoC4/cyfitter_cfg.c **** 	AnalogSetDefault();
 663:.\Generated_Source\PSoC4/cyfitter_cfg.c **** 
 664:.\Generated_Source\PSoC4/cyfitter_cfg.c **** }
 404              		.loc 1 664 0
 405              		@ sp needed
 406              	.LVL25:
 407 01aa 10BD     		pop	{r4, pc}
 408              	.L14:
 409              		.align	2
 410              	.L13:
 411 01ac 1C700F40 		.word	1074753564
ARM GAS  C:\Users\JEPPES~1\AppData\Local\Temp\ccVLd7Jf.s 			page 20


 412 01b0 00000000 		.word	.LANCHOR0
 413 01b4 00000140 		.word	1073807360
 414 01b8 03EE0303 		.word	50589187
 415 01bc 0C000140 		.word	1073807372
 416 01c0 10000140 		.word	1073807376
 417 01c4 00500F40 		.word	1074745344
 418 01c8 20500F40 		.word	1074745376
 419 01cc 30500F40 		.word	1074745392
 420 01d0 00005447 		.word	1196687360
 421 01d4 38500F40 		.word	1074745400
 422 01d8 20000040 		.word	1073741856
 423 01dc 00800F40 		.word	1074757632
 424 01e0 00700F40 		.word	1074753536
 425 01e4 01700F40 		.word	1074753537
 426 01e8 DB300F40 		.word	1074737371
 427 01ec 00000440 		.word	1074003968
 428 01f0 00400202 		.word	33701888
 429 01f4 08000440 		.word	1074003976
 430 01f8 F1020000 		.word	753
 431 01fc 08020440 		.word	1074004488
 432 0200 00030440 		.word	1074004736
 433 0204 866D1800 		.word	1600902
 434 0208 08030440 		.word	1074004744
 435 020c 00040440 		.word	1074004992
 436 0210 08040440 		.word	1074005000
 437              		.cfi_endproc
 438              	.LFE6:
 439              		.size	cyfitter_cfg, .-cyfitter_cfg
 440              		.section	.rodata
 441              		.align	2
 442              		.set	.LANCHOR0,. + 0
 443              		.type	cfg_memset_list.4739, %object
 444              		.size	cfg_memset_list.4739, 12
 445              	cfg_memset_list.4739:
 446 0000 00300F40 		.word	1074737152
 447 0004 0004     		.short	1024
 448 0006 00400F40 		.4byte	1074741248
 449 000a 0004     		.short	1024
 450              		.type	cy_cfg_addr_table.4733, %object
 451              		.size	cy_cfg_addr_table.4733, 40
 452              	cy_cfg_addr_table.4733:
 453 000c 02000F40 		.word	1074724866
 454 0010 53300F40 		.word	1074737235
 455 0014 2F310F40 		.word	1074737455
 456 0018 44320F40 		.word	1074737732
 457 001c 39330F40 		.word	1074737977
 458 0020 04400F40 		.word	1074741252
 459 0024 05410F40 		.word	1074741509
 460 0028 02420F40 		.word	1074741762
 461 002c 0C430F40 		.word	1074742028
 462 0030 02600F40 		.word	1074749442
 463              		.type	cy_cfg_data_table.4734, %object
 464              		.size	cy_cfg_data_table.4734, 564
 465              	cy_cfg_data_table.4734:
 466 0034 81       		.byte	-127
 467 0035 0F       		.byte	15
 468 0036 83       		.byte	-125
ARM GAS  C:\Users\JEPPES~1\AppData\Local\Temp\ccVLd7Jf.s 			page 21


 469 0037 0D       		.byte	13
 470 0038 0C       		.byte	12
 471 0039 01       		.byte	1
 472 003a 16       		.byte	22
 473 003b 01       		.byte	1
 474 003c 2A       		.byte	42
 475 003d 01       		.byte	1
 476 003e 36       		.byte	54
 477 003f 01       		.byte	1
 478 0040 3E       		.byte	62
 479 0041 40       		.byte	64
 480 0042 40       		.byte	64
 481 0043 23       		.byte	35
 482 0044 41       		.byte	65
 483 0045 01       		.byte	1
 484 0046 42       		.byte	66
 485 0047 05       		.byte	5
 486 0048 49       		.byte	73
 487 0049 FF       		.byte	-1
 488 004a 4A       		.byte	74
 489 004b FF       		.byte	-1
 490 004c 4B       		.byte	75
 491 004d FF       		.byte	-1
 492 004e 4F       		.byte	79
 493 004f 01       		.byte	1
 494 0050 50       		.byte	80
 495 0051 18       		.byte	24
 496 0052 58       		.byte	88
 497 0053 04       		.byte	4
 498 0054 5A       		.byte	90
 499 0055 04       		.byte	4
 500 0056 5D       		.byte	93
 501 0057 01       		.byte	1
 502 0058 5F       		.byte	95
 503 0059 01       		.byte	1
 504 005a 60       		.byte	96
 505 005b 40       		.byte	64
 506 005c 62       		.byte	98
 507 005d 40       		.byte	64
 508 005e 64       		.byte	100
 509 005f 40       		.byte	64
 510 0060 65       		.byte	101
 511 0061 40       		.byte	64
 512 0062 66       		.byte	102
 513 0063 80       		.byte	-128
 514 0064 68       		.byte	104
 515 0065 80       		.byte	-128
 516 0066 6A       		.byte	106
 517 0067 80       		.byte	-128
 518 0068 6C       		.byte	108
 519 0069 80       		.byte	-128
 520 006a 6E       		.byte	110
 521 006b 80       		.byte	-128
 522 006c 83       		.byte	-125
 523 006d 02       		.byte	2
 524 006e 84       		.byte	-124
 525 006f 02       		.byte	2
ARM GAS  C:\Users\JEPPES~1\AppData\Local\Temp\ccVLd7Jf.s 			page 22


 526 0070 86       		.byte	-122
 527 0071 10       		.byte	16
 528 0072 87       		.byte	-121
 529 0073 04       		.byte	4
 530 0074 88       		.byte	-120
 531 0075 0E       		.byte	14
 532 0076 8B       		.byte	-117
 533 0077 03       		.byte	3
 534 0078 8F       		.byte	-113
 535 0079 08       		.byte	8
 536 007a 90       		.byte	-112
 537 007b 0A       		.byte	10
 538 007c 94       		.byte	-108
 539 007d 04       		.byte	4
 540 007e 96       		.byte	-106
 541 007f 01       		.byte	1
 542 0080 97       		.byte	-105
 543 0081 13       		.byte	19
 544 0082 99       		.byte	-103
 545 0083 08       		.byte	8
 546 0084 9B       		.byte	-101
 547 0085 01       		.byte	1
 548 0086 9C       		.byte	-100
 549 0087 0E       		.byte	14
 550 0088 A1       		.byte	-95
 551 0089 1F       		.byte	31
 552 008a A4       		.byte	-92
 553 008b 08       		.byte	8
 554 008c A6       		.byte	-90
 555 008d 10       		.byte	16
 556 008e AA       		.byte	-86
 557 008f 1F       		.byte	31
 558 0090 AB       		.byte	-85
 559 0091 01       		.byte	1
 560 0092 AE       		.byte	-82
 561 0093 0E       		.byte	14
 562 0094 B0       		.byte	-80
 563 0095 10       		.byte	16
 564 0096 B2       		.byte	-78
 565 0097 0E       		.byte	14
 566 0098 B3       		.byte	-77
 567 0099 18       		.byte	24
 568 009a B4       		.byte	-76
 569 009b 01       		.byte	1
 570 009c B5       		.byte	-75
 571 009d 07       		.byte	7
 572 009e BE       		.byte	-66
 573 009f 11       		.byte	17
 574 00a0 C0       		.byte	-64
 575 00a1 23       		.byte	35
 576 00a2 C1       		.byte	-63
 577 00a3 04       		.byte	4
 578 00a4 C2       		.byte	-62
 579 00a5 05       		.byte	5
 580 00a6 C5       		.byte	-59
 581 00a7 EC       		.byte	-20
 582 00a8 C6       		.byte	-58
ARM GAS  C:\Users\JEPPES~1\AppData\Local\Temp\ccVLd7Jf.s 			page 23


 583 00a9 20       		.byte	32
 584 00aa C8       		.byte	-56
 585 00ab 0B       		.byte	11
 586 00ac C9       		.byte	-55
 587 00ad FF       		.byte	-1
 588 00ae CA       		.byte	-54
 589 00af FF       		.byte	-1
 590 00b0 CB       		.byte	-53
 591 00b1 FF       		.byte	-1
 592 00b2 CD       		.byte	-51
 593 00b3 83       		.byte	-125
 594 00b4 CE       		.byte	-50
 595 00b5 03       		.byte	3
 596 00b6 CF       		.byte	-49
 597 00b7 01       		.byte	1
 598 00b8 D0       		.byte	-48
 599 00b9 18       		.byte	24
 600 00ba D4       		.byte	-44
 601 00bb 03       		.byte	3
 602 00bc D6       		.byte	-42
 603 00bd 04       		.byte	4
 604 00be D8       		.byte	-40
 605 00bf 04       		.byte	4
 606 00c0 D9       		.byte	-39
 607 00c1 04       		.byte	4
 608 00c2 DA       		.byte	-38
 609 00c3 04       		.byte	4
 610 00c4 DB       		.byte	-37
 611 00c5 04       		.byte	4
 612 00c6 DC       		.byte	-36
 613 00c7 11       		.byte	17
 614 00c8 DD       		.byte	-35
 615 00c9 11       		.byte	17
 616 00ca DF       		.byte	-33
 617 00cb 05       		.byte	5
 618 00cc E0       		.byte	-32
 619 00cd 40       		.byte	64
 620 00ce E2       		.byte	-30
 621 00cf 40       		.byte	64
 622 00d0 E4       		.byte	-28
 623 00d1 40       		.byte	64
 624 00d2 E5       		.byte	-27
 625 00d3 40       		.byte	64
 626 00d4 E6       		.byte	-26
 627 00d5 80       		.byte	-128
 628 00d6 E8       		.byte	-24
 629 00d7 80       		.byte	-128
 630 00d8 EA       		.byte	-22
 631 00d9 80       		.byte	-128
 632 00da EC       		.byte	-20
 633 00db 80       		.byte	-128
 634 00dc EE       		.byte	-18
 635 00dd 80       		.byte	-128
 636 00de 01       		.byte	1
 637 00df 40       		.byte	64
 638 00e0 07       		.byte	7
 639 00e1 28       		.byte	40
ARM GAS  C:\Users\JEPPES~1\AppData\Local\Temp\ccVLd7Jf.s 			page 24


 640 00e2 0A       		.byte	10
 641 00e3 10       		.byte	16
 642 00e4 0C       		.byte	12
 643 00e5 08       		.byte	8
 644 00e6 0E       		.byte	14
 645 00e7 11       		.byte	17
 646 00e8 0F       		.byte	15
 647 00e9 40       		.byte	64
 648 00ea 13       		.byte	19
 649 00eb 20       		.byte	32
 650 00ec 15       		.byte	21
 651 00ed 40       		.byte	64
 652 00ee 16       		.byte	22
 653 00ef 20       		.byte	32
 654 00f0 17       		.byte	23
 655 00f1 10       		.byte	16
 656 00f2 19       		.byte	25
 657 00f3 80       		.byte	-128
 658 00f4 1B       		.byte	27
 659 00f5 40       		.byte	64
 660 00f6 1D       		.byte	29
 661 00f7 20       		.byte	32
 662 00f8 1E       		.byte	30
 663 00f9 50       		.byte	80
 664 00fa 24       		.byte	36
 665 00fb 04       		.byte	4
 666 00fc 26       		.byte	38
 667 00fd 08       		.byte	8
 668 00fe 27       		.byte	39
 669 00ff 18       		.byte	24
 670 0100 2E       		.byte	46
 671 0101 21       		.byte	33
 672 0102 36       		.byte	54
 673 0103 08       		.byte	8
 674 0104 37       		.byte	55
 675 0105 20       		.byte	32
 676 0106 3C       		.byte	60
 677 0107 04       		.byte	4
 678 0108 3D       		.byte	61
 679 0109 40       		.byte	64
 680 010a 3E       		.byte	62
 681 010b 12       		.byte	18
 682 010c 41       		.byte	65
 683 010d 20       		.byte	32
 684 010e 42       		.byte	66
 685 010f 21       		.byte	33
 686 0110 45       		.byte	69
 687 0111 21       		.byte	33
 688 0112 46       		.byte	70
 689 0113 20       		.byte	32
 690 0114 49       		.byte	73
 691 0115 80       		.byte	-128
 692 0116 4F       		.byte	79
 693 0117 85       		.byte	-123
 694 0118 56       		.byte	86
 695 0119 20       		.byte	32
 696 011a 5E       		.byte	94
ARM GAS  C:\Users\JEPPES~1\AppData\Local\Temp\ccVLd7Jf.s 			page 25


 697 011b 60       		.byte	96
 698 011c 5F       		.byte	95
 699 011d 05       		.byte	5
 700 011e 66       		.byte	102
 701 011f 02       		.byte	2
 702 0120 67       		.byte	103
 703 0121 40       		.byte	64
 704 0122 7D       		.byte	125
 705 0123 02       		.byte	2
 706 0124 7F       		.byte	127
 707 0125 40       		.byte	64
 708 0126 C0       		.byte	-64
 709 0127 61       		.byte	97
 710 0128 C2       		.byte	-62
 711 0129 B4       		.byte	-76
 712 012a C4       		.byte	-60
 713 012b E2       		.byte	-30
 714 012c CA       		.byte	-54
 715 012d A0       		.byte	-96
 716 012e CC       		.byte	-52
 717 012f 60       		.byte	96
 718 0130 CE       		.byte	-50
 719 0131 F0       		.byte	-16
 720 0132 D0       		.byte	-48
 721 0133 EE       		.byte	-18
 722 0134 D2       		.byte	-46
 723 0135 18       		.byte	24
 724 0136 D6       		.byte	-42
 725 0137 F0       		.byte	-16
 726 0138 D8       		.byte	-40
 727 0139 80       		.byte	-128
 728 013a DE       		.byte	-34
 729 013b 80       		.byte	-128
 730 013c 01       		.byte	1
 731 013d 03       		.byte	3
 732 013e 08       		.byte	8
 733 013f 01       		.byte	1
 734 0140 0C       		.byte	12
 735 0141 01       		.byte	1
 736 0142 10       		.byte	16
 737 0143 01       		.byte	1
 738 0144 16       		.byte	22
 739 0145 01       		.byte	1
 740 0146 1B       		.byte	27
 741 0147 01       		.byte	1
 742 0148 1F       		.byte	31
 743 0149 02       		.byte	2
 744 014a 2A       		.byte	42
 745 014b 01       		.byte	1
 746 014c 2C       		.byte	44
 747 014d 01       		.byte	1
 748 014e 2D       		.byte	45
 749 014f 01       		.byte	1
 750 0150 31       		.byte	49
 751 0151 03       		.byte	3
 752 0152 32       		.byte	50
 753 0153 01       		.byte	1
ARM GAS  C:\Users\JEPPES~1\AppData\Local\Temp\ccVLd7Jf.s 			page 26


 754 0154 58       		.byte	88
 755 0155 04       		.byte	4
 756 0156 59       		.byte	89
 757 0157 04       		.byte	4
 758 0158 5C       		.byte	92
 759 0159 11       		.byte	17
 760 015a 5F       		.byte	95
 761 015b 01       		.byte	1
 762 015c 81       		.byte	-127
 763 015d 01       		.byte	1
 764 015e 82       		.byte	-126
 765 015f 01       		.byte	1
 766 0160 83       		.byte	-125
 767 0161 04       		.byte	4
 768 0162 86       		.byte	-122
 769 0163 02       		.byte	2
 770 0164 8A       		.byte	-118
 771 0165 04       		.byte	4
 772 0166 8C       		.byte	-116
 773 0167 01       		.byte	1
 774 0168 8D       		.byte	-115
 775 0169 03       		.byte	3
 776 016a 8F       		.byte	-113
 777 016b 08       		.byte	8
 778 016c 92       		.byte	-110
 779 016d 04       		.byte	4
 780 016e 97       		.byte	-105
 781 016f 03       		.byte	3
 782 0170 9B       		.byte	-101
 783 0171 03       		.byte	3
 784 0172 9C       		.byte	-100
 785 0173 01       		.byte	1
 786 0174 9E       		.byte	-98
 787 0175 02       		.byte	2
 788 0176 9F       		.byte	-97
 789 0177 06       		.byte	6
 790 0178 A6       		.byte	-90
 791 0179 01       		.byte	1
 792 017a AA       		.byte	-86
 793 017b 01       		.byte	1
 794 017c AB       		.byte	-85
 795 017d 01       		.byte	1
 796 017e B3       		.byte	-77
 797 017f 08       		.byte	8
 798 0180 B4       		.byte	-76
 799 0181 03       		.byte	3
 800 0182 B6       		.byte	-74
 801 0183 04       		.byte	4
 802 0184 B7       		.byte	-73
 803 0185 07       		.byte	7
 804 0186 BA       		.byte	-70
 805 0187 20       		.byte	32
 806 0188 BB       		.byte	-69
 807 0189 80       		.byte	-128
 808 018a BE       		.byte	-66
 809 018b 40       		.byte	64
 810 018c C0       		.byte	-64
ARM GAS  C:\Users\JEPPES~1\AppData\Local\Temp\ccVLd7Jf.s 			page 27


 811 018d 46       		.byte	70
 812 018e C5       		.byte	-59
 813 018f EC       		.byte	-20
 814 0190 C6       		.byte	-58
 815 0191 20       		.byte	32
 816 0192 C8       		.byte	-56
 817 0193 0B       		.byte	11
 818 0194 C9       		.byte	-55
 819 0195 FF       		.byte	-1
 820 0196 CA       		.byte	-54
 821 0197 FF       		.byte	-1
 822 0198 CB       		.byte	-53
 823 0199 FF       		.byte	-1
 824 019a CF       		.byte	-49
 825 019b 01       		.byte	1
 826 019c D0       		.byte	-48
 827 019d 18       		.byte	24
 828 019e D2       		.byte	-46
 829 019f 80       		.byte	-128
 830 01a0 D4       		.byte	-44
 831 01a1 01       		.byte	1
 832 01a2 D6       		.byte	-42
 833 01a3 04       		.byte	4
 834 01a4 D8       		.byte	-40
 835 01a5 04       		.byte	4
 836 01a6 D9       		.byte	-39
 837 01a7 04       		.byte	4
 838 01a8 DA       		.byte	-38
 839 01a9 04       		.byte	4
 840 01aa DB       		.byte	-37
 841 01ab 04       		.byte	4
 842 01ac DC       		.byte	-36
 843 01ad 11       		.byte	17
 844 01ae DD       		.byte	-35
 845 01af 33       		.byte	51
 846 01b0 DF       		.byte	-33
 847 01b1 01       		.byte	1
 848 01b2 E0       		.byte	-32
 849 01b3 40       		.byte	64
 850 01b4 E2       		.byte	-30
 851 01b5 40       		.byte	64
 852 01b6 E4       		.byte	-28
 853 01b7 40       		.byte	64
 854 01b8 E5       		.byte	-27
 855 01b9 40       		.byte	64
 856 01ba E6       		.byte	-26
 857 01bb 80       		.byte	-128
 858 01bc E8       		.byte	-24
 859 01bd 80       		.byte	-128
 860 01be EA       		.byte	-22
 861 01bf 80       		.byte	-128
 862 01c0 EC       		.byte	-20
 863 01c1 80       		.byte	-128
 864 01c2 EE       		.byte	-18
 865 01c3 80       		.byte	-128
 866 01c4 00       		.byte	0
 867 01c5 06       		.byte	6
ARM GAS  C:\Users\JEPPES~1\AppData\Local\Temp\ccVLd7Jf.s 			page 28


 868 01c6 01       		.byte	1
 869 01c7 60       		.byte	96
 870 01c8 05       		.byte	5
 871 01c9 10       		.byte	16
 872 01ca 06       		.byte	6
 873 01cb 01       		.byte	1
 874 01cc 0A       		.byte	10
 875 01cd 41       		.byte	65
 876 01ce 0B       		.byte	11
 877 01cf 02       		.byte	2
 878 01d0 0C       		.byte	12
 879 01d1 08       		.byte	8
 880 01d2 0F       		.byte	15
 881 01d3 40       		.byte	64
 882 01d4 10       		.byte	16
 883 01d5 18       		.byte	24
 884 01d6 15       		.byte	21
 885 01d7 80       		.byte	-128
 886 01d8 17       		.byte	23
 887 01d9 20       		.byte	32
 888 01da 18       		.byte	24
 889 01db 04       		.byte	4
 890 01dc 19       		.byte	25
 891 01dd 90       		.byte	-112
 892 01de 1E       		.byte	30
 893 01df 20       		.byte	32
 894 01e0 20       		.byte	32
 895 01e1 02       		.byte	2
 896 01e2 21       		.byte	33
 897 01e3 40       		.byte	64
 898 01e4 22       		.byte	34
 899 01e5 40       		.byte	64
 900 01e6 23       		.byte	35
 901 01e7 20       		.byte	32
 902 01e8 27       		.byte	39
 903 01e9 80       		.byte	-128
 904 01ea 29       		.byte	41
 905 01eb 10       		.byte	16
 906 01ec 2D       		.byte	45
 907 01ed 40       		.byte	64
 908 01ee 30       		.byte	48
 909 01ef 18       		.byte	24
 910 01f0 32       		.byte	50
 911 01f1 40       		.byte	64
 912 01f2 34       		.byte	52
 913 01f3 10       		.byte	16
 914 01f4 37       		.byte	55
 915 01f5 A0       		.byte	-96
 916 01f6 39       		.byte	57
 917 01f7 40       		.byte	64
 918 01f8 3A       		.byte	58
 919 01f9 01       		.byte	1
 920 01fa 3B       		.byte	59
 921 01fb 42       		.byte	66
 922 01fc 3E       		.byte	62
 923 01fd 01       		.byte	1
 924 01fe 42       		.byte	66
ARM GAS  C:\Users\JEPPES~1\AppData\Local\Temp\ccVLd7Jf.s 			page 29


 925 01ff 40       		.byte	64
 926 0200 49       		.byte	73
 927 0201 25       		.byte	37
 928 0202 4B       		.byte	75
 929 0203 20       		.byte	32
 930 0204 53       		.byte	83
 931 0205 10       		.byte	16
 932 0206 59       		.byte	89
 933 0207 85       		.byte	-123
 934 0208 63       		.byte	99
 935 0209 80       		.byte	-128
 936 020a 72       		.byte	114
 937 020b 40       		.byte	64
 938 020c 83       		.byte	-125
 939 020d 40       		.byte	64
 940 020e 91       		.byte	-111
 941 020f 40       		.byte	64
 942 0210 92       		.byte	-110
 943 0211 01       		.byte	1
 944 0212 9F       		.byte	-97
 945 0213 20       		.byte	32
 946 0214 A0       		.byte	-96
 947 0215 08       		.byte	8
 948 0216 A6       		.byte	-90
 949 0217 10       		.byte	16
 950 0218 A9       		.byte	-87
 951 0219 40       		.byte	64
 952 021a AE       		.byte	-82
 953 021b 03       		.byte	3
 954 021c AF       		.byte	-81
 955 021d 40       		.byte	64
 956 021e C0       		.byte	-64
 957 021f CF       		.byte	-49
 958 0220 C2       		.byte	-62
 959 0221 39       		.byte	57
 960 0222 C4       		.byte	-60
 961 0223 C6       		.byte	-58
 962 0224 CA       		.byte	-54
 963 0225 14       		.byte	20
 964 0226 CC       		.byte	-52
 965 0227 3E       		.byte	62
 966 0228 CE       		.byte	-50
 967 0229 89       		.byte	-119
 968 022a D0       		.byte	-48
 969 022b 01       		.byte	1
 970 022c D2       		.byte	-46
 971 022d 04       		.byte	4
 972 022e D6       		.byte	-42
 973 022f 0B       		.byte	11
 974 0230 D8       		.byte	-40
 975 0231 01       		.byte	1
 976 0232 EA       		.byte	-22
 977 0233 08       		.byte	8
 978 0234 EE       		.byte	-18
 979 0235 04       		.byte	4
 980 0236 6F       		.byte	111
 981 0237 20       		.byte	32
ARM GAS  C:\Users\JEPPES~1\AppData\Local\Temp\ccVLd7Jf.s 			page 30


 982 0238 71       		.byte	113
 983 0239 20       		.byte	32
 984 023a DA       		.byte	-38
 985 023b 80       		.byte	-128
 986 023c DC       		.byte	-36
 987 023d 20       		.byte	32
 988 023e 81       		.byte	-127
 989 023f 20       		.byte	32
 990 0240 A5       		.byte	-91
 991 0241 20       		.byte	32
 992 0242 AF       		.byte	-81
 993 0243 20       		.byte	32
 994 0244 E2       		.byte	-30
 995 0245 20       		.byte	32
 996 0246 EE       		.byte	-18
 997 0247 10       		.byte	16
 998 0248 03       		.byte	3
 999 0249 22       		.byte	34
 1000 024a C0       		.byte	-64
 1001 024b 0A       		.byte	10
 1002 024c 18       		.byte	24
 1003 024d 08       		.byte	8
 1004 024e 19       		.byte	25
 1005 024f 04       		.byte	4
 1006 0250 1F       		.byte	31
 1007 0251 04       		.byte	4
 1008 0252 50       		.byte	80
 1009 0253 04       		.byte	4
 1010 0254 59       		.byte	89
 1011 0255 04       		.byte	4
 1012 0256 67       		.byte	103
 1013 0257 08       		.byte	8
 1014 0258 AB       		.byte	-85
 1015 0259 20       		.byte	32
 1016 025a AF       		.byte	-81
 1017 025b 02       		.byte	2
 1018 025c C6       		.byte	-58
 1019 025d 0E       		.byte	14
 1020 025e D4       		.byte	-44
 1021 025f 04       		.byte	4
 1022 0260 D6       		.byte	-42
 1023 0261 02       		.byte	2
 1024 0262 D8       		.byte	-40
 1025 0263 01       		.byte	1
 1026 0264 01       		.byte	1
 1027 0265 0A       		.byte	10
 1028 0266 10       		.byte	16
 1029 0267 0A       		.byte	10
 1030              		.text
 1031              	.Letext0:
 1032              		.file 2 "c:\\program files (x86)\\cypress\\psoc creator\\3.3\\psoc creator\\import\\gnu\\arm\\4.9.
 1033              		.file 3 ".\\Generated_Source\\PSoC4\\cytypes.h"
 1034              		.file 4 ".\\Generated_Source\\PSoC4\\CyLib.h"