ARM GAS  C:\Users\Simon\AppData\Local\Temp\cc5Ie5pu.s 			page 1


   1              		.cpu cortex-m0
   2              		.fpu softvfp
   3              		.eabi_attribute 20, 1
   4              		.eabi_attribute 21, 1
   5              		.eabi_attribute 23, 3
   6              		.eabi_attribute 24, 1
   7              		.eabi_attribute 25, 1
   8              		.eabi_attribute 26, 1
   9              		.eabi_attribute 30, 1
  10              		.eabi_attribute 34, 0
  11              		.eabi_attribute 18, 4
  12              		.code	16
  13              		.file	"DistTimer.c"
  14              		.text
  15              	.Ltext0:
  16              		.cfi_sections	.debug_frame
  17              		.section	.text.DistTimer_Enable,"ax",%progbits
  18              		.align	2
  19              		.global	DistTimer_Enable
  20              		.code	16
  21              		.thumb_func
  22              		.type	DistTimer_Enable, %function
  23              	DistTimer_Enable:
  24              	.LFB1:
  25              		.file 1 ".\\Generated_Source\\PSoC4\\DistTimer.c"
   1:.\Generated_Source\PSoC4/DistTimer.c **** /*******************************************************************************
   2:.\Generated_Source\PSoC4/DistTimer.c **** * File Name: DistTimer.c
   3:.\Generated_Source\PSoC4/DistTimer.c **** * Version 2.70
   4:.\Generated_Source\PSoC4/DistTimer.c **** *
   5:.\Generated_Source\PSoC4/DistTimer.c **** * Description:
   6:.\Generated_Source\PSoC4/DistTimer.c **** *  The Timer component consists of a 8, 16, 24 or 32-bit timer with
   7:.\Generated_Source\PSoC4/DistTimer.c **** *  a selectable period between 2 and 2^Width - 1.  The timer may free run
   8:.\Generated_Source\PSoC4/DistTimer.c **** *  or be used as a capture timer as well.  The capture can be initiated
   9:.\Generated_Source\PSoC4/DistTimer.c **** *  by a positive or negative edge signal as well as via software.
  10:.\Generated_Source\PSoC4/DistTimer.c **** *  A trigger input can be programmed to enable the timer on rising edge
  11:.\Generated_Source\PSoC4/DistTimer.c **** *  falling edge, either edge or continous run.
  12:.\Generated_Source\PSoC4/DistTimer.c **** *  Interrupts may be generated due to a terminal count condition
  13:.\Generated_Source\PSoC4/DistTimer.c **** *  or a capture event.
  14:.\Generated_Source\PSoC4/DistTimer.c **** *
  15:.\Generated_Source\PSoC4/DistTimer.c **** * Note:
  16:.\Generated_Source\PSoC4/DistTimer.c **** *
  17:.\Generated_Source\PSoC4/DistTimer.c **** ********************************************************************************
  18:.\Generated_Source\PSoC4/DistTimer.c **** * Copyright 2008-2014, Cypress Semiconductor Corporation.  All rights reserved.
  19:.\Generated_Source\PSoC4/DistTimer.c **** * You may use this file only in accordance with the license, terms, conditions,
  20:.\Generated_Source\PSoC4/DistTimer.c **** * disclaimers, and limitations in the end user license agreement accompanying
  21:.\Generated_Source\PSoC4/DistTimer.c **** * the software package with which this file was provided.
  22:.\Generated_Source\PSoC4/DistTimer.c **** ********************************************************************************/
  23:.\Generated_Source\PSoC4/DistTimer.c **** 
  24:.\Generated_Source\PSoC4/DistTimer.c **** #include "DistTimer.h"
  25:.\Generated_Source\PSoC4/DistTimer.c **** 
  26:.\Generated_Source\PSoC4/DistTimer.c **** uint8 DistTimer_initVar = 0u;
  27:.\Generated_Source\PSoC4/DistTimer.c **** 
  28:.\Generated_Source\PSoC4/DistTimer.c **** 
  29:.\Generated_Source\PSoC4/DistTimer.c **** /*******************************************************************************
  30:.\Generated_Source\PSoC4/DistTimer.c **** * Function Name: DistTimer_Init
  31:.\Generated_Source\PSoC4/DistTimer.c **** ********************************************************************************
  32:.\Generated_Source\PSoC4/DistTimer.c **** *
ARM GAS  C:\Users\Simon\AppData\Local\Temp\cc5Ie5pu.s 			page 2


  33:.\Generated_Source\PSoC4/DistTimer.c **** * Summary:
  34:.\Generated_Source\PSoC4/DistTimer.c **** *  Initialize to the schematic state
  35:.\Generated_Source\PSoC4/DistTimer.c **** *
  36:.\Generated_Source\PSoC4/DistTimer.c **** * Parameters:
  37:.\Generated_Source\PSoC4/DistTimer.c **** *  void
  38:.\Generated_Source\PSoC4/DistTimer.c **** *
  39:.\Generated_Source\PSoC4/DistTimer.c **** * Return:
  40:.\Generated_Source\PSoC4/DistTimer.c **** *  void
  41:.\Generated_Source\PSoC4/DistTimer.c **** *
  42:.\Generated_Source\PSoC4/DistTimer.c **** *******************************************************************************/
  43:.\Generated_Source\PSoC4/DistTimer.c **** void DistTimer_Init(void) 
  44:.\Generated_Source\PSoC4/DistTimer.c **** {
  45:.\Generated_Source\PSoC4/DistTimer.c ****     #if(!DistTimer_UsingFixedFunction)
  46:.\Generated_Source\PSoC4/DistTimer.c ****             /* Interrupt State Backup for Critical Region*/
  47:.\Generated_Source\PSoC4/DistTimer.c ****             uint8 DistTimer_interruptState;
  48:.\Generated_Source\PSoC4/DistTimer.c ****     #endif /* Interrupt state back up for Fixed Function only */
  49:.\Generated_Source\PSoC4/DistTimer.c **** 
  50:.\Generated_Source\PSoC4/DistTimer.c ****     #if (DistTimer_UsingFixedFunction)
  51:.\Generated_Source\PSoC4/DistTimer.c ****         /* Clear all bits but the enable bit (if it's already set) for Timer operation */
  52:.\Generated_Source\PSoC4/DistTimer.c ****         DistTimer_CONTROL &= DistTimer_CTRL_ENABLE;
  53:.\Generated_Source\PSoC4/DistTimer.c **** 
  54:.\Generated_Source\PSoC4/DistTimer.c ****         /* Clear the mode bits for continuous run mode */
  55:.\Generated_Source\PSoC4/DistTimer.c ****         #if (CY_PSOC5A)
  56:.\Generated_Source\PSoC4/DistTimer.c ****             DistTimer_CONTROL2 &= ((uint8)(~DistTimer_CTRL_MODE_MASK));
  57:.\Generated_Source\PSoC4/DistTimer.c ****         #endif /* Clear bits in CONTROL2 only in PSOC5A */
  58:.\Generated_Source\PSoC4/DistTimer.c **** 
  59:.\Generated_Source\PSoC4/DistTimer.c ****         #if (CY_PSOC3 || CY_PSOC5LP)
  60:.\Generated_Source\PSoC4/DistTimer.c ****             DistTimer_CONTROL3 &= ((uint8)(~DistTimer_CTRL_MODE_MASK));
  61:.\Generated_Source\PSoC4/DistTimer.c ****         #endif /* CONTROL3 register exists only in PSoC3 OR PSoC5LP */
  62:.\Generated_Source\PSoC4/DistTimer.c **** 
  63:.\Generated_Source\PSoC4/DistTimer.c ****         /* Check if One Shot mode is enabled i.e. RunMode !=0*/
  64:.\Generated_Source\PSoC4/DistTimer.c ****         #if (DistTimer_RunModeUsed != 0x0u)
  65:.\Generated_Source\PSoC4/DistTimer.c ****             /* Set 3rd bit of Control register to enable one shot mode */
  66:.\Generated_Source\PSoC4/DistTimer.c ****             DistTimer_CONTROL |= 0x04u;
  67:.\Generated_Source\PSoC4/DistTimer.c ****         #endif /* One Shot enabled only when RunModeUsed is not Continuous*/
  68:.\Generated_Source\PSoC4/DistTimer.c **** 
  69:.\Generated_Source\PSoC4/DistTimer.c ****         #if (DistTimer_RunModeUsed == 2)
  70:.\Generated_Source\PSoC4/DistTimer.c ****             #if (CY_PSOC5A)
  71:.\Generated_Source\PSoC4/DistTimer.c ****                 /* Set last 2 bits of control2 register if one shot(halt on
  72:.\Generated_Source\PSoC4/DistTimer.c ****                 interrupt) is enabled*/
  73:.\Generated_Source\PSoC4/DistTimer.c ****                 DistTimer_CONTROL2 |= 0x03u;
  74:.\Generated_Source\PSoC4/DistTimer.c ****             #endif /* Set One-Shot Halt on Interrupt bit in CONTROL2 for PSoC5A */
  75:.\Generated_Source\PSoC4/DistTimer.c **** 
  76:.\Generated_Source\PSoC4/DistTimer.c ****             #if (CY_PSOC3 || CY_PSOC5LP)
  77:.\Generated_Source\PSoC4/DistTimer.c ****                 /* Set last 2 bits of control3 register if one shot(halt on
  78:.\Generated_Source\PSoC4/DistTimer.c ****                 interrupt) is enabled*/
  79:.\Generated_Source\PSoC4/DistTimer.c ****                 DistTimer_CONTROL3 |= 0x03u;
  80:.\Generated_Source\PSoC4/DistTimer.c ****             #endif /* Set One-Shot Halt on Interrupt bit in CONTROL3 for PSoC3 or PSoC5LP */
  81:.\Generated_Source\PSoC4/DistTimer.c **** 
  82:.\Generated_Source\PSoC4/DistTimer.c ****         #endif /* Remove section if One Shot Halt on Interrupt is not enabled */
  83:.\Generated_Source\PSoC4/DistTimer.c **** 
  84:.\Generated_Source\PSoC4/DistTimer.c ****         #if (DistTimer_UsingHWEnable != 0)
  85:.\Generated_Source\PSoC4/DistTimer.c ****             #if (CY_PSOC5A)
  86:.\Generated_Source\PSoC4/DistTimer.c ****                 /* Set the default Run Mode of the Timer to Continuous */
  87:.\Generated_Source\PSoC4/DistTimer.c ****                 DistTimer_CONTROL2 |= DistTimer_CTRL_MODE_PULSEWIDTH;
  88:.\Generated_Source\PSoC4/DistTimer.c ****             #endif /* Set Continuous Run Mode in CONTROL2 for PSoC5A */
  89:.\Generated_Source\PSoC4/DistTimer.c **** 
ARM GAS  C:\Users\Simon\AppData\Local\Temp\cc5Ie5pu.s 			page 3


  90:.\Generated_Source\PSoC4/DistTimer.c ****             #if (CY_PSOC3 || CY_PSOC5LP)
  91:.\Generated_Source\PSoC4/DistTimer.c ****                 /* Clear and Set ROD and COD bits of CFG2 register */
  92:.\Generated_Source\PSoC4/DistTimer.c ****                 DistTimer_CONTROL3 &= ((uint8)(~DistTimer_CTRL_RCOD_MASK));
  93:.\Generated_Source\PSoC4/DistTimer.c ****                 DistTimer_CONTROL3 |= DistTimer_CTRL_RCOD;
  94:.\Generated_Source\PSoC4/DistTimer.c **** 
  95:.\Generated_Source\PSoC4/DistTimer.c ****                 /* Clear and Enable the HW enable bit in CFG2 register */
  96:.\Generated_Source\PSoC4/DistTimer.c ****                 DistTimer_CONTROL3 &= ((uint8)(~DistTimer_CTRL_ENBL_MASK));
  97:.\Generated_Source\PSoC4/DistTimer.c ****                 DistTimer_CONTROL3 |= DistTimer_CTRL_ENBL;
  98:.\Generated_Source\PSoC4/DistTimer.c **** 
  99:.\Generated_Source\PSoC4/DistTimer.c ****                 /* Set the default Run Mode of the Timer to Continuous */
 100:.\Generated_Source\PSoC4/DistTimer.c ****                 DistTimer_CONTROL3 |= DistTimer_CTRL_MODE_CONTINUOUS;
 101:.\Generated_Source\PSoC4/DistTimer.c ****             #endif /* Set Continuous Run Mode in CONTROL3 for PSoC3ES3 or PSoC5A */
 102:.\Generated_Source\PSoC4/DistTimer.c **** 
 103:.\Generated_Source\PSoC4/DistTimer.c ****         #endif /* Configure Run Mode with hardware enable */
 104:.\Generated_Source\PSoC4/DistTimer.c **** 
 105:.\Generated_Source\PSoC4/DistTimer.c ****         /* Clear and Set SYNCTC and SYNCCMP bits of RT1 register */
 106:.\Generated_Source\PSoC4/DistTimer.c ****         DistTimer_RT1 &= ((uint8)(~DistTimer_RT1_MASK));
 107:.\Generated_Source\PSoC4/DistTimer.c ****         DistTimer_RT1 |= DistTimer_SYNC;
 108:.\Generated_Source\PSoC4/DistTimer.c **** 
 109:.\Generated_Source\PSoC4/DistTimer.c ****         /*Enable DSI Sync all all inputs of the Timer*/
 110:.\Generated_Source\PSoC4/DistTimer.c ****         DistTimer_RT1 &= ((uint8)(~DistTimer_SYNCDSI_MASK));
 111:.\Generated_Source\PSoC4/DistTimer.c ****         DistTimer_RT1 |= DistTimer_SYNCDSI_EN;
 112:.\Generated_Source\PSoC4/DistTimer.c **** 
 113:.\Generated_Source\PSoC4/DistTimer.c ****         /* Set the IRQ to use the status register interrupts */
 114:.\Generated_Source\PSoC4/DistTimer.c ****         DistTimer_CONTROL2 |= DistTimer_CTRL2_IRQ_SEL;
 115:.\Generated_Source\PSoC4/DistTimer.c ****     #endif /* Configuring registers of fixed function implementation */
 116:.\Generated_Source\PSoC4/DistTimer.c **** 
 117:.\Generated_Source\PSoC4/DistTimer.c ****     /* Set Initial values from Configuration */
 118:.\Generated_Source\PSoC4/DistTimer.c ****     DistTimer_WritePeriod(DistTimer_INIT_PERIOD);
 119:.\Generated_Source\PSoC4/DistTimer.c ****     DistTimer_WriteCounter(DistTimer_INIT_PERIOD);
 120:.\Generated_Source\PSoC4/DistTimer.c **** 
 121:.\Generated_Source\PSoC4/DistTimer.c ****     #if (DistTimer_UsingHWCaptureCounter)/* Capture counter is enabled */
 122:.\Generated_Source\PSoC4/DistTimer.c ****         DistTimer_CAPTURE_COUNT_CTRL |= DistTimer_CNTR_ENABLE;
 123:.\Generated_Source\PSoC4/DistTimer.c ****         DistTimer_SetCaptureCount(DistTimer_INIT_CAPTURE_COUNT);
 124:.\Generated_Source\PSoC4/DistTimer.c ****     #endif /* Configure capture counter value */
 125:.\Generated_Source\PSoC4/DistTimer.c **** 
 126:.\Generated_Source\PSoC4/DistTimer.c ****     #if (!DistTimer_UsingFixedFunction)
 127:.\Generated_Source\PSoC4/DistTimer.c ****         #if (DistTimer_SoftwareCaptureMode)
 128:.\Generated_Source\PSoC4/DistTimer.c ****             DistTimer_SetCaptureMode(DistTimer_INIT_CAPTURE_MODE);
 129:.\Generated_Source\PSoC4/DistTimer.c ****         #endif /* Set Capture Mode for UDB implementation if capture mode is software controlled */
 130:.\Generated_Source\PSoC4/DistTimer.c **** 
 131:.\Generated_Source\PSoC4/DistTimer.c ****         #if (DistTimer_SoftwareTriggerMode)
 132:.\Generated_Source\PSoC4/DistTimer.c ****             #if (!DistTimer_UDB_CONTROL_REG_REMOVED)
 133:.\Generated_Source\PSoC4/DistTimer.c ****                 if (0u == (DistTimer_CONTROL & DistTimer__B_TIMER__TM_SOFTWARE))
 134:.\Generated_Source\PSoC4/DistTimer.c ****                 {
 135:.\Generated_Source\PSoC4/DistTimer.c ****                     DistTimer_SetTriggerMode(DistTimer_INIT_TRIGGER_MODE);
 136:.\Generated_Source\PSoC4/DistTimer.c ****                 }
 137:.\Generated_Source\PSoC4/DistTimer.c ****             #endif /* (!DistTimer_UDB_CONTROL_REG_REMOVED) */
 138:.\Generated_Source\PSoC4/DistTimer.c ****         #endif /* Set trigger mode for UDB Implementation if trigger mode is software controlled */
 139:.\Generated_Source\PSoC4/DistTimer.c **** 
 140:.\Generated_Source\PSoC4/DistTimer.c ****         /* CyEnterCriticalRegion and CyExitCriticalRegion are used to mark following region critica
 141:.\Generated_Source\PSoC4/DistTimer.c ****         /* Enter Critical Region*/
 142:.\Generated_Source\PSoC4/DistTimer.c ****         DistTimer_interruptState = CyEnterCriticalSection();
 143:.\Generated_Source\PSoC4/DistTimer.c **** 
 144:.\Generated_Source\PSoC4/DistTimer.c ****         /* Use the interrupt output of the status register for IRQ output */
 145:.\Generated_Source\PSoC4/DistTimer.c ****         DistTimer_STATUS_AUX_CTRL |= DistTimer_STATUS_ACTL_INT_EN_MASK;
 146:.\Generated_Source\PSoC4/DistTimer.c **** 
ARM GAS  C:\Users\Simon\AppData\Local\Temp\cc5Ie5pu.s 			page 4


 147:.\Generated_Source\PSoC4/DistTimer.c ****         /* Exit Critical Region*/
 148:.\Generated_Source\PSoC4/DistTimer.c ****         CyExitCriticalSection(DistTimer_interruptState);
 149:.\Generated_Source\PSoC4/DistTimer.c **** 
 150:.\Generated_Source\PSoC4/DistTimer.c ****         #if (DistTimer_EnableTriggerMode)
 151:.\Generated_Source\PSoC4/DistTimer.c ****             DistTimer_EnableTrigger();
 152:.\Generated_Source\PSoC4/DistTimer.c ****         #endif /* Set Trigger enable bit for UDB implementation in the control register*/
 153:.\Generated_Source\PSoC4/DistTimer.c **** 		
 154:.\Generated_Source\PSoC4/DistTimer.c **** 		
 155:.\Generated_Source\PSoC4/DistTimer.c ****         #if (DistTimer_InterruptOnCaptureCount && !DistTimer_UDB_CONTROL_REG_REMOVED)
 156:.\Generated_Source\PSoC4/DistTimer.c ****             DistTimer_SetInterruptCount(DistTimer_INIT_INT_CAPTURE_COUNT);
 157:.\Generated_Source\PSoC4/DistTimer.c ****         #endif /* Set interrupt count in UDB implementation if interrupt count feature is checked.*
 158:.\Generated_Source\PSoC4/DistTimer.c **** 
 159:.\Generated_Source\PSoC4/DistTimer.c ****         DistTimer_ClearFIFO();
 160:.\Generated_Source\PSoC4/DistTimer.c ****     #endif /* Configure additional features of UDB implementation */
 161:.\Generated_Source\PSoC4/DistTimer.c **** 
 162:.\Generated_Source\PSoC4/DistTimer.c ****     DistTimer_SetInterruptMode(DistTimer_INIT_INTERRUPT_MODE);
 163:.\Generated_Source\PSoC4/DistTimer.c **** }
 164:.\Generated_Source\PSoC4/DistTimer.c **** 
 165:.\Generated_Source\PSoC4/DistTimer.c **** 
 166:.\Generated_Source\PSoC4/DistTimer.c **** /*******************************************************************************
 167:.\Generated_Source\PSoC4/DistTimer.c **** * Function Name: DistTimer_Enable
 168:.\Generated_Source\PSoC4/DistTimer.c **** ********************************************************************************
 169:.\Generated_Source\PSoC4/DistTimer.c **** *
 170:.\Generated_Source\PSoC4/DistTimer.c **** * Summary:
 171:.\Generated_Source\PSoC4/DistTimer.c **** *  Enable the Timer
 172:.\Generated_Source\PSoC4/DistTimer.c **** *
 173:.\Generated_Source\PSoC4/DistTimer.c **** * Parameters:
 174:.\Generated_Source\PSoC4/DistTimer.c **** *  void
 175:.\Generated_Source\PSoC4/DistTimer.c **** *
 176:.\Generated_Source\PSoC4/DistTimer.c **** * Return:
 177:.\Generated_Source\PSoC4/DistTimer.c **** *  void
 178:.\Generated_Source\PSoC4/DistTimer.c **** *
 179:.\Generated_Source\PSoC4/DistTimer.c **** *******************************************************************************/
 180:.\Generated_Source\PSoC4/DistTimer.c **** void DistTimer_Enable(void) 
 181:.\Generated_Source\PSoC4/DistTimer.c **** {
  26              		.loc 1 181 0
  27              		.cfi_startproc
 182:.\Generated_Source\PSoC4/DistTimer.c ****     /* Globally Enable the Fixed Function Block chosen */
 183:.\Generated_Source\PSoC4/DistTimer.c ****     #if (DistTimer_UsingFixedFunction)
 184:.\Generated_Source\PSoC4/DistTimer.c ****         DistTimer_GLOBAL_ENABLE |= DistTimer_BLOCK_EN_MASK;
 185:.\Generated_Source\PSoC4/DistTimer.c ****         DistTimer_GLOBAL_STBY_ENABLE |= DistTimer_BLOCK_STBY_EN_MASK;
 186:.\Generated_Source\PSoC4/DistTimer.c ****     #endif /* Set Enable bit for enabling Fixed function timer*/
 187:.\Generated_Source\PSoC4/DistTimer.c **** 
 188:.\Generated_Source\PSoC4/DistTimer.c ****     /* Remove assignment if control register is removed */
 189:.\Generated_Source\PSoC4/DistTimer.c ****     #if (!DistTimer_UDB_CONTROL_REG_REMOVED || DistTimer_UsingFixedFunction)
 190:.\Generated_Source\PSoC4/DistTimer.c ****         DistTimer_CONTROL |= DistTimer_CTRL_ENABLE;
 191:.\Generated_Source\PSoC4/DistTimer.c ****     #endif /* Remove assignment if control register is removed */
 192:.\Generated_Source\PSoC4/DistTimer.c **** }
  28              		.loc 1 192 0
  29              		@ sp needed
  30 0000 7047     		bx	lr
  31              		.cfi_endproc
  32              	.LFE1:
  33              		.size	DistTimer_Enable, .-DistTimer_Enable
  34 0002 C046     		.section	.text.DistTimer_Stop,"ax",%progbits
  35              		.align	2
  36              		.global	DistTimer_Stop
ARM GAS  C:\Users\Simon\AppData\Local\Temp\cc5Ie5pu.s 			page 5


  37              		.code	16
  38              		.thumb_func
  39              		.type	DistTimer_Stop, %function
  40              	DistTimer_Stop:
  41              	.LFB3:
 193:.\Generated_Source\PSoC4/DistTimer.c **** 
 194:.\Generated_Source\PSoC4/DistTimer.c **** 
 195:.\Generated_Source\PSoC4/DistTimer.c **** /*******************************************************************************
 196:.\Generated_Source\PSoC4/DistTimer.c **** * Function Name: DistTimer_Start
 197:.\Generated_Source\PSoC4/DistTimer.c **** ********************************************************************************
 198:.\Generated_Source\PSoC4/DistTimer.c **** *
 199:.\Generated_Source\PSoC4/DistTimer.c **** * Summary:
 200:.\Generated_Source\PSoC4/DistTimer.c **** *  The start function initializes the timer with the default values, the
 201:.\Generated_Source\PSoC4/DistTimer.c **** *  enables the timerto begin counting.  It does not enable interrupts,
 202:.\Generated_Source\PSoC4/DistTimer.c **** *  the EnableInt command should be called if interrupt generation is required.
 203:.\Generated_Source\PSoC4/DistTimer.c **** *
 204:.\Generated_Source\PSoC4/DistTimer.c **** * Parameters:
 205:.\Generated_Source\PSoC4/DistTimer.c **** *  void
 206:.\Generated_Source\PSoC4/DistTimer.c **** *
 207:.\Generated_Source\PSoC4/DistTimer.c **** * Return:
 208:.\Generated_Source\PSoC4/DistTimer.c **** *  void
 209:.\Generated_Source\PSoC4/DistTimer.c **** *
 210:.\Generated_Source\PSoC4/DistTimer.c **** * Global variables:
 211:.\Generated_Source\PSoC4/DistTimer.c **** *  DistTimer_initVar: Is modified when this function is called for the
 212:.\Generated_Source\PSoC4/DistTimer.c **** *   first time. Is used to ensure that initialization happens only once.
 213:.\Generated_Source\PSoC4/DistTimer.c **** *
 214:.\Generated_Source\PSoC4/DistTimer.c **** *******************************************************************************/
 215:.\Generated_Source\PSoC4/DistTimer.c **** void DistTimer_Start(void) 
 216:.\Generated_Source\PSoC4/DistTimer.c **** {
 217:.\Generated_Source\PSoC4/DistTimer.c ****     if(DistTimer_initVar == 0u)
 218:.\Generated_Source\PSoC4/DistTimer.c ****     {
 219:.\Generated_Source\PSoC4/DistTimer.c ****         DistTimer_Init();
 220:.\Generated_Source\PSoC4/DistTimer.c **** 
 221:.\Generated_Source\PSoC4/DistTimer.c ****         DistTimer_initVar = 1u;   /* Clear this bit for Initialization */
 222:.\Generated_Source\PSoC4/DistTimer.c ****     }
 223:.\Generated_Source\PSoC4/DistTimer.c **** 
 224:.\Generated_Source\PSoC4/DistTimer.c ****     /* Enable the Timer */
 225:.\Generated_Source\PSoC4/DistTimer.c ****     DistTimer_Enable();
 226:.\Generated_Source\PSoC4/DistTimer.c **** }
 227:.\Generated_Source\PSoC4/DistTimer.c **** 
 228:.\Generated_Source\PSoC4/DistTimer.c **** 
 229:.\Generated_Source\PSoC4/DistTimer.c **** /*******************************************************************************
 230:.\Generated_Source\PSoC4/DistTimer.c **** * Function Name: DistTimer_Stop
 231:.\Generated_Source\PSoC4/DistTimer.c **** ********************************************************************************
 232:.\Generated_Source\PSoC4/DistTimer.c **** *
 233:.\Generated_Source\PSoC4/DistTimer.c **** * Summary:
 234:.\Generated_Source\PSoC4/DistTimer.c **** *  The stop function halts the timer, but does not change any modes or disable
 235:.\Generated_Source\PSoC4/DistTimer.c **** *  interrupts.
 236:.\Generated_Source\PSoC4/DistTimer.c **** *
 237:.\Generated_Source\PSoC4/DistTimer.c **** * Parameters:
 238:.\Generated_Source\PSoC4/DistTimer.c **** *  void
 239:.\Generated_Source\PSoC4/DistTimer.c **** *
 240:.\Generated_Source\PSoC4/DistTimer.c **** * Return:
 241:.\Generated_Source\PSoC4/DistTimer.c **** *  void
 242:.\Generated_Source\PSoC4/DistTimer.c **** *
 243:.\Generated_Source\PSoC4/DistTimer.c **** * Side Effects: If the Enable mode is set to Hardware only then this function
 244:.\Generated_Source\PSoC4/DistTimer.c **** *               has no effect on the operation of the timer.
ARM GAS  C:\Users\Simon\AppData\Local\Temp\cc5Ie5pu.s 			page 6


 245:.\Generated_Source\PSoC4/DistTimer.c **** *
 246:.\Generated_Source\PSoC4/DistTimer.c **** *******************************************************************************/
 247:.\Generated_Source\PSoC4/DistTimer.c **** void DistTimer_Stop(void) 
 248:.\Generated_Source\PSoC4/DistTimer.c **** {
  42              		.loc 1 248 0
  43              		.cfi_startproc
 249:.\Generated_Source\PSoC4/DistTimer.c ****     /* Disable Timer */
 250:.\Generated_Source\PSoC4/DistTimer.c ****     #if(!DistTimer_UDB_CONTROL_REG_REMOVED || DistTimer_UsingFixedFunction)
 251:.\Generated_Source\PSoC4/DistTimer.c ****         DistTimer_CONTROL &= ((uint8)(~DistTimer_CTRL_ENABLE));
 252:.\Generated_Source\PSoC4/DistTimer.c ****     #endif /* Remove assignment if control register is removed */
 253:.\Generated_Source\PSoC4/DistTimer.c **** 
 254:.\Generated_Source\PSoC4/DistTimer.c ****     /* Globally disable the Fixed Function Block chosen */
 255:.\Generated_Source\PSoC4/DistTimer.c ****     #if (DistTimer_UsingFixedFunction)
 256:.\Generated_Source\PSoC4/DistTimer.c ****         DistTimer_GLOBAL_ENABLE &= ((uint8)(~DistTimer_BLOCK_EN_MASK));
 257:.\Generated_Source\PSoC4/DistTimer.c ****         DistTimer_GLOBAL_STBY_ENABLE &= ((uint8)(~DistTimer_BLOCK_STBY_EN_MASK));
 258:.\Generated_Source\PSoC4/DistTimer.c ****     #endif /* Disable global enable for the Timer Fixed function block to stop the Timer*/
 259:.\Generated_Source\PSoC4/DistTimer.c **** }
  44              		.loc 1 259 0
  45              		@ sp needed
  46 0000 7047     		bx	lr
  47              		.cfi_endproc
  48              	.LFE3:
  49              		.size	DistTimer_Stop, .-DistTimer_Stop
  50 0002 C046     		.section	.text.DistTimer_SetInterruptMode,"ax",%progbits
  51              		.align	2
  52              		.global	DistTimer_SetInterruptMode
  53              		.code	16
  54              		.thumb_func
  55              		.type	DistTimer_SetInterruptMode, %function
  56              	DistTimer_SetInterruptMode:
  57              	.LFB4:
 260:.\Generated_Source\PSoC4/DistTimer.c **** 
 261:.\Generated_Source\PSoC4/DistTimer.c **** 
 262:.\Generated_Source\PSoC4/DistTimer.c **** /*******************************************************************************
 263:.\Generated_Source\PSoC4/DistTimer.c **** * Function Name: DistTimer_SetInterruptMode
 264:.\Generated_Source\PSoC4/DistTimer.c **** ********************************************************************************
 265:.\Generated_Source\PSoC4/DistTimer.c **** *
 266:.\Generated_Source\PSoC4/DistTimer.c **** * Summary:
 267:.\Generated_Source\PSoC4/DistTimer.c **** *  This function selects which of the interrupt inputs may cause an interrupt.
 268:.\Generated_Source\PSoC4/DistTimer.c **** *  The twosources are caputure and terminal.  One, both or neither may
 269:.\Generated_Source\PSoC4/DistTimer.c **** *  be selected.
 270:.\Generated_Source\PSoC4/DistTimer.c **** *
 271:.\Generated_Source\PSoC4/DistTimer.c **** * Parameters:
 272:.\Generated_Source\PSoC4/DistTimer.c **** *  interruptMode:   This parameter is used to enable interrups on either/or
 273:.\Generated_Source\PSoC4/DistTimer.c **** *                   terminal count or capture.
 274:.\Generated_Source\PSoC4/DistTimer.c **** *
 275:.\Generated_Source\PSoC4/DistTimer.c **** * Return:
 276:.\Generated_Source\PSoC4/DistTimer.c **** *  void
 277:.\Generated_Source\PSoC4/DistTimer.c **** *
 278:.\Generated_Source\PSoC4/DistTimer.c **** *******************************************************************************/
 279:.\Generated_Source\PSoC4/DistTimer.c **** void DistTimer_SetInterruptMode(uint8 interruptMode) 
 280:.\Generated_Source\PSoC4/DistTimer.c **** {
  58              		.loc 1 280 0
  59              		.cfi_startproc
  60              	.LVL0:
 281:.\Generated_Source\PSoC4/DistTimer.c ****     DistTimer_STATUS_MASK = interruptMode;
  61              		.loc 1 281 0
ARM GAS  C:\Users\Simon\AppData\Local\Temp\cc5Ie5pu.s 			page 7


  62 0000 014B     		ldr	r3, .L4
  63 0002 1870     		strb	r0, [r3]
 282:.\Generated_Source\PSoC4/DistTimer.c **** }
  64              		.loc 1 282 0
  65              		@ sp needed
  66 0004 7047     		bx	lr
  67              	.L5:
  68 0006 C046     		.align	2
  69              	.L4:
  70 0008 81000F40 		.word	1074724993
  71              		.cfi_endproc
  72              	.LFE4:
  73              		.size	DistTimer_SetInterruptMode, .-DistTimer_SetInterruptMode
  74              		.section	.text.DistTimer_SoftwareCapture,"ax",%progbits
  75              		.align	2
  76              		.global	DistTimer_SoftwareCapture
  77              		.code	16
  78              		.thumb_func
  79              		.type	DistTimer_SoftwareCapture, %function
  80              	DistTimer_SoftwareCapture:
  81              	.LFB5:
 283:.\Generated_Source\PSoC4/DistTimer.c **** 
 284:.\Generated_Source\PSoC4/DistTimer.c **** 
 285:.\Generated_Source\PSoC4/DistTimer.c **** /*******************************************************************************
 286:.\Generated_Source\PSoC4/DistTimer.c **** * Function Name: DistTimer_SoftwareCapture
 287:.\Generated_Source\PSoC4/DistTimer.c **** ********************************************************************************
 288:.\Generated_Source\PSoC4/DistTimer.c **** *
 289:.\Generated_Source\PSoC4/DistTimer.c **** * Summary:
 290:.\Generated_Source\PSoC4/DistTimer.c **** *  This function forces a capture independent of the capture signal.
 291:.\Generated_Source\PSoC4/DistTimer.c **** *
 292:.\Generated_Source\PSoC4/DistTimer.c **** * Parameters:
 293:.\Generated_Source\PSoC4/DistTimer.c **** *  void
 294:.\Generated_Source\PSoC4/DistTimer.c **** *
 295:.\Generated_Source\PSoC4/DistTimer.c **** * Return:
 296:.\Generated_Source\PSoC4/DistTimer.c **** *  void
 297:.\Generated_Source\PSoC4/DistTimer.c **** *
 298:.\Generated_Source\PSoC4/DistTimer.c **** * Side Effects:
 299:.\Generated_Source\PSoC4/DistTimer.c **** *  An existing hardware capture could be overwritten.
 300:.\Generated_Source\PSoC4/DistTimer.c **** *
 301:.\Generated_Source\PSoC4/DistTimer.c **** *******************************************************************************/
 302:.\Generated_Source\PSoC4/DistTimer.c **** void DistTimer_SoftwareCapture(void) 
 303:.\Generated_Source\PSoC4/DistTimer.c **** {
  82              		.loc 1 303 0
  83              		.cfi_startproc
 304:.\Generated_Source\PSoC4/DistTimer.c ****     /* Generate a software capture by reading the counter register */
 305:.\Generated_Source\PSoC4/DistTimer.c ****     #if(DistTimer_UsingFixedFunction)
 306:.\Generated_Source\PSoC4/DistTimer.c ****         (void)CY_GET_REG16(DistTimer_COUNTER_LSB_PTR);
 307:.\Generated_Source\PSoC4/DistTimer.c ****     #else
 308:.\Generated_Source\PSoC4/DistTimer.c ****         (void)CY_GET_REG8(DistTimer_COUNTER_LSB_PTR_8BIT);
  84              		.loc 1 308 0
  85 0000 014B     		ldr	r3, .L7
  86 0002 1B78     		ldrb	r3, [r3]
 309:.\Generated_Source\PSoC4/DistTimer.c ****     #endif/* (DistTimer_UsingFixedFunction) */
 310:.\Generated_Source\PSoC4/DistTimer.c ****     /* Capture Data is now in the FIFO */
 311:.\Generated_Source\PSoC4/DistTimer.c **** }
  87              		.loc 1 311 0
  88              		@ sp needed
ARM GAS  C:\Users\Simon\AppData\Local\Temp\cc5Ie5pu.s 			page 8


  89 0004 7047     		bx	lr
  90              	.L8:
  91 0006 C046     		.align	2
  92              	.L7:
  93 0008 00000F40 		.word	1074724864
  94              		.cfi_endproc
  95              	.LFE5:
  96              		.size	DistTimer_SoftwareCapture, .-DistTimer_SoftwareCapture
  97              		.section	.text.DistTimer_ReadStatusRegister,"ax",%progbits
  98              		.align	2
  99              		.global	DistTimer_ReadStatusRegister
 100              		.code	16
 101              		.thumb_func
 102              		.type	DistTimer_ReadStatusRegister, %function
 103              	DistTimer_ReadStatusRegister:
 104              	.LFB6:
 312:.\Generated_Source\PSoC4/DistTimer.c **** 
 313:.\Generated_Source\PSoC4/DistTimer.c **** 
 314:.\Generated_Source\PSoC4/DistTimer.c **** /*******************************************************************************
 315:.\Generated_Source\PSoC4/DistTimer.c **** * Function Name: DistTimer_ReadStatusRegister
 316:.\Generated_Source\PSoC4/DistTimer.c **** ********************************************************************************
 317:.\Generated_Source\PSoC4/DistTimer.c **** *
 318:.\Generated_Source\PSoC4/DistTimer.c **** * Summary:
 319:.\Generated_Source\PSoC4/DistTimer.c **** *  Reads the status register and returns it's state. This function should use
 320:.\Generated_Source\PSoC4/DistTimer.c **** *  defined types for the bit-field information as the bits in this register may
 321:.\Generated_Source\PSoC4/DistTimer.c **** *  be permuteable.
 322:.\Generated_Source\PSoC4/DistTimer.c **** *
 323:.\Generated_Source\PSoC4/DistTimer.c **** * Parameters:
 324:.\Generated_Source\PSoC4/DistTimer.c **** *  void
 325:.\Generated_Source\PSoC4/DistTimer.c **** *
 326:.\Generated_Source\PSoC4/DistTimer.c **** * Return:
 327:.\Generated_Source\PSoC4/DistTimer.c **** *  The contents of the status register
 328:.\Generated_Source\PSoC4/DistTimer.c **** *
 329:.\Generated_Source\PSoC4/DistTimer.c **** * Side Effects:
 330:.\Generated_Source\PSoC4/DistTimer.c **** *  Status register bits may be clear on read.
 331:.\Generated_Source\PSoC4/DistTimer.c **** *
 332:.\Generated_Source\PSoC4/DistTimer.c **** *******************************************************************************/
 333:.\Generated_Source\PSoC4/DistTimer.c **** uint8   DistTimer_ReadStatusRegister(void) 
 334:.\Generated_Source\PSoC4/DistTimer.c **** {
 105              		.loc 1 334 0
 106              		.cfi_startproc
 335:.\Generated_Source\PSoC4/DistTimer.c ****     return (DistTimer_STATUS);
 107              		.loc 1 335 0
 108 0000 014B     		ldr	r3, .L10
 109 0002 1878     		ldrb	r0, [r3]
 110 0004 C0B2     		uxtb	r0, r0
 336:.\Generated_Source\PSoC4/DistTimer.c **** }
 111              		.loc 1 336 0
 112              		@ sp needed
 113 0006 7047     		bx	lr
 114              	.L11:
 115              		.align	2
 116              	.L10:
 117 0008 61000F40 		.word	1074724961
 118              		.cfi_endproc
 119              	.LFE6:
 120              		.size	DistTimer_ReadStatusRegister, .-DistTimer_ReadStatusRegister
ARM GAS  C:\Users\Simon\AppData\Local\Temp\cc5Ie5pu.s 			page 9


 121              		.section	.text.DistTimer_ReadPeriod,"ax",%progbits
 122              		.align	2
 123              		.global	DistTimer_ReadPeriod
 124              		.code	16
 125              		.thumb_func
 126              		.type	DistTimer_ReadPeriod, %function
 127              	DistTimer_ReadPeriod:
 128              	.LFB7:
 337:.\Generated_Source\PSoC4/DistTimer.c **** 
 338:.\Generated_Source\PSoC4/DistTimer.c **** 
 339:.\Generated_Source\PSoC4/DistTimer.c **** #if (!DistTimer_UDB_CONTROL_REG_REMOVED) /* Remove API if control register is unused */
 340:.\Generated_Source\PSoC4/DistTimer.c **** 
 341:.\Generated_Source\PSoC4/DistTimer.c **** 
 342:.\Generated_Source\PSoC4/DistTimer.c **** /*******************************************************************************
 343:.\Generated_Source\PSoC4/DistTimer.c **** * Function Name: DistTimer_ReadControlRegister
 344:.\Generated_Source\PSoC4/DistTimer.c **** ********************************************************************************
 345:.\Generated_Source\PSoC4/DistTimer.c **** *
 346:.\Generated_Source\PSoC4/DistTimer.c **** * Summary:
 347:.\Generated_Source\PSoC4/DistTimer.c **** *  Reads the control register and returns it's value.
 348:.\Generated_Source\PSoC4/DistTimer.c **** *
 349:.\Generated_Source\PSoC4/DistTimer.c **** * Parameters:
 350:.\Generated_Source\PSoC4/DistTimer.c **** *  void
 351:.\Generated_Source\PSoC4/DistTimer.c **** *
 352:.\Generated_Source\PSoC4/DistTimer.c **** * Return:
 353:.\Generated_Source\PSoC4/DistTimer.c **** *  The contents of the control register
 354:.\Generated_Source\PSoC4/DistTimer.c **** *
 355:.\Generated_Source\PSoC4/DistTimer.c **** *******************************************************************************/
 356:.\Generated_Source\PSoC4/DistTimer.c **** uint8 DistTimer_ReadControlRegister(void) 
 357:.\Generated_Source\PSoC4/DistTimer.c **** {
 358:.\Generated_Source\PSoC4/DistTimer.c ****     #if (!DistTimer_UDB_CONTROL_REG_REMOVED) 
 359:.\Generated_Source\PSoC4/DistTimer.c ****         return ((uint8)DistTimer_CONTROL);
 360:.\Generated_Source\PSoC4/DistTimer.c ****     #else
 361:.\Generated_Source\PSoC4/DistTimer.c ****         return (0);
 362:.\Generated_Source\PSoC4/DistTimer.c ****     #endif /* (!DistTimer_UDB_CONTROL_REG_REMOVED) */
 363:.\Generated_Source\PSoC4/DistTimer.c **** }
 364:.\Generated_Source\PSoC4/DistTimer.c **** 
 365:.\Generated_Source\PSoC4/DistTimer.c **** 
 366:.\Generated_Source\PSoC4/DistTimer.c **** /*******************************************************************************
 367:.\Generated_Source\PSoC4/DistTimer.c **** * Function Name: DistTimer_WriteControlRegister
 368:.\Generated_Source\PSoC4/DistTimer.c **** ********************************************************************************
 369:.\Generated_Source\PSoC4/DistTimer.c **** *
 370:.\Generated_Source\PSoC4/DistTimer.c **** * Summary:
 371:.\Generated_Source\PSoC4/DistTimer.c **** *  Sets the bit-field of the control register.
 372:.\Generated_Source\PSoC4/DistTimer.c **** *
 373:.\Generated_Source\PSoC4/DistTimer.c **** * Parameters:
 374:.\Generated_Source\PSoC4/DistTimer.c **** *  control: The contents of the control register
 375:.\Generated_Source\PSoC4/DistTimer.c **** *
 376:.\Generated_Source\PSoC4/DistTimer.c **** * Return:
 377:.\Generated_Source\PSoC4/DistTimer.c **** *
 378:.\Generated_Source\PSoC4/DistTimer.c **** *******************************************************************************/
 379:.\Generated_Source\PSoC4/DistTimer.c **** void DistTimer_WriteControlRegister(uint8 control) 
 380:.\Generated_Source\PSoC4/DistTimer.c **** {
 381:.\Generated_Source\PSoC4/DistTimer.c ****     #if (!DistTimer_UDB_CONTROL_REG_REMOVED) 
 382:.\Generated_Source\PSoC4/DistTimer.c ****         DistTimer_CONTROL = control;
 383:.\Generated_Source\PSoC4/DistTimer.c ****     #else
 384:.\Generated_Source\PSoC4/DistTimer.c ****         control = 0u;
 385:.\Generated_Source\PSoC4/DistTimer.c ****     #endif /* (!DistTimer_UDB_CONTROL_REG_REMOVED) */
ARM GAS  C:\Users\Simon\AppData\Local\Temp\cc5Ie5pu.s 			page 10


 386:.\Generated_Source\PSoC4/DistTimer.c **** }
 387:.\Generated_Source\PSoC4/DistTimer.c **** 
 388:.\Generated_Source\PSoC4/DistTimer.c **** #endif /* Remove API if control register is unused */
 389:.\Generated_Source\PSoC4/DistTimer.c **** 
 390:.\Generated_Source\PSoC4/DistTimer.c **** 
 391:.\Generated_Source\PSoC4/DistTimer.c **** /*******************************************************************************
 392:.\Generated_Source\PSoC4/DistTimer.c **** * Function Name: DistTimer_ReadPeriod
 393:.\Generated_Source\PSoC4/DistTimer.c **** ********************************************************************************
 394:.\Generated_Source\PSoC4/DistTimer.c **** *
 395:.\Generated_Source\PSoC4/DistTimer.c **** * Summary:
 396:.\Generated_Source\PSoC4/DistTimer.c **** *  This function returns the current value of the Period.
 397:.\Generated_Source\PSoC4/DistTimer.c **** *
 398:.\Generated_Source\PSoC4/DistTimer.c **** * Parameters:
 399:.\Generated_Source\PSoC4/DistTimer.c **** *  void
 400:.\Generated_Source\PSoC4/DistTimer.c **** *
 401:.\Generated_Source\PSoC4/DistTimer.c **** * Return:
 402:.\Generated_Source\PSoC4/DistTimer.c **** *  The present value of the counter.
 403:.\Generated_Source\PSoC4/DistTimer.c **** *
 404:.\Generated_Source\PSoC4/DistTimer.c **** *******************************************************************************/
 405:.\Generated_Source\PSoC4/DistTimer.c **** uint16 DistTimer_ReadPeriod(void) 
 406:.\Generated_Source\PSoC4/DistTimer.c **** {
 129              		.loc 1 406 0
 130              		.cfi_startproc
 407:.\Generated_Source\PSoC4/DistTimer.c ****    #if(DistTimer_UsingFixedFunction)
 408:.\Generated_Source\PSoC4/DistTimer.c ****        return ((uint16)CY_GET_REG16(DistTimer_PERIOD_LSB_PTR));
 409:.\Generated_Source\PSoC4/DistTimer.c ****    #else
 410:.\Generated_Source\PSoC4/DistTimer.c ****        return (CY_GET_REG16(DistTimer_PERIOD_LSB_PTR));
 131              		.loc 1 410 0
 132 0000 014B     		ldr	r3, .L13
 133 0002 1888     		ldrh	r0, [r3]
 134 0004 80B2     		uxth	r0, r0
 411:.\Generated_Source\PSoC4/DistTimer.c ****    #endif /* (DistTimer_UsingFixedFunction) */
 412:.\Generated_Source\PSoC4/DistTimer.c **** }
 135              		.loc 1 412 0
 136              		@ sp needed
 137 0006 7047     		bx	lr
 138              	.L14:
 139              		.align	2
 140              	.L13:
 141 0008 40100F40 		.word	1074729024
 142              		.cfi_endproc
 143              	.LFE7:
 144              		.size	DistTimer_ReadPeriod, .-DistTimer_ReadPeriod
 145              		.section	.text.DistTimer_WritePeriod,"ax",%progbits
 146              		.align	2
 147              		.global	DistTimer_WritePeriod
 148              		.code	16
 149              		.thumb_func
 150              		.type	DistTimer_WritePeriod, %function
 151              	DistTimer_WritePeriod:
 152              	.LFB8:
 413:.\Generated_Source\PSoC4/DistTimer.c **** 
 414:.\Generated_Source\PSoC4/DistTimer.c **** 
 415:.\Generated_Source\PSoC4/DistTimer.c **** /*******************************************************************************
 416:.\Generated_Source\PSoC4/DistTimer.c **** * Function Name: DistTimer_WritePeriod
 417:.\Generated_Source\PSoC4/DistTimer.c **** ********************************************************************************
 418:.\Generated_Source\PSoC4/DistTimer.c **** *
ARM GAS  C:\Users\Simon\AppData\Local\Temp\cc5Ie5pu.s 			page 11


 419:.\Generated_Source\PSoC4/DistTimer.c **** * Summary:
 420:.\Generated_Source\PSoC4/DistTimer.c **** *  This function is used to change the period of the counter.  The new period
 421:.\Generated_Source\PSoC4/DistTimer.c **** *  will be loaded the next time terminal count is detected.
 422:.\Generated_Source\PSoC4/DistTimer.c **** *
 423:.\Generated_Source\PSoC4/DistTimer.c **** * Parameters:
 424:.\Generated_Source\PSoC4/DistTimer.c **** *  period: This value may be between 1 and (2^Resolution)-1.  A value of 0 will
 425:.\Generated_Source\PSoC4/DistTimer.c **** *          result in the counter remaining at zero.
 426:.\Generated_Source\PSoC4/DistTimer.c **** *
 427:.\Generated_Source\PSoC4/DistTimer.c **** * Return:
 428:.\Generated_Source\PSoC4/DistTimer.c **** *  void
 429:.\Generated_Source\PSoC4/DistTimer.c **** *
 430:.\Generated_Source\PSoC4/DistTimer.c **** *******************************************************************************/
 431:.\Generated_Source\PSoC4/DistTimer.c **** void DistTimer_WritePeriod(uint16 period) 
 432:.\Generated_Source\PSoC4/DistTimer.c **** {
 153              		.loc 1 432 0
 154              		.cfi_startproc
 155              	.LVL1:
 433:.\Generated_Source\PSoC4/DistTimer.c ****     #if(DistTimer_UsingFixedFunction)
 434:.\Generated_Source\PSoC4/DistTimer.c ****         uint16 period_temp = (uint16)period;
 435:.\Generated_Source\PSoC4/DistTimer.c ****         CY_SET_REG16(DistTimer_PERIOD_LSB_PTR, period_temp);
 436:.\Generated_Source\PSoC4/DistTimer.c ****     #else
 437:.\Generated_Source\PSoC4/DistTimer.c ****         CY_SET_REG16(DistTimer_PERIOD_LSB_PTR, period);
 156              		.loc 1 437 0
 157 0000 014B     		ldr	r3, .L16
 158 0002 1880     		strh	r0, [r3]
 438:.\Generated_Source\PSoC4/DistTimer.c ****     #endif /*Write Period value with appropriate resolution suffix depending on UDB or fixed functi
 439:.\Generated_Source\PSoC4/DistTimer.c **** }
 159              		.loc 1 439 0
 160              		@ sp needed
 161 0004 7047     		bx	lr
 162              	.L17:
 163 0006 C046     		.align	2
 164              	.L16:
 165 0008 40100F40 		.word	1074729024
 166              		.cfi_endproc
 167              	.LFE8:
 168              		.size	DistTimer_WritePeriod, .-DistTimer_WritePeriod
 169              		.section	.text.DistTimer_ReadCapture,"ax",%progbits
 170              		.align	2
 171              		.global	DistTimer_ReadCapture
 172              		.code	16
 173              		.thumb_func
 174              		.type	DistTimer_ReadCapture, %function
 175              	DistTimer_ReadCapture:
 176              	.LFB9:
 440:.\Generated_Source\PSoC4/DistTimer.c **** 
 441:.\Generated_Source\PSoC4/DistTimer.c **** 
 442:.\Generated_Source\PSoC4/DistTimer.c **** /*******************************************************************************
 443:.\Generated_Source\PSoC4/DistTimer.c **** * Function Name: DistTimer_ReadCapture
 444:.\Generated_Source\PSoC4/DistTimer.c **** ********************************************************************************
 445:.\Generated_Source\PSoC4/DistTimer.c **** *
 446:.\Generated_Source\PSoC4/DistTimer.c **** * Summary:
 447:.\Generated_Source\PSoC4/DistTimer.c **** *  This function returns the last value captured.
 448:.\Generated_Source\PSoC4/DistTimer.c **** *
 449:.\Generated_Source\PSoC4/DistTimer.c **** * Parameters:
 450:.\Generated_Source\PSoC4/DistTimer.c **** *  void
 451:.\Generated_Source\PSoC4/DistTimer.c **** *
ARM GAS  C:\Users\Simon\AppData\Local\Temp\cc5Ie5pu.s 			page 12


 452:.\Generated_Source\PSoC4/DistTimer.c **** * Return:
 453:.\Generated_Source\PSoC4/DistTimer.c **** *  Present Capture value.
 454:.\Generated_Source\PSoC4/DistTimer.c **** *
 455:.\Generated_Source\PSoC4/DistTimer.c **** *******************************************************************************/
 456:.\Generated_Source\PSoC4/DistTimer.c **** uint16 DistTimer_ReadCapture(void) 
 457:.\Generated_Source\PSoC4/DistTimer.c **** {
 177              		.loc 1 457 0
 178              		.cfi_startproc
 458:.\Generated_Source\PSoC4/DistTimer.c ****    #if(DistTimer_UsingFixedFunction)
 459:.\Generated_Source\PSoC4/DistTimer.c ****        return ((uint16)CY_GET_REG16(DistTimer_CAPTURE_LSB_PTR));
 460:.\Generated_Source\PSoC4/DistTimer.c ****    #else
 461:.\Generated_Source\PSoC4/DistTimer.c ****        return (CY_GET_REG16(DistTimer_CAPTURE_LSB_PTR));
 179              		.loc 1 461 0
 180 0000 014B     		ldr	r3, .L19
 181 0002 1888     		ldrh	r0, [r3]
 182 0004 80B2     		uxth	r0, r0
 462:.\Generated_Source\PSoC4/DistTimer.c ****    #endif /* (DistTimer_UsingFixedFunction) */
 463:.\Generated_Source\PSoC4/DistTimer.c **** }
 183              		.loc 1 463 0
 184              		@ sp needed
 185 0006 7047     		bx	lr
 186              	.L20:
 187              		.align	2
 188              	.L19:
 189 0008 80100F40 		.word	1074729088
 190              		.cfi_endproc
 191              	.LFE9:
 192              		.size	DistTimer_ReadCapture, .-DistTimer_ReadCapture
 193              		.section	.text.DistTimer_WriteCounter,"ax",%progbits
 194              		.align	2
 195              		.global	DistTimer_WriteCounter
 196              		.code	16
 197              		.thumb_func
 198              		.type	DistTimer_WriteCounter, %function
 199              	DistTimer_WriteCounter:
 200              	.LFB10:
 464:.\Generated_Source\PSoC4/DistTimer.c **** 
 465:.\Generated_Source\PSoC4/DistTimer.c **** 
 466:.\Generated_Source\PSoC4/DistTimer.c **** /*******************************************************************************
 467:.\Generated_Source\PSoC4/DistTimer.c **** * Function Name: DistTimer_WriteCounter
 468:.\Generated_Source\PSoC4/DistTimer.c **** ********************************************************************************
 469:.\Generated_Source\PSoC4/DistTimer.c **** *
 470:.\Generated_Source\PSoC4/DistTimer.c **** * Summary:
 471:.\Generated_Source\PSoC4/DistTimer.c **** *  This funtion is used to set the counter to a specific value
 472:.\Generated_Source\PSoC4/DistTimer.c **** *
 473:.\Generated_Source\PSoC4/DistTimer.c **** * Parameters:
 474:.\Generated_Source\PSoC4/DistTimer.c **** *  counter:  New counter value.
 475:.\Generated_Source\PSoC4/DistTimer.c **** *
 476:.\Generated_Source\PSoC4/DistTimer.c **** * Return:
 477:.\Generated_Source\PSoC4/DistTimer.c **** *  void
 478:.\Generated_Source\PSoC4/DistTimer.c **** *
 479:.\Generated_Source\PSoC4/DistTimer.c **** *******************************************************************************/
 480:.\Generated_Source\PSoC4/DistTimer.c **** void DistTimer_WriteCounter(uint16 counter) 
 481:.\Generated_Source\PSoC4/DistTimer.c **** {
 201              		.loc 1 481 0
 202              		.cfi_startproc
 203              	.LVL2:
ARM GAS  C:\Users\Simon\AppData\Local\Temp\cc5Ie5pu.s 			page 13


 482:.\Generated_Source\PSoC4/DistTimer.c ****    #if(DistTimer_UsingFixedFunction)
 483:.\Generated_Source\PSoC4/DistTimer.c ****         /* This functionality is removed until a FixedFunction HW update to
 484:.\Generated_Source\PSoC4/DistTimer.c ****          * allow this register to be written
 485:.\Generated_Source\PSoC4/DistTimer.c ****          */
 486:.\Generated_Source\PSoC4/DistTimer.c ****         CY_SET_REG16(DistTimer_COUNTER_LSB_PTR, (uint16)counter);
 487:.\Generated_Source\PSoC4/DistTimer.c ****         
 488:.\Generated_Source\PSoC4/DistTimer.c ****     #else
 489:.\Generated_Source\PSoC4/DistTimer.c ****         CY_SET_REG16(DistTimer_COUNTER_LSB_PTR, counter);
 204              		.loc 1 489 0
 205 0000 014B     		ldr	r3, .L22
 206 0002 1880     		strh	r0, [r3]
 490:.\Generated_Source\PSoC4/DistTimer.c ****     #endif /* Set Write Counter only for the UDB implementation (Write Counter not available in fix
 491:.\Generated_Source\PSoC4/DistTimer.c **** }
 207              		.loc 1 491 0
 208              		@ sp needed
 209 0004 7047     		bx	lr
 210              	.L23:
 211 0006 C046     		.align	2
 212              	.L22:
 213 0008 00100F40 		.word	1074728960
 214              		.cfi_endproc
 215              	.LFE10:
 216              		.size	DistTimer_WriteCounter, .-DistTimer_WriteCounter
 217              		.section	.text.DistTimer_ReadCounter,"ax",%progbits
 218              		.align	2
 219              		.global	DistTimer_ReadCounter
 220              		.code	16
 221              		.thumb_func
 222              		.type	DistTimer_ReadCounter, %function
 223              	DistTimer_ReadCounter:
 224              	.LFB11:
 492:.\Generated_Source\PSoC4/DistTimer.c **** 
 493:.\Generated_Source\PSoC4/DistTimer.c **** 
 494:.\Generated_Source\PSoC4/DistTimer.c **** /*******************************************************************************
 495:.\Generated_Source\PSoC4/DistTimer.c **** * Function Name: DistTimer_ReadCounter
 496:.\Generated_Source\PSoC4/DistTimer.c **** ********************************************************************************
 497:.\Generated_Source\PSoC4/DistTimer.c **** *
 498:.\Generated_Source\PSoC4/DistTimer.c **** * Summary:
 499:.\Generated_Source\PSoC4/DistTimer.c **** *  This function returns the current counter value.
 500:.\Generated_Source\PSoC4/DistTimer.c **** *
 501:.\Generated_Source\PSoC4/DistTimer.c **** * Parameters:
 502:.\Generated_Source\PSoC4/DistTimer.c **** *  void
 503:.\Generated_Source\PSoC4/DistTimer.c **** *
 504:.\Generated_Source\PSoC4/DistTimer.c **** * Return:
 505:.\Generated_Source\PSoC4/DistTimer.c **** *  Present compare value.
 506:.\Generated_Source\PSoC4/DistTimer.c **** *
 507:.\Generated_Source\PSoC4/DistTimer.c **** *******************************************************************************/
 508:.\Generated_Source\PSoC4/DistTimer.c **** uint16 DistTimer_ReadCounter(void) 
 509:.\Generated_Source\PSoC4/DistTimer.c **** {
 225              		.loc 1 509 0
 226              		.cfi_startproc
 510:.\Generated_Source\PSoC4/DistTimer.c ****     /* Force capture by reading Accumulator */
 511:.\Generated_Source\PSoC4/DistTimer.c ****     /* Must first do a software capture to be able to read the counter */
 512:.\Generated_Source\PSoC4/DistTimer.c ****     /* It is up to the user code to make sure there isn't already captured data in the FIFO */
 513:.\Generated_Source\PSoC4/DistTimer.c ****     #if(DistTimer_UsingFixedFunction)
 514:.\Generated_Source\PSoC4/DistTimer.c ****         (void)CY_GET_REG16(DistTimer_COUNTER_LSB_PTR);
 515:.\Generated_Source\PSoC4/DistTimer.c ****     #else
ARM GAS  C:\Users\Simon\AppData\Local\Temp\cc5Ie5pu.s 			page 14


 516:.\Generated_Source\PSoC4/DistTimer.c ****         (void)CY_GET_REG8(DistTimer_COUNTER_LSB_PTR_8BIT);
 227              		.loc 1 516 0
 228 0000 024B     		ldr	r3, .L25
 229 0002 1B78     		ldrb	r3, [r3]
 517:.\Generated_Source\PSoC4/DistTimer.c ****     #endif/* (DistTimer_UsingFixedFunction) */
 518:.\Generated_Source\PSoC4/DistTimer.c **** 
 519:.\Generated_Source\PSoC4/DistTimer.c ****     /* Read the data from the FIFO (or capture register for Fixed Function)*/
 520:.\Generated_Source\PSoC4/DistTimer.c ****     #if(DistTimer_UsingFixedFunction)
 521:.\Generated_Source\PSoC4/DistTimer.c ****         return ((uint16)CY_GET_REG16(DistTimer_CAPTURE_LSB_PTR));
 522:.\Generated_Source\PSoC4/DistTimer.c ****     #else
 523:.\Generated_Source\PSoC4/DistTimer.c ****         return (CY_GET_REG16(DistTimer_CAPTURE_LSB_PTR));
 230              		.loc 1 523 0
 231 0004 024B     		ldr	r3, .L25+4
 232 0006 1888     		ldrh	r0, [r3]
 233 0008 80B2     		uxth	r0, r0
 524:.\Generated_Source\PSoC4/DistTimer.c ****     #endif /* (DistTimer_UsingFixedFunction) */
 525:.\Generated_Source\PSoC4/DistTimer.c **** }
 234              		.loc 1 525 0
 235              		@ sp needed
 236 000a 7047     		bx	lr
 237              	.L26:
 238              		.align	2
 239              	.L25:
 240 000c 00000F40 		.word	1074724864
 241 0010 80100F40 		.word	1074729088
 242              		.cfi_endproc
 243              	.LFE11:
 244              		.size	DistTimer_ReadCounter, .-DistTimer_ReadCounter
 245              		.section	.text.DistTimer_EnableTrigger,"ax",%progbits
 246              		.align	2
 247              		.global	DistTimer_EnableTrigger
 248              		.code	16
 249              		.thumb_func
 250              		.type	DistTimer_EnableTrigger, %function
 251              	DistTimer_EnableTrigger:
 252              	.LFB12:
 526:.\Generated_Source\PSoC4/DistTimer.c **** 
 527:.\Generated_Source\PSoC4/DistTimer.c **** 
 528:.\Generated_Source\PSoC4/DistTimer.c **** #if(!DistTimer_UsingFixedFunction) /* UDB Specific Functions */
 529:.\Generated_Source\PSoC4/DistTimer.c **** 
 530:.\Generated_Source\PSoC4/DistTimer.c ****     
 531:.\Generated_Source\PSoC4/DistTimer.c **** /*******************************************************************************
 532:.\Generated_Source\PSoC4/DistTimer.c ****  * The functions below this point are only available using the UDB
 533:.\Generated_Source\PSoC4/DistTimer.c ****  * implementation.  If a feature is selected, then the API is enabled.
 534:.\Generated_Source\PSoC4/DistTimer.c ****  ******************************************************************************/
 535:.\Generated_Source\PSoC4/DistTimer.c **** 
 536:.\Generated_Source\PSoC4/DistTimer.c **** 
 537:.\Generated_Source\PSoC4/DistTimer.c **** #if (DistTimer_SoftwareCaptureMode)
 538:.\Generated_Source\PSoC4/DistTimer.c **** 
 539:.\Generated_Source\PSoC4/DistTimer.c **** 
 540:.\Generated_Source\PSoC4/DistTimer.c **** /*******************************************************************************
 541:.\Generated_Source\PSoC4/DistTimer.c **** * Function Name: DistTimer_SetCaptureMode
 542:.\Generated_Source\PSoC4/DistTimer.c **** ********************************************************************************
 543:.\Generated_Source\PSoC4/DistTimer.c **** *
 544:.\Generated_Source\PSoC4/DistTimer.c **** * Summary:
 545:.\Generated_Source\PSoC4/DistTimer.c **** *  This function sets the capture mode to either rising or falling edge.
 546:.\Generated_Source\PSoC4/DistTimer.c **** *
ARM GAS  C:\Users\Simon\AppData\Local\Temp\cc5Ie5pu.s 			page 15


 547:.\Generated_Source\PSoC4/DistTimer.c **** * Parameters:
 548:.\Generated_Source\PSoC4/DistTimer.c **** *  captureMode: This parameter sets the capture mode of the UDB capture feature
 549:.\Generated_Source\PSoC4/DistTimer.c **** *  The parameter values are defined using the
 550:.\Generated_Source\PSoC4/DistTimer.c **** *  #define DistTimer__B_TIMER__CM_NONE 0
 551:.\Generated_Source\PSoC4/DistTimer.c **** #define DistTimer__B_TIMER__CM_RISINGEDGE 1
 552:.\Generated_Source\PSoC4/DistTimer.c **** #define DistTimer__B_TIMER__CM_FALLINGEDGE 2
 553:.\Generated_Source\PSoC4/DistTimer.c **** #define DistTimer__B_TIMER__CM_EITHEREDGE 3
 554:.\Generated_Source\PSoC4/DistTimer.c **** #define DistTimer__B_TIMER__CM_SOFTWARE 4
 555:.\Generated_Source\PSoC4/DistTimer.c ****  identifiers
 556:.\Generated_Source\PSoC4/DistTimer.c **** *  The following are the possible values of the parameter
 557:.\Generated_Source\PSoC4/DistTimer.c **** *  DistTimer__B_TIMER__CM_NONE        - Set Capture mode to None
 558:.\Generated_Source\PSoC4/DistTimer.c **** *  DistTimer__B_TIMER__CM_RISINGEDGE  - Rising edge of Capture input
 559:.\Generated_Source\PSoC4/DistTimer.c **** *  DistTimer__B_TIMER__CM_FALLINGEDGE - Falling edge of Capture input
 560:.\Generated_Source\PSoC4/DistTimer.c **** *  DistTimer__B_TIMER__CM_EITHEREDGE  - Either edge of Capture input
 561:.\Generated_Source\PSoC4/DistTimer.c **** *
 562:.\Generated_Source\PSoC4/DistTimer.c **** * Return:
 563:.\Generated_Source\PSoC4/DistTimer.c **** *  void
 564:.\Generated_Source\PSoC4/DistTimer.c **** *
 565:.\Generated_Source\PSoC4/DistTimer.c **** *******************************************************************************/
 566:.\Generated_Source\PSoC4/DistTimer.c **** void DistTimer_SetCaptureMode(uint8 captureMode) 
 567:.\Generated_Source\PSoC4/DistTimer.c **** {
 568:.\Generated_Source\PSoC4/DistTimer.c ****     /* This must only set to two bits of the control register associated */
 569:.\Generated_Source\PSoC4/DistTimer.c ****     captureMode = ((uint8)((uint8)captureMode << DistTimer_CTRL_CAP_MODE_SHIFT));
 570:.\Generated_Source\PSoC4/DistTimer.c ****     captureMode &= (DistTimer_CTRL_CAP_MODE_MASK);
 571:.\Generated_Source\PSoC4/DistTimer.c **** 
 572:.\Generated_Source\PSoC4/DistTimer.c ****     #if (!DistTimer_UDB_CONTROL_REG_REMOVED)
 573:.\Generated_Source\PSoC4/DistTimer.c ****         /* Clear the Current Setting */
 574:.\Generated_Source\PSoC4/DistTimer.c ****         DistTimer_CONTROL &= ((uint8)(~DistTimer_CTRL_CAP_MODE_MASK));
 575:.\Generated_Source\PSoC4/DistTimer.c **** 
 576:.\Generated_Source\PSoC4/DistTimer.c ****         /* Write The New Setting */
 577:.\Generated_Source\PSoC4/DistTimer.c ****         DistTimer_CONTROL |= captureMode;
 578:.\Generated_Source\PSoC4/DistTimer.c ****     #endif /* (!DistTimer_UDB_CONTROL_REG_REMOVED) */
 579:.\Generated_Source\PSoC4/DistTimer.c **** }
 580:.\Generated_Source\PSoC4/DistTimer.c **** #endif /* Remove API if Capture Mode is not Software Controlled */
 581:.\Generated_Source\PSoC4/DistTimer.c **** 
 582:.\Generated_Source\PSoC4/DistTimer.c **** 
 583:.\Generated_Source\PSoC4/DistTimer.c **** #if (DistTimer_SoftwareTriggerMode)
 584:.\Generated_Source\PSoC4/DistTimer.c **** 
 585:.\Generated_Source\PSoC4/DistTimer.c **** 
 586:.\Generated_Source\PSoC4/DistTimer.c **** /*******************************************************************************
 587:.\Generated_Source\PSoC4/DistTimer.c **** * Function Name: DistTimer_SetTriggerMode
 588:.\Generated_Source\PSoC4/DistTimer.c **** ********************************************************************************
 589:.\Generated_Source\PSoC4/DistTimer.c **** *
 590:.\Generated_Source\PSoC4/DistTimer.c **** * Summary:
 591:.\Generated_Source\PSoC4/DistTimer.c **** *  This function sets the trigger input mode
 592:.\Generated_Source\PSoC4/DistTimer.c **** *
 593:.\Generated_Source\PSoC4/DistTimer.c **** * Parameters:
 594:.\Generated_Source\PSoC4/DistTimer.c **** *  triggerMode: Pass one of the pre-defined Trigger Modes (except Software)
 595:.\Generated_Source\PSoC4/DistTimer.c ****     #define DistTimer__B_TIMER__TM_NONE 0x00u
 596:.\Generated_Source\PSoC4/DistTimer.c ****     #define DistTimer__B_TIMER__TM_RISINGEDGE 0x04u
 597:.\Generated_Source\PSoC4/DistTimer.c ****     #define DistTimer__B_TIMER__TM_FALLINGEDGE 0x08u
 598:.\Generated_Source\PSoC4/DistTimer.c ****     #define DistTimer__B_TIMER__TM_EITHEREDGE 0x0Cu
 599:.\Generated_Source\PSoC4/DistTimer.c ****     #define DistTimer__B_TIMER__TM_SOFTWARE 0x10u
 600:.\Generated_Source\PSoC4/DistTimer.c **** *
 601:.\Generated_Source\PSoC4/DistTimer.c **** * Return:
 602:.\Generated_Source\PSoC4/DistTimer.c **** *  void
 603:.\Generated_Source\PSoC4/DistTimer.c **** *
ARM GAS  C:\Users\Simon\AppData\Local\Temp\cc5Ie5pu.s 			page 16


 604:.\Generated_Source\PSoC4/DistTimer.c **** *******************************************************************************/
 605:.\Generated_Source\PSoC4/DistTimer.c **** void DistTimer_SetTriggerMode(uint8 triggerMode) 
 606:.\Generated_Source\PSoC4/DistTimer.c **** {
 607:.\Generated_Source\PSoC4/DistTimer.c ****     /* This must only set to two bits of the control register associated */
 608:.\Generated_Source\PSoC4/DistTimer.c ****     triggerMode &= DistTimer_CTRL_TRIG_MODE_MASK;
 609:.\Generated_Source\PSoC4/DistTimer.c **** 
 610:.\Generated_Source\PSoC4/DistTimer.c ****     #if (!DistTimer_UDB_CONTROL_REG_REMOVED)   /* Remove assignment if control register is removed 
 611:.\Generated_Source\PSoC4/DistTimer.c ****     
 612:.\Generated_Source\PSoC4/DistTimer.c ****         /* Clear the Current Setting */
 613:.\Generated_Source\PSoC4/DistTimer.c ****         DistTimer_CONTROL &= ((uint8)(~DistTimer_CTRL_TRIG_MODE_MASK));
 614:.\Generated_Source\PSoC4/DistTimer.c **** 
 615:.\Generated_Source\PSoC4/DistTimer.c ****         /* Write The New Setting */
 616:.\Generated_Source\PSoC4/DistTimer.c ****         DistTimer_CONTROL |= (triggerMode | DistTimer__B_TIMER__TM_SOFTWARE);
 617:.\Generated_Source\PSoC4/DistTimer.c ****     #endif /* Remove code section if control register is not used */
 618:.\Generated_Source\PSoC4/DistTimer.c **** }
 619:.\Generated_Source\PSoC4/DistTimer.c **** #endif /* Remove API if Trigger Mode is not Software Controlled */
 620:.\Generated_Source\PSoC4/DistTimer.c **** 
 621:.\Generated_Source\PSoC4/DistTimer.c **** #if (DistTimer_EnableTriggerMode)
 622:.\Generated_Source\PSoC4/DistTimer.c **** 
 623:.\Generated_Source\PSoC4/DistTimer.c **** 
 624:.\Generated_Source\PSoC4/DistTimer.c **** /*******************************************************************************
 625:.\Generated_Source\PSoC4/DistTimer.c **** * Function Name: DistTimer_EnableTrigger
 626:.\Generated_Source\PSoC4/DistTimer.c **** ********************************************************************************
 627:.\Generated_Source\PSoC4/DistTimer.c **** *
 628:.\Generated_Source\PSoC4/DistTimer.c **** * Summary:
 629:.\Generated_Source\PSoC4/DistTimer.c **** *  Sets the control bit enabling Hardware Trigger mode
 630:.\Generated_Source\PSoC4/DistTimer.c **** *
 631:.\Generated_Source\PSoC4/DistTimer.c **** * Parameters:
 632:.\Generated_Source\PSoC4/DistTimer.c **** *  void
 633:.\Generated_Source\PSoC4/DistTimer.c **** *
 634:.\Generated_Source\PSoC4/DistTimer.c **** * Return:
 635:.\Generated_Source\PSoC4/DistTimer.c **** *  void
 636:.\Generated_Source\PSoC4/DistTimer.c **** *
 637:.\Generated_Source\PSoC4/DistTimer.c **** *******************************************************************************/
 638:.\Generated_Source\PSoC4/DistTimer.c **** void DistTimer_EnableTrigger(void) 
 639:.\Generated_Source\PSoC4/DistTimer.c **** {
 253              		.loc 1 639 0
 254              		.cfi_startproc
 640:.\Generated_Source\PSoC4/DistTimer.c ****     #if (!DistTimer_UDB_CONTROL_REG_REMOVED)   /* Remove assignment if control register is removed 
 641:.\Generated_Source\PSoC4/DistTimer.c ****         DistTimer_CONTROL |= DistTimer_CTRL_TRIG_EN;
 642:.\Generated_Source\PSoC4/DistTimer.c ****     #endif /* Remove code section if control register is not used */
 643:.\Generated_Source\PSoC4/DistTimer.c **** }
 255              		.loc 1 643 0
 256              		@ sp needed
 257 0000 7047     		bx	lr
 258              		.cfi_endproc
 259              	.LFE12:
 260              		.size	DistTimer_EnableTrigger, .-DistTimer_EnableTrigger
 261 0002 C046     		.section	.text.DistTimer_DisableTrigger,"ax",%progbits
 262              		.align	2
 263              		.global	DistTimer_DisableTrigger
 264              		.code	16
 265              		.thumb_func
 266              		.type	DistTimer_DisableTrigger, %function
 267              	DistTimer_DisableTrigger:
 268              	.LFB13:
 644:.\Generated_Source\PSoC4/DistTimer.c **** 
ARM GAS  C:\Users\Simon\AppData\Local\Temp\cc5Ie5pu.s 			page 17


 645:.\Generated_Source\PSoC4/DistTimer.c **** 
 646:.\Generated_Source\PSoC4/DistTimer.c **** /*******************************************************************************
 647:.\Generated_Source\PSoC4/DistTimer.c **** * Function Name: DistTimer_DisableTrigger
 648:.\Generated_Source\PSoC4/DistTimer.c **** ********************************************************************************
 649:.\Generated_Source\PSoC4/DistTimer.c **** *
 650:.\Generated_Source\PSoC4/DistTimer.c **** * Summary:
 651:.\Generated_Source\PSoC4/DistTimer.c **** *  Clears the control bit enabling Hardware Trigger mode
 652:.\Generated_Source\PSoC4/DistTimer.c **** *
 653:.\Generated_Source\PSoC4/DistTimer.c **** * Parameters:
 654:.\Generated_Source\PSoC4/DistTimer.c **** *  void
 655:.\Generated_Source\PSoC4/DistTimer.c **** *
 656:.\Generated_Source\PSoC4/DistTimer.c **** * Return:
 657:.\Generated_Source\PSoC4/DistTimer.c **** *  void
 658:.\Generated_Source\PSoC4/DistTimer.c **** *
 659:.\Generated_Source\PSoC4/DistTimer.c **** *******************************************************************************/
 660:.\Generated_Source\PSoC4/DistTimer.c **** void DistTimer_DisableTrigger(void) 
 661:.\Generated_Source\PSoC4/DistTimer.c **** {
 269              		.loc 1 661 0
 270              		.cfi_startproc
 662:.\Generated_Source\PSoC4/DistTimer.c ****     #if (!DistTimer_UDB_CONTROL_REG_REMOVED )   /* Remove assignment if control register is removed
 663:.\Generated_Source\PSoC4/DistTimer.c ****         DistTimer_CONTROL &= ((uint8)(~DistTimer_CTRL_TRIG_EN));
 664:.\Generated_Source\PSoC4/DistTimer.c ****     #endif /* Remove code section if control register is not used */
 665:.\Generated_Source\PSoC4/DistTimer.c **** }
 271              		.loc 1 665 0
 272              		@ sp needed
 273 0000 7047     		bx	lr
 274              		.cfi_endproc
 275              	.LFE13:
 276              		.size	DistTimer_DisableTrigger, .-DistTimer_DisableTrigger
 277 0002 C046     		.section	.text.DistTimer_SetInterruptCount,"ax",%progbits
 278              		.align	2
 279              		.global	DistTimer_SetInterruptCount
 280              		.code	16
 281              		.thumb_func
 282              		.type	DistTimer_SetInterruptCount, %function
 283              	DistTimer_SetInterruptCount:
 284              	.LFB14:
 666:.\Generated_Source\PSoC4/DistTimer.c **** #endif /* Remove API is Trigger Mode is set to None */
 667:.\Generated_Source\PSoC4/DistTimer.c **** 
 668:.\Generated_Source\PSoC4/DistTimer.c **** #if(DistTimer_InterruptOnCaptureCount)
 669:.\Generated_Source\PSoC4/DistTimer.c **** 
 670:.\Generated_Source\PSoC4/DistTimer.c **** 
 671:.\Generated_Source\PSoC4/DistTimer.c **** /*******************************************************************************
 672:.\Generated_Source\PSoC4/DistTimer.c **** * Function Name: DistTimer_SetInterruptCount
 673:.\Generated_Source\PSoC4/DistTimer.c **** ********************************************************************************
 674:.\Generated_Source\PSoC4/DistTimer.c **** *
 675:.\Generated_Source\PSoC4/DistTimer.c **** * Summary:
 676:.\Generated_Source\PSoC4/DistTimer.c **** *  This function sets the capture count before an interrupt is triggered.
 677:.\Generated_Source\PSoC4/DistTimer.c **** *
 678:.\Generated_Source\PSoC4/DistTimer.c **** * Parameters:
 679:.\Generated_Source\PSoC4/DistTimer.c **** *  interruptCount:  A value between 0 and 3 is valid.  If the value is 0, then
 680:.\Generated_Source\PSoC4/DistTimer.c **** *                   an interrupt will occur each time a capture occurs.
 681:.\Generated_Source\PSoC4/DistTimer.c **** *                   A value of 1 to 3 will cause the interrupt
 682:.\Generated_Source\PSoC4/DistTimer.c **** *                   to delay by the same number of captures.
 683:.\Generated_Source\PSoC4/DistTimer.c **** *
 684:.\Generated_Source\PSoC4/DistTimer.c **** * Return:
 685:.\Generated_Source\PSoC4/DistTimer.c **** *  void
ARM GAS  C:\Users\Simon\AppData\Local\Temp\cc5Ie5pu.s 			page 18


 686:.\Generated_Source\PSoC4/DistTimer.c **** *
 687:.\Generated_Source\PSoC4/DistTimer.c **** *******************************************************************************/
 688:.\Generated_Source\PSoC4/DistTimer.c **** void DistTimer_SetInterruptCount(uint8 interruptCount) 
 689:.\Generated_Source\PSoC4/DistTimer.c **** {
 285              		.loc 1 689 0
 286              		.cfi_startproc
 287              	.LVL3:
 690:.\Generated_Source\PSoC4/DistTimer.c ****     /* This must only set to two bits of the control register associated */
 691:.\Generated_Source\PSoC4/DistTimer.c ****     interruptCount &= DistTimer_CTRL_INTCNT_MASK;
 692:.\Generated_Source\PSoC4/DistTimer.c **** 
 693:.\Generated_Source\PSoC4/DistTimer.c ****     #if (!DistTimer_UDB_CONTROL_REG_REMOVED)
 694:.\Generated_Source\PSoC4/DistTimer.c ****         /* Clear the Current Setting */
 695:.\Generated_Source\PSoC4/DistTimer.c ****         DistTimer_CONTROL &= ((uint8)(~DistTimer_CTRL_INTCNT_MASK));
 696:.\Generated_Source\PSoC4/DistTimer.c ****         /* Write The New Setting */
 697:.\Generated_Source\PSoC4/DistTimer.c ****         DistTimer_CONTROL |= interruptCount;
 698:.\Generated_Source\PSoC4/DistTimer.c ****     #endif /* (!DistTimer_UDB_CONTROL_REG_REMOVED) */
 699:.\Generated_Source\PSoC4/DistTimer.c **** }
 288              		.loc 1 699 0
 289              		@ sp needed
 290 0000 7047     		bx	lr
 291              		.cfi_endproc
 292              	.LFE14:
 293              		.size	DistTimer_SetInterruptCount, .-DistTimer_SetInterruptCount
 294 0002 C046     		.section	.text.DistTimer_ClearFIFO,"ax",%progbits
 295              		.align	2
 296              		.global	DistTimer_ClearFIFO
 297              		.code	16
 298              		.thumb_func
 299              		.type	DistTimer_ClearFIFO, %function
 300              	DistTimer_ClearFIFO:
 301              	.LFB15:
 700:.\Generated_Source\PSoC4/DistTimer.c **** #endif /* DistTimer_InterruptOnCaptureCount */
 701:.\Generated_Source\PSoC4/DistTimer.c **** 
 702:.\Generated_Source\PSoC4/DistTimer.c **** 
 703:.\Generated_Source\PSoC4/DistTimer.c **** #if (DistTimer_UsingHWCaptureCounter)
 704:.\Generated_Source\PSoC4/DistTimer.c **** 
 705:.\Generated_Source\PSoC4/DistTimer.c **** 
 706:.\Generated_Source\PSoC4/DistTimer.c **** /*******************************************************************************
 707:.\Generated_Source\PSoC4/DistTimer.c **** * Function Name: DistTimer_SetCaptureCount
 708:.\Generated_Source\PSoC4/DistTimer.c **** ********************************************************************************
 709:.\Generated_Source\PSoC4/DistTimer.c **** *
 710:.\Generated_Source\PSoC4/DistTimer.c **** * Summary:
 711:.\Generated_Source\PSoC4/DistTimer.c **** *  This function sets the capture count
 712:.\Generated_Source\PSoC4/DistTimer.c **** *
 713:.\Generated_Source\PSoC4/DistTimer.c **** * Parameters:
 714:.\Generated_Source\PSoC4/DistTimer.c **** *  captureCount: A value between 2 and 127 inclusive is valid.  A value of 1
 715:.\Generated_Source\PSoC4/DistTimer.c **** *                to 127 will cause the interrupt to delay by the same number of
 716:.\Generated_Source\PSoC4/DistTimer.c **** *                captures.
 717:.\Generated_Source\PSoC4/DistTimer.c **** *
 718:.\Generated_Source\PSoC4/DistTimer.c **** * Return:
 719:.\Generated_Source\PSoC4/DistTimer.c **** *  void
 720:.\Generated_Source\PSoC4/DistTimer.c **** *
 721:.\Generated_Source\PSoC4/DistTimer.c **** *******************************************************************************/
 722:.\Generated_Source\PSoC4/DistTimer.c **** void DistTimer_SetCaptureCount(uint8 captureCount) 
 723:.\Generated_Source\PSoC4/DistTimer.c **** {
 724:.\Generated_Source\PSoC4/DistTimer.c ****     DistTimer_CAP_COUNT = captureCount;
 725:.\Generated_Source\PSoC4/DistTimer.c **** }
ARM GAS  C:\Users\Simon\AppData\Local\Temp\cc5Ie5pu.s 			page 19


 726:.\Generated_Source\PSoC4/DistTimer.c **** 
 727:.\Generated_Source\PSoC4/DistTimer.c **** 
 728:.\Generated_Source\PSoC4/DistTimer.c **** /*******************************************************************************
 729:.\Generated_Source\PSoC4/DistTimer.c **** * Function Name: DistTimer_ReadCaptureCount
 730:.\Generated_Source\PSoC4/DistTimer.c **** ********************************************************************************
 731:.\Generated_Source\PSoC4/DistTimer.c **** *
 732:.\Generated_Source\PSoC4/DistTimer.c **** * Summary:
 733:.\Generated_Source\PSoC4/DistTimer.c **** *  This function reads the capture count setting
 734:.\Generated_Source\PSoC4/DistTimer.c **** *
 735:.\Generated_Source\PSoC4/DistTimer.c **** * Parameters:
 736:.\Generated_Source\PSoC4/DistTimer.c **** *  void
 737:.\Generated_Source\PSoC4/DistTimer.c **** *
 738:.\Generated_Source\PSoC4/DistTimer.c **** * Return:
 739:.\Generated_Source\PSoC4/DistTimer.c **** *  Returns the Capture Count Setting
 740:.\Generated_Source\PSoC4/DistTimer.c **** *
 741:.\Generated_Source\PSoC4/DistTimer.c **** *******************************************************************************/
 742:.\Generated_Source\PSoC4/DistTimer.c **** uint8 DistTimer_ReadCaptureCount(void) 
 743:.\Generated_Source\PSoC4/DistTimer.c **** {
 744:.\Generated_Source\PSoC4/DistTimer.c ****     return ((uint8)DistTimer_CAP_COUNT);
 745:.\Generated_Source\PSoC4/DistTimer.c **** }
 746:.\Generated_Source\PSoC4/DistTimer.c **** #endif /* DistTimer_UsingHWCaptureCounter */
 747:.\Generated_Source\PSoC4/DistTimer.c **** 
 748:.\Generated_Source\PSoC4/DistTimer.c **** 
 749:.\Generated_Source\PSoC4/DistTimer.c **** /*******************************************************************************
 750:.\Generated_Source\PSoC4/DistTimer.c **** * Function Name: DistTimer_ClearFIFO
 751:.\Generated_Source\PSoC4/DistTimer.c **** ********************************************************************************
 752:.\Generated_Source\PSoC4/DistTimer.c **** *
 753:.\Generated_Source\PSoC4/DistTimer.c **** * Summary:
 754:.\Generated_Source\PSoC4/DistTimer.c **** *  This function clears all capture data from the capture FIFO
 755:.\Generated_Source\PSoC4/DistTimer.c **** *
 756:.\Generated_Source\PSoC4/DistTimer.c **** * Parameters:
 757:.\Generated_Source\PSoC4/DistTimer.c **** *  void
 758:.\Generated_Source\PSoC4/DistTimer.c **** *
 759:.\Generated_Source\PSoC4/DistTimer.c **** * Return:
 760:.\Generated_Source\PSoC4/DistTimer.c **** *  void
 761:.\Generated_Source\PSoC4/DistTimer.c **** *
 762:.\Generated_Source\PSoC4/DistTimer.c **** *******************************************************************************/
 763:.\Generated_Source\PSoC4/DistTimer.c **** void DistTimer_ClearFIFO(void) 
 764:.\Generated_Source\PSoC4/DistTimer.c **** {
 302              		.loc 1 764 0
 303              		.cfi_startproc
 304 0000 08B5     		push	{r3, lr}
 305              		.cfi_def_cfa_offset 8
 306              		.cfi_offset 3, -8
 307              		.cfi_offset 14, -4
 765:.\Generated_Source\PSoC4/DistTimer.c ****     while(0u != (DistTimer_ReadStatusRegister() & DistTimer_STATUS_FIFONEMP))
 308              		.loc 1 765 0
 309 0002 01E0     		b	.L31
 310              	.L32:
 766:.\Generated_Source\PSoC4/DistTimer.c ****     {
 767:.\Generated_Source\PSoC4/DistTimer.c ****         (void)DistTimer_ReadCapture();
 311              		.loc 1 767 0
 312 0004 FFF7FEFF 		bl	DistTimer_ReadCapture
 313              	.LVL4:
 314              	.L31:
 765:.\Generated_Source\PSoC4/DistTimer.c ****     while(0u != (DistTimer_ReadStatusRegister() & DistTimer_STATUS_FIFONEMP))
 315              		.loc 1 765 0
ARM GAS  C:\Users\Simon\AppData\Local\Temp\cc5Ie5pu.s 			page 20


 316 0008 FFF7FEFF 		bl	DistTimer_ReadStatusRegister
 317              	.LVL5:
 318 000c 0307     		lsl	r3, r0, #28
 319 000e F9D4     		bmi	.L32
 768:.\Generated_Source\PSoC4/DistTimer.c ****     }
 769:.\Generated_Source\PSoC4/DistTimer.c **** }
 320              		.loc 1 769 0
 321              		@ sp needed
 322 0010 08BD     		pop	{r3, pc}
 323              		.cfi_endproc
 324              	.LFE15:
 325              		.size	DistTimer_ClearFIFO, .-DistTimer_ClearFIFO
 326 0012 C046     		.section	.text.DistTimer_Init,"ax",%progbits
 327              		.align	2
 328              		.global	DistTimer_Init
 329              		.code	16
 330              		.thumb_func
 331              		.type	DistTimer_Init, %function
 332              	DistTimer_Init:
 333              	.LFB0:
  44:.\Generated_Source\PSoC4/DistTimer.c ****     #if(!DistTimer_UsingFixedFunction)
 334              		.loc 1 44 0
 335              		.cfi_startproc
 336 0000 10B5     		push	{r4, lr}
 337              		.cfi_def_cfa_offset 8
 338              		.cfi_offset 4, -8
 339              		.cfi_offset 14, -4
 118:.\Generated_Source\PSoC4/DistTimer.c ****     DistTimer_WriteCounter(DistTimer_INIT_PERIOD);
 340              		.loc 1 118 0
 341 0002 0B4C     		ldr	r4, .L34
 342 0004 201C     		mov	r0, r4
 343 0006 FFF7FEFF 		bl	DistTimer_WritePeriod
 344              	.LVL6:
 119:.\Generated_Source\PSoC4/DistTimer.c **** 
 345              		.loc 1 119 0
 346 000a 201C     		mov	r0, r4
 347 000c FFF7FEFF 		bl	DistTimer_WriteCounter
 348              	.LVL7:
 142:.\Generated_Source\PSoC4/DistTimer.c **** 
 349              		.loc 1 142 0
 350 0010 FFF7FEFF 		bl	CyEnterCriticalSection
 351              	.LVL8:
 145:.\Generated_Source\PSoC4/DistTimer.c **** 
 352              		.loc 1 145 0
 353 0014 074A     		ldr	r2, .L34+4
 354 0016 1178     		ldrb	r1, [r2]
 355 0018 1023     		mov	r3, #16
 356 001a 0B43     		orr	r3, r1
 357 001c 1370     		strb	r3, [r2]
 148:.\Generated_Source\PSoC4/DistTimer.c **** 
 358              		.loc 1 148 0
 359 001e FFF7FEFF 		bl	CyExitCriticalSection
 360              	.LVL9:
 159:.\Generated_Source\PSoC4/DistTimer.c ****     #endif /* Configure additional features of UDB implementation */
 361              		.loc 1 159 0
 362 0022 FFF7FEFF 		bl	DistTimer_ClearFIFO
 363              	.LVL10:
ARM GAS  C:\Users\Simon\AppData\Local\Temp\cc5Ie5pu.s 			page 21


 162:.\Generated_Source\PSoC4/DistTimer.c **** }
 364              		.loc 1 162 0
 365 0026 0220     		mov	r0, #2
 366 0028 FFF7FEFF 		bl	DistTimer_SetInterruptMode
 367              	.LVL11:
 163:.\Generated_Source\PSoC4/DistTimer.c **** 
 368              		.loc 1 163 0
 369              		@ sp needed
 370 002c 10BD     		pop	{r4, pc}
 371              	.L35:
 372 002e C046     		.align	2
 373              	.L34:
 374 0030 FFFF0000 		.word	65535
 375 0034 91000F40 		.word	1074725009
 376              		.cfi_endproc
 377              	.LFE0:
 378              		.size	DistTimer_Init, .-DistTimer_Init
 379              		.section	.text.DistTimer_Start,"ax",%progbits
 380              		.align	2
 381              		.global	DistTimer_Start
 382              		.code	16
 383              		.thumb_func
 384              		.type	DistTimer_Start, %function
 385              	DistTimer_Start:
 386              	.LFB2:
 216:.\Generated_Source\PSoC4/DistTimer.c ****     if(DistTimer_initVar == 0u)
 387              		.loc 1 216 0
 388              		.cfi_startproc
 389 0000 08B5     		push	{r3, lr}
 390              		.cfi_def_cfa_offset 8
 391              		.cfi_offset 3, -8
 392              		.cfi_offset 14, -4
 217:.\Generated_Source\PSoC4/DistTimer.c ****     {
 393              		.loc 1 217 0
 394 0002 054B     		ldr	r3, .L38
 395 0004 1B78     		ldrb	r3, [r3]
 396 0006 002B     		cmp	r3, #0
 397 0008 04D1     		bne	.L36
 219:.\Generated_Source\PSoC4/DistTimer.c **** 
 398              		.loc 1 219 0
 399 000a FFF7FEFF 		bl	DistTimer_Init
 400              	.LVL12:
 221:.\Generated_Source\PSoC4/DistTimer.c ****     }
 401              		.loc 1 221 0
 402 000e 0122     		mov	r2, #1
 403 0010 014B     		ldr	r3, .L38
 404 0012 1A70     		strb	r2, [r3]
 405              	.L36:
 226:.\Generated_Source\PSoC4/DistTimer.c **** 
 406              		.loc 1 226 0
 407              		@ sp needed
 408 0014 08BD     		pop	{r3, pc}
 409              	.L39:
 410 0016 C046     		.align	2
 411              	.L38:
 412 0018 00000000 		.word	.LANCHOR0
 413              		.cfi_endproc
ARM GAS  C:\Users\Simon\AppData\Local\Temp\cc5Ie5pu.s 			page 22


 414              	.LFE2:
 415              		.size	DistTimer_Start, .-DistTimer_Start
 416              		.global	DistTimer_initVar
 417              		.bss
 418              		.set	.LANCHOR0,. + 0
 419              		.type	DistTimer_initVar, %object
 420              		.size	DistTimer_initVar, 1
 421              	DistTimer_initVar:
 422 0000 00       		.space	1
 423              		.text
 424              	.Letext0:
 425              		.file 2 ".\\Generated_Source\\PSoC4\\cytypes.h"
 426              		.file 3 ".\\Generated_Source\\PSoC4\\CyLib.h"