ARM GAS  C:\Users\Simon\AppData\Local\Temp\ccbf6Lk6.s 			page 1


   1              		.cpu cortex-m0
   2              		.fpu softvfp
   3              		.eabi_attribute 20, 1
   4              		.eabi_attribute 21, 1
   5              		.eabi_attribute 23, 3
   6              		.eabi_attribute 24, 1
   7              		.eabi_attribute 25, 1
   8              		.eabi_attribute 26, 1
   9              		.eabi_attribute 30, 1
  10              		.eabi_attribute 34, 0
  11              		.eabi_attribute 18, 4
  12              		.code	16
  13              		.file	"handler.c"
  14              		.text
  15              	.Ltext0:
  16              		.cfi_sections	.debug_frame
  17              		.section	.text.handler,"ax",%progbits
  18              		.align	2
  19              		.global	handler
  20              		.code	16
  21              		.thumb_func
  22              		.type	handler, %function
  23              	handler:
  24              	.LFB34:
  25              		.file 1 ".\\handler.c"
   1:.\handler.c   **** /*!
   2:.\handler.c   ****  *  @file        Handler.c
   3:.\handler.c   ****  *  @brief       Communication handler for the Sensor-PSoC (to PSoC4Master)
   4:.\handler.c   ****  *  @author      Simon Nejmann (19981127@uni.au.dk)
   5:.\handler.c   ****  */
   6:.\handler.c   **** 
   7:.\handler.c   **** #include "handler.h"
   8:.\handler.c   **** #include "SensorData.h"
   9:.\handler.c   **** #include "LumenSensor.h"
  10:.\handler.c   **** 
  11:.\handler.c   **** /*! Debug define. Comment out to suppress debug prints */
  12:.\handler.c   **** #define DEBUG_ON
  13:.\handler.c   **** 
  14:.\handler.c   **** /*!
  15:.\handler.c   ****  *  @brief      Communication handler for the Sensor-PSoC
  16:.\handler.c   ****  *  @param[in]  cmd The command to be executed
  17:.\handler.c   ****  *  @param[in]  val Optional command argument
  18:.\handler.c   ****  *  @public
  19:.\handler.c   ****  *  @author      Simon Nejmann (19981127@uni.au.dk)
  20:.\handler.c   ****  */
  21:.\handler.c   **** void handler(uint8 cmd, uint8 val)
  22:.\handler.c   **** {
  26              		.loc 1 22 0
  27              		.cfi_startproc
  28              	.LVL0:
  29 0000 70B5     		push	{r4, r5, r6, lr}
  30              		.cfi_def_cfa_offset 16
  31              		.cfi_offset 4, -16
  32              		.cfi_offset 5, -12
  33              		.cfi_offset 6, -8
  34              		.cfi_offset 14, -4
  35 0002 0C1C     		mov	r4, r1
ARM GAS  C:\Users\Simon\AppData\Local\Temp\ccbf6Lk6.s 			page 2


  23:.\handler.c   ****     switch (cmd) {
  36              		.loc 1 23 0
  37 0004 031C     		mov	r3, r0
  38 0006 303B     		sub	r3, r3, #48
  39 0008 DAB2     		uxtb	r2, r3
  40 000a 152A     		cmp	r2, #21
  41 000c 00D9     		bls	.LCB17
  42 000e 02E1     		b	.L1	@long jump
  43              	.LCB17:
  44 0010 9300     		lsl	r3, r2, #2
  45 0012 814A     		ldr	r2, .L25
  46 0014 D358     		ldr	r3, [r2, r3]
  47 0016 9F46     		mov	pc, r3
  48              		.section	.rodata
  49              		.align	2
  50              	.L4:
  51 0000 36000000 		.word	.L3
  52 0004 72000000 		.word	.L5
  53 0008 AE000000 		.word	.L6
  54 000c 44010000 		.word	.L7
  55 0010 EA000000 		.word	.L8
  56 0014 18000000 		.word	.L9
  57 0018 54000000 		.word	.L10
  58 001c 90000000 		.word	.L11
  59 0020 24010000 		.word	.L12
  60 0024 CC000000 		.word	.L13
  61 0028 16020000 		.word	.L1
  62 002c 16020000 		.word	.L1
  63 0030 16020000 		.word	.L1
  64 0034 16020000 		.word	.L1
  65 0038 16020000 		.word	.L1
  66 003c 16020000 		.word	.L1
  67 0040 8A010000 		.word	.L14
  68 0044 E8010000 		.word	.L15
  69 0048 60010000 		.word	.L16
  70 004c BE010000 		.word	.L17
  71 0050 A6010000 		.word	.L18
  72 0054 00020000 		.word	.L19
  73              		.section	.text.handler
  74              	.L9:
  24:.\handler.c   ****         case cmdGetRed : 
  25:.\handler.c   ****             i2cTxBuffer[1] = cmd;
  75              		.loc 1 25 0
  76 0018 804B     		ldr	r3, .L25+4
  77 001a 5870     		strb	r0, [r3, #1]
  26:.\handler.c   ****             i2cTxBuffer[2] = sensorData.redPWMPct;
  78              		.loc 1 26 0
  79 001c 804D     		ldr	r5, .L25+8
  80 001e 9124     		mov	r4, #145
  81 0020 2A5D     		ldrb	r2, [r5, r4]
  82 0022 9A70     		strb	r2, [r3, #2]
  27:.\handler.c   **** #ifdef DEBUG_ON
  28:.\handler.c   ****     DEBUG_PutString("cmdGetRed ");
  83              		.loc 1 28 0
  84 0024 7F48     		ldr	r0, .L25+12
  85              	.LVL1:
  86 0026 FFF7FEFF 		bl	DEBUG_PutString
ARM GAS  C:\Users\Simon\AppData\Local\Temp\ccbf6Lk6.s 			page 3


  87              	.LVL2:
  29:.\handler.c   ****     DEBUG_PutHexByte(sensorData.redPWMPct);
  88              		.loc 1 29 0
  89 002a 285D     		ldrb	r0, [r5, r4]
  90 002c FFF7FEFF 		bl	DEBUG_PutHexByte
  91              	.LVL3:
  30:.\handler.c   ****     DEBUG_PutCRLF();
  92              		.loc 1 30 0
  93 0030 FFF7FEFF 		bl	DEBUG_PutCRLF
  94              	.LVL4:
  31:.\handler.c   **** #endif
  32:.\handler.c   ****             break;
  95              		.loc 1 32 0
  96 0034 EFE0     		b	.L1
  97              	.LVL5:
  98              	.L3:
  33:.\handler.c   ****         case cmdSetRed : 
  34:.\handler.c   ****             sensorData.redPWMPct = val;
  99              		.loc 1 34 0
 100 0036 7A4E     		ldr	r6, .L25+8
 101 0038 9125     		mov	r5, #145
 102 003a 7155     		strb	r1, [r6, r5]
  35:.\handler.c   ****             RedPWM_WriteCompare(sensorData.redPWMPct);
 103              		.loc 1 35 0
 104 003c 081C     		mov	r0, r1
 105              	.LVL6:
 106 003e FFF7FEFF 		bl	RedPWM_WriteCompare
 107              	.LVL7:
  36:.\handler.c   **** #ifdef DEBUG_ON
  37:.\handler.c   ****     DEBUG_PutString("cmdSetRed ");
 108              		.loc 1 37 0
 109 0042 7948     		ldr	r0, .L25+16
 110 0044 FFF7FEFF 		bl	DEBUG_PutString
 111              	.LVL8:
  38:.\handler.c   ****     DEBUG_PutHexByte(sensorData.redPWMPct);
 112              		.loc 1 38 0
 113 0048 705D     		ldrb	r0, [r6, r5]
 114 004a FFF7FEFF 		bl	DEBUG_PutHexByte
 115              	.LVL9:
  39:.\handler.c   ****     DEBUG_PutCRLF();
 116              		.loc 1 39 0
 117 004e FFF7FEFF 		bl	DEBUG_PutCRLF
 118              	.LVL10:
  40:.\handler.c   **** #endif
  41:.\handler.c   ****             break;
 119              		.loc 1 41 0
 120 0052 E0E0     		b	.L1
 121              	.LVL11:
 122              	.L10:
  42:.\handler.c   ****         case cmdGetGreen : 
  43:.\handler.c   ****             i2cTxBuffer[1] = cmd;
 123              		.loc 1 43 0
 124 0054 714B     		ldr	r3, .L25+4
 125 0056 5870     		strb	r0, [r3, #1]
  44:.\handler.c   ****             i2cTxBuffer[2] = sensorData.greenPWMPct;
 126              		.loc 1 44 0
 127 0058 714D     		ldr	r5, .L25+8
ARM GAS  C:\Users\Simon\AppData\Local\Temp\ccbf6Lk6.s 			page 4


 128 005a 9024     		mov	r4, #144
 129 005c 2A5D     		ldrb	r2, [r5, r4]
 130 005e 9A70     		strb	r2, [r3, #2]
  45:.\handler.c   **** #ifdef DEBUG_ON
  46:.\handler.c   ****     DEBUG_PutString("cmdGetGreen ");
 131              		.loc 1 46 0
 132 0060 7248     		ldr	r0, .L25+20
 133              	.LVL12:
 134 0062 FFF7FEFF 		bl	DEBUG_PutString
 135              	.LVL13:
  47:.\handler.c   ****     DEBUG_PutHexByte(sensorData.greenPWMPct);
 136              		.loc 1 47 0
 137 0066 285D     		ldrb	r0, [r5, r4]
 138 0068 FFF7FEFF 		bl	DEBUG_PutHexByte
 139              	.LVL14:
  48:.\handler.c   ****     DEBUG_PutCRLF();
 140              		.loc 1 48 0
 141 006c FFF7FEFF 		bl	DEBUG_PutCRLF
 142              	.LVL15:
  49:.\handler.c   **** #endif
  50:.\handler.c   ****             break;
 143              		.loc 1 50 0
 144 0070 D1E0     		b	.L1
 145              	.LVL16:
 146              	.L5:
  51:.\handler.c   ****         case cmdSetGreen : 
  52:.\handler.c   ****             sensorData.greenPWMPct = val;
 147              		.loc 1 52 0
 148 0072 6B4E     		ldr	r6, .L25+8
 149 0074 9025     		mov	r5, #144
 150 0076 7155     		strb	r1, [r6, r5]
  53:.\handler.c   ****             GreenPWM_WriteCompare(sensorData.greenPWMPct);
 151              		.loc 1 53 0
 152 0078 081C     		mov	r0, r1
 153              	.LVL17:
 154 007a FFF7FEFF 		bl	GreenPWM_WriteCompare
 155              	.LVL18:
  54:.\handler.c   **** #ifdef DEBUG_ON
  55:.\handler.c   ****     DEBUG_PutString("cmdSetGreen ");
 156              		.loc 1 55 0
 157 007e 6C48     		ldr	r0, .L25+24
 158 0080 FFF7FEFF 		bl	DEBUG_PutString
 159              	.LVL19:
  56:.\handler.c   ****     DEBUG_PutHexByte(sensorData.greenPWMPct);
 160              		.loc 1 56 0
 161 0084 705D     		ldrb	r0, [r6, r5]
 162 0086 FFF7FEFF 		bl	DEBUG_PutHexByte
 163              	.LVL20:
  57:.\handler.c   ****     DEBUG_PutCRLF();
 164              		.loc 1 57 0
 165 008a FFF7FEFF 		bl	DEBUG_PutCRLF
 166              	.LVL21:
  58:.\handler.c   **** #endif
  59:.\handler.c   ****             break;
 167              		.loc 1 59 0
 168 008e C2E0     		b	.L1
 169              	.LVL22:
ARM GAS  C:\Users\Simon\AppData\Local\Temp\ccbf6Lk6.s 			page 5


 170              	.L11:
  60:.\handler.c   ****         case cmdGetBlue : 
  61:.\handler.c   ****             i2cTxBuffer[1] = cmd;
 171              		.loc 1 61 0
 172 0090 624B     		ldr	r3, .L25+4
 173 0092 5870     		strb	r0, [r3, #1]
  62:.\handler.c   ****             i2cTxBuffer[2] = sensorData.bluePWMPct;
 174              		.loc 1 62 0
 175 0094 624D     		ldr	r5, .L25+8
 176 0096 9224     		mov	r4, #146
 177 0098 2A5D     		ldrb	r2, [r5, r4]
 178 009a 9A70     		strb	r2, [r3, #2]
  63:.\handler.c   **** #ifdef DEBUG_ON
  64:.\handler.c   ****     DEBUG_PutString("cmdGetBlue ");
 179              		.loc 1 64 0
 180 009c 6548     		ldr	r0, .L25+28
 181              	.LVL23:
 182 009e FFF7FEFF 		bl	DEBUG_PutString
 183              	.LVL24:
  65:.\handler.c   ****     DEBUG_PutHexByte(sensorData.bluePWMPct);
 184              		.loc 1 65 0
 185 00a2 285D     		ldrb	r0, [r5, r4]
 186 00a4 FFF7FEFF 		bl	DEBUG_PutHexByte
 187              	.LVL25:
  66:.\handler.c   ****     DEBUG_PutCRLF();
 188              		.loc 1 66 0
 189 00a8 FFF7FEFF 		bl	DEBUG_PutCRLF
 190              	.LVL26:
  67:.\handler.c   **** #endif
  68:.\handler.c   ****             break;
 191              		.loc 1 68 0
 192 00ac B3E0     		b	.L1
 193              	.LVL27:
 194              	.L6:
  69:.\handler.c   ****         case cmdSetBlue : 
  70:.\handler.c   ****             sensorData.bluePWMPct = val;
 195              		.loc 1 70 0
 196 00ae 5C4E     		ldr	r6, .L25+8
 197 00b0 9225     		mov	r5, #146
 198 00b2 7155     		strb	r1, [r6, r5]
  71:.\handler.c   ****             BluePWM_WriteCompare(sensorData.bluePWMPct);
 199              		.loc 1 71 0
 200 00b4 081C     		mov	r0, r1
 201              	.LVL28:
 202 00b6 FFF7FEFF 		bl	BluePWM_WriteCompare
 203              	.LVL29:
  72:.\handler.c   **** #ifdef DEBUG_ON
  73:.\handler.c   ****     DEBUG_PutString("cmdSetBlue ");
 204              		.loc 1 73 0
 205 00ba 5F48     		ldr	r0, .L25+32
 206 00bc FFF7FEFF 		bl	DEBUG_PutString
 207              	.LVL30:
  74:.\handler.c   ****     DEBUG_PutHexByte(sensorData.bluePWMPct);
 208              		.loc 1 74 0
 209 00c0 705D     		ldrb	r0, [r6, r5]
 210 00c2 FFF7FEFF 		bl	DEBUG_PutHexByte
 211              	.LVL31:
ARM GAS  C:\Users\Simon\AppData\Local\Temp\ccbf6Lk6.s 			page 6


  75:.\handler.c   ****     DEBUG_PutCRLF();
 212              		.loc 1 75 0
 213 00c6 FFF7FEFF 		bl	DEBUG_PutCRLF
 214              	.LVL32:
  76:.\handler.c   **** #endif
  77:.\handler.c   ****             break;
 215              		.loc 1 77 0
 216 00ca A4E0     		b	.L1
 217              	.LVL33:
 218              	.L13:
  78:.\handler.c   **** 
  79:.\handler.c   ****         case cmdGetPower : 
  80:.\handler.c   ****             i2cTxBuffer[1] = cmd;
 219              		.loc 1 80 0
 220 00cc 534B     		ldr	r3, .L25+4
 221 00ce 5870     		strb	r0, [r3, #1]
  81:.\handler.c   ****             i2cTxBuffer[2] = sensorData.ledPower;
 222              		.loc 1 81 0
 223 00d0 534D     		ldr	r5, .L25+8
 224 00d2 9324     		mov	r4, #147
 225 00d4 2A5D     		ldrb	r2, [r5, r4]
 226 00d6 9A70     		strb	r2, [r3, #2]
  82:.\handler.c   **** #ifdef DEBUG_ON
  83:.\handler.c   ****     DEBUG_PutString("cmdGetPower ");
 227              		.loc 1 83 0
 228 00d8 5848     		ldr	r0, .L25+36
 229              	.LVL34:
 230 00da FFF7FEFF 		bl	DEBUG_PutString
 231              	.LVL35:
  84:.\handler.c   ****     DEBUG_PutHexByte(sensorData.ledPower);
 232              		.loc 1 84 0
 233 00de 285D     		ldrb	r0, [r5, r4]
 234 00e0 FFF7FEFF 		bl	DEBUG_PutHexByte
 235              	.LVL36:
  85:.\handler.c   ****     DEBUG_PutCRLF();
 236              		.loc 1 85 0
 237 00e4 FFF7FEFF 		bl	DEBUG_PutCRLF
 238              	.LVL37:
  86:.\handler.c   **** #endif
  87:.\handler.c   ****             break;
 239              		.loc 1 87 0
 240 00e8 95E0     		b	.L1
 241              	.LVL38:
 242              	.L8:
  88:.\handler.c   ****         case cmdSetPower : 
  89:.\handler.c   ****             sensorData.ledPower = val;
 243              		.loc 1 89 0
 244 00ea 9323     		mov	r3, #147
 245 00ec 4C4A     		ldr	r2, .L25+8
 246 00ee D154     		strb	r1, [r2, r3]
  90:.\handler.c   ****             if (val) {
 247              		.loc 1 90 0
 248 00f0 0029     		cmp	r1, #0
 249 00f2 06D0     		beq	.L20
  91:.\handler.c   ****                 RedPWM_Start();
 250              		.loc 1 91 0
 251 00f4 FFF7FEFF 		bl	RedPWM_Start
ARM GAS  C:\Users\Simon\AppData\Local\Temp\ccbf6Lk6.s 			page 7


 252              	.LVL39:
  92:.\handler.c   ****                 GreenPWM_Start();
 253              		.loc 1 92 0
 254 00f8 FFF7FEFF 		bl	GreenPWM_Start
 255              	.LVL40:
  93:.\handler.c   ****                 BluePWM_Start();
 256              		.loc 1 93 0
 257 00fc FFF7FEFF 		bl	BluePWM_Start
 258              	.LVL41:
 259 0100 05E0     		b	.L21
 260              	.LVL42:
 261              	.L20:
  94:.\handler.c   ****             } else {
  95:.\handler.c   ****                 RedPWM_Stop();
 262              		.loc 1 95 0
 263 0102 FFF7FEFF 		bl	RedPWM_Stop
 264              	.LVL43:
  96:.\handler.c   ****                 GreenPWM_Stop();
 265              		.loc 1 96 0
 266 0106 FFF7FEFF 		bl	GreenPWM_Stop
 267              	.LVL44:
  97:.\handler.c   ****                 BluePWM_Stop();
 268              		.loc 1 97 0
 269 010a FFF7FEFF 		bl	BluePWM_Stop
 270              	.LVL45:
 271              	.L21:
  98:.\handler.c   ****             }
  99:.\handler.c   **** #ifdef DEBUG_ON
 100:.\handler.c   ****     DEBUG_PutString("cmdSetPower ");
 272              		.loc 1 100 0
 273 010e 4C48     		ldr	r0, .L25+40
 274 0110 FFF7FEFF 		bl	DEBUG_PutString
 275              	.LVL46:
 101:.\handler.c   ****     DEBUG_PutHexByte(sensorData.ledPower);
 276              		.loc 1 101 0
 277 0114 9323     		mov	r3, #147
 278 0116 424A     		ldr	r2, .L25+8
 279 0118 D05C     		ldrb	r0, [r2, r3]
 280 011a FFF7FEFF 		bl	DEBUG_PutHexByte
 281              	.LVL47:
 102:.\handler.c   ****     DEBUG_PutCRLF();
 282              		.loc 1 102 0
 283 011e FFF7FEFF 		bl	DEBUG_PutCRLF
 284              	.LVL48:
 103:.\handler.c   **** #endif
 104:.\handler.c   ****             break;
 285              		.loc 1 104 0
 286 0122 78E0     		b	.L1
 287              	.LVL49:
 288              	.L12:
 105:.\handler.c   **** 
 106:.\handler.c   ****         case cmdGetLumen : 
 107:.\handler.c   ****             i2cTxBuffer[1] = cmd;
 289              		.loc 1 107 0
 290 0124 3D4C     		ldr	r4, .L25+4
 291 0126 6070     		strb	r0, [r4, #1]
 108:.\handler.c   ****             i2cTxBuffer[2] = scaleLuxToFF(sensorData.lux);
ARM GAS  C:\Users\Simon\AppData\Local\Temp\ccbf6Lk6.s 			page 8


 292              		.loc 1 108 0
 293 0128 3D4B     		ldr	r3, .L25+8
 294 012a 1868     		ldr	r0, [r3]
 295              	.LVL50:
 296 012c FFF7FEFF 		bl	scaleLuxToFF
 297              	.LVL51:
 298 0130 A070     		strb	r0, [r4, #2]
 109:.\handler.c   **** #ifdef DEBUG_ON
 110:.\handler.c   ****     DEBUG_PutString("cmdGetLumen ");
 299              		.loc 1 110 0
 300 0132 4448     		ldr	r0, .L25+44
 301 0134 FFF7FEFF 		bl	DEBUG_PutString
 302              	.LVL52:
 111:.\handler.c   ****     DEBUG_PutHexByte(i2cTxBuffer[2]);
 303              		.loc 1 111 0
 304 0138 A078     		ldrb	r0, [r4, #2]
 305 013a FFF7FEFF 		bl	DEBUG_PutHexByte
 306              	.LVL53:
 112:.\handler.c   ****     DEBUG_PutCRLF();
 307              		.loc 1 112 0
 308 013e FFF7FEFF 		bl	DEBUG_PutCRLF
 309              	.LVL54:
 113:.\handler.c   **** #endif
 114:.\handler.c   ****             break;
 310              		.loc 1 114 0
 311 0142 68E0     		b	.L1
 312              	.LVL55:
 313              	.L7:
 115:.\handler.c   ****         case cmdSetLumen : 
 116:.\handler.c   ****             sensorData.desiredLux = scaleFFtoLux(val);
 314              		.loc 1 116 0
 315 0144 081C     		mov	r0, r1
 316              	.LVL56:
 317 0146 FFF7FEFF 		bl	scaleFFtoLux
 318              	.LVL57:
 319 014a 354C     		ldr	r4, .L25+8
 320 014c 6060     		str	r0, [r4, #4]
 117:.\handler.c   **** #ifdef DEBUG_ON
 118:.\handler.c   ****     DEBUG_PutString("cmdSetLumen ");
 321              		.loc 1 118 0
 322 014e 3E48     		ldr	r0, .L25+48
 323 0150 FFF7FEFF 		bl	DEBUG_PutString
 324              	.LVL58:
 119:.\handler.c   ****     DEBUG_PutHexByte(sensorData.desiredLux);
 325              		.loc 1 119 0
 326 0154 2079     		ldrb	r0, [r4, #4]
 327 0156 FFF7FEFF 		bl	DEBUG_PutHexByte
 328              	.LVL59:
 120:.\handler.c   ****     DEBUG_PutCRLF();
 329              		.loc 1 120 0
 330 015a FFF7FEFF 		bl	DEBUG_PutCRLF
 331              	.LVL60:
 121:.\handler.c   **** #endif
 122:.\handler.c   ****             break;
 332              		.loc 1 122 0
 333 015e 5AE0     		b	.L1
 334              	.LVL61:
ARM GAS  C:\Users\Simon\AppData\Local\Temp\ccbf6Lk6.s 			page 9


 335              	.L16:
 123:.\handler.c   **** 
 124:.\handler.c   ****         case cmdGetDistance : 
 125:.\handler.c   ****             i2cTxBuffer[1] = cmd;
 336              		.loc 1 125 0
 337 0160 2E4B     		ldr	r3, .L25+4
 338 0162 5870     		strb	r0, [r3, #1]
 126:.\handler.c   ****             i2cTxBuffer[2] = (uint8)((sensorData.distance < 255) ? sensorData.distance : 255);
 339              		.loc 1 126 0
 340 0164 8823     		mov	r3, #136
 341 0166 2E4A     		ldr	r2, .L25+8
 342 0168 D358     		ldr	r3, [r2, r3]
 343 016a FE2B     		cmp	r3, #254
 344 016c 01DC     		bgt	.L24
 345              		.loc 1 126 0 is_stmt 0 discriminator 1
 346 016e DBB2     		uxtb	r3, r3
 347 0170 00E0     		b	.L22
 348              	.L24:
 349              		.loc 1 126 0
 350 0172 FF23     		mov	r3, #255
 351              	.L22:
 352              		.loc 1 126 0 discriminator 4
 353 0174 294C     		ldr	r4, .L25+4
 354 0176 A370     		strb	r3, [r4, #2]
 127:.\handler.c   **** #ifdef DEBUG_ON
 128:.\handler.c   ****     DEBUG_PutString("cmdGetDistance ");
 355              		.loc 1 128 0 is_stmt 1 discriminator 4
 356 0178 3448     		ldr	r0, .L25+52
 357              	.LVL62:
 358 017a FFF7FEFF 		bl	DEBUG_PutString
 359              	.LVL63:
 129:.\handler.c   ****     DEBUG_PutHexByte(i2cTxBuffer[2]);
 360              		.loc 1 129 0 discriminator 4
 361 017e A078     		ldrb	r0, [r4, #2]
 362 0180 FFF7FEFF 		bl	DEBUG_PutHexByte
 363              	.LVL64:
 130:.\handler.c   ****     DEBUG_PutCRLF();
 364              		.loc 1 130 0 discriminator 4
 365 0184 FFF7FEFF 		bl	DEBUG_PutCRLF
 366              	.LVL65:
 131:.\handler.c   **** #endif
 132:.\handler.c   ****             break;
 367              		.loc 1 132 0 discriminator 4
 368 0188 45E0     		b	.L1
 369              	.LVL66:
 370              	.L14:
 133:.\handler.c   ****         case cmdSetDistance : 
 134:.\handler.c   ****             sensorData.desiredTimeDistance = val * 58;
 371              		.loc 1 134 0
 372 018a 3A23     		mov	r3, #58
 373 018c 5C43     		mul	r4, r3
 374 018e 244E     		ldr	r6, .L25+8
 375 0190 8C25     		mov	r5, #140
 376 0192 7451     		str	r4, [r6, r5]
 135:.\handler.c   **** #ifdef DEBUG_ON
 136:.\handler.c   ****     DEBUG_PutString("cmdSetDistance ");
 377              		.loc 1 136 0
ARM GAS  C:\Users\Simon\AppData\Local\Temp\ccbf6Lk6.s 			page 10


 378 0194 2E48     		ldr	r0, .L25+56
 379              	.LVL67:
 380 0196 FFF7FEFF 		bl	DEBUG_PutString
 381              	.LVL68:
 137:.\handler.c   ****     DEBUG_PutHexByte(sensorData.desiredTimeDistance);
 382              		.loc 1 137 0
 383 019a 705D     		ldrb	r0, [r6, r5]
 384 019c FFF7FEFF 		bl	DEBUG_PutHexByte
 385              	.LVL69:
 138:.\handler.c   ****     DEBUG_PutCRLF();
 386              		.loc 1 138 0
 387 01a0 FFF7FEFF 		bl	DEBUG_PutCRLF
 388              	.LVL70:
 139:.\handler.c   **** #endif
 140:.\handler.c   ****             break;
 389              		.loc 1 140 0
 390 01a4 37E0     		b	.L1
 391              	.LVL71:
 392              	.L18:
 141:.\handler.c   ****         case cmdDistanceAlert : 
 142:.\handler.c   ****             i2cTxBuffer[1] = cmd;
 393              		.loc 1 142 0
 394 01a6 1D4B     		ldr	r3, .L25+4
 395 01a8 5870     		strb	r0, [r3, #1]
 143:.\handler.c   ****             i2cTxBuffer[2] = val;
 396              		.loc 1 143 0
 397 01aa 9970     		strb	r1, [r3, #2]
 144:.\handler.c   **** #ifdef DEBUG_ON
 145:.\handler.c   ****     DEBUG_PutString("cmdDistanceAlert ");
 398              		.loc 1 145 0
 399 01ac 2948     		ldr	r0, .L25+60
 400              	.LVL72:
 401 01ae FFF7FEFF 		bl	DEBUG_PutString
 402              	.LVL73:
 146:.\handler.c   ****     DEBUG_PutHexByte(val);
 403              		.loc 1 146 0
 404 01b2 201C     		mov	r0, r4
 405 01b4 FFF7FEFF 		bl	DEBUG_PutHexByte
 406              	.LVL74:
 147:.\handler.c   ****     DEBUG_PutCRLF();
 407              		.loc 1 147 0
 408 01b8 FFF7FEFF 		bl	DEBUG_PutCRLF
 409              	.LVL75:
 148:.\handler.c   **** #endif
 149:.\handler.c   ****             break;
 410              		.loc 1 149 0
 411 01bc 2BE0     		b	.L1
 412              	.LVL76:
 413              	.L17:
 150:.\handler.c   **** 
 151:.\handler.c   ****         case cmdGetMovement : 
 152:.\handler.c   ****             // Return 0xff if there is movement, 0x00 if there is not
 153:.\handler.c   ****             i2cTxBuffer[1] = cmd;
 414              		.loc 1 153 0
 415 01be 174B     		ldr	r3, .L25+4
 416 01c0 5870     		strb	r0, [r3, #1]
 154:.\handler.c   ****             i2cTxBuffer[2] = (sensorData.movement) ? 0xff : 0x00;
ARM GAS  C:\Users\Simon\AppData\Local\Temp\ccbf6Lk6.s 			page 11


 417              		.loc 1 154 0
 418 01c2 8423     		mov	r3, #132
 419 01c4 164A     		ldr	r2, .L25+8
 420 01c6 D35C     		ldrb	r3, [r2, r3]
 421 01c8 002B     		cmp	r3, #0
 422 01ca 00D0     		beq	.L23
 423 01cc FF23     		mov	r3, #255
 424              	.L23:
 425              		.loc 1 154 0 is_stmt 0 discriminator 4
 426 01ce 134A     		ldr	r2, .L25+4
 427 01d0 9370     		strb	r3, [r2, #2]
 155:.\handler.c   **** #ifdef DEBUG_ON
 156:.\handler.c   ****     DEBUG_PutString("cmdGetMovement ");
 428              		.loc 1 156 0 is_stmt 1 discriminator 4
 429 01d2 2148     		ldr	r0, .L25+64
 430              	.LVL77:
 431 01d4 FFF7FEFF 		bl	DEBUG_PutString
 432              	.LVL78:
 157:.\handler.c   ****     DEBUG_PutHexByte(sensorData.movement);
 433              		.loc 1 157 0 discriminator 4
 434 01d8 8423     		mov	r3, #132
 435 01da 114A     		ldr	r2, .L25+8
 436 01dc D05C     		ldrb	r0, [r2, r3]
 437 01de FFF7FEFF 		bl	DEBUG_PutHexByte
 438              	.LVL79:
 158:.\handler.c   ****     DEBUG_PutCRLF();
 439              		.loc 1 158 0 discriminator 4
 440 01e2 FFF7FEFF 		bl	DEBUG_PutCRLF
 441              	.LVL80:
 159:.\handler.c   **** #endif
 160:.\handler.c   ****             break;
 442              		.loc 1 160 0 discriminator 4
 443 01e6 16E0     		b	.L1
 444              	.LVL81:
 445              	.L15:
 161:.\handler.c   ****         case cmdSetMovement : 
 162:.\handler.c   ****             sensorData.movementAlertOn = val;
 446              		.loc 1 162 0
 447 01e8 0D4E     		ldr	r6, .L25+8
 448 01ea 8525     		mov	r5, #133
 449 01ec 7155     		strb	r1, [r6, r5]
 163:.\handler.c   **** #ifdef DEBUG_ON
 164:.\handler.c   ****     DEBUG_PutString("cmdSetMovement ");
 450              		.loc 1 164 0
 451 01ee 1B48     		ldr	r0, .L25+68
 452              	.LVL82:
 453 01f0 FFF7FEFF 		bl	DEBUG_PutString
 454              	.LVL83:
 165:.\handler.c   ****     DEBUG_PutHexByte(sensorData.movementAlertOn);
 455              		.loc 1 165 0
 456 01f4 705D     		ldrb	r0, [r6, r5]
 457 01f6 FFF7FEFF 		bl	DEBUG_PutHexByte
 458              	.LVL84:
 166:.\handler.c   ****     DEBUG_PutCRLF();
 459              		.loc 1 166 0
 460 01fa FFF7FEFF 		bl	DEBUG_PutCRLF
 461              	.LVL85:
ARM GAS  C:\Users\Simon\AppData\Local\Temp\ccbf6Lk6.s 			page 12


 167:.\handler.c   **** #endif
 168:.\handler.c   ****             break;
 462              		.loc 1 168 0
 463 01fe 0AE0     		b	.L1
 464              	.LVL86:
 465              	.L19:
 169:.\handler.c   ****         case cmdMovementAlert : 
 170:.\handler.c   ****             i2cTxBuffer[1] = cmd;
 466              		.loc 1 170 0
 467 0200 064B     		ldr	r3, .L25+4
 468 0202 5870     		strb	r0, [r3, #1]
 171:.\handler.c   ****             i2cTxBuffer[2] = val;
 469              		.loc 1 171 0
 470 0204 9970     		strb	r1, [r3, #2]
 172:.\handler.c   **** #ifdef DEBUG_ON
 173:.\handler.c   ****     DEBUG_PutString("cmdMovementAlert ");
 471              		.loc 1 173 0
 472 0206 1648     		ldr	r0, .L25+72
 473              	.LVL87:
 474 0208 FFF7FEFF 		bl	DEBUG_PutString
 475              	.LVL88:
 174:.\handler.c   ****     DEBUG_PutHexByte(val);
 476              		.loc 1 174 0
 477 020c 201C     		mov	r0, r4
 478 020e FFF7FEFF 		bl	DEBUG_PutHexByte
 479              	.LVL89:
 175:.\handler.c   ****     DEBUG_PutCRLF();
 480              		.loc 1 175 0
 481 0212 FFF7FEFF 		bl	DEBUG_PutCRLF
 482              	.LVL90:
 483              	.L1:
 176:.\handler.c   **** #endif
 177:.\handler.c   ****             break;
 178:.\handler.c   **** 
 179:.\handler.c   ****         default :
 180:.\handler.c   ****             break;
 181:.\handler.c   ****     }
 182:.\handler.c   **** }
 484              		.loc 1 182 0
 485              		@ sp needed
 486 0216 70BD     		pop	{r4, r5, r6, pc}
 487              	.L26:
 488              		.align	2
 489              	.L25:
 490 0218 00000000 		.word	.L4
 491 021c 00000000 		.word	i2cTxBuffer
 492 0220 00000000 		.word	sensorData
 493 0224 00000000 		.word	.LC3
 494 0228 0C000000 		.word	.LC5
 495 022c 18000000 		.word	.LC7
 496 0230 28000000 		.word	.LC9
 497 0234 38000000 		.word	.LC11
 498 0238 44000000 		.word	.LC13
 499 023c 50000000 		.word	.LC15
 500 0240 60000000 		.word	.LC17
 501 0244 70000000 		.word	.LC19
 502 0248 80000000 		.word	.LC21
ARM GAS  C:\Users\Simon\AppData\Local\Temp\ccbf6Lk6.s 			page 13


 503 024c 90000000 		.word	.LC23
 504 0250 A0000000 		.word	.LC25
 505 0254 B0000000 		.word	.LC27
 506 0258 C4000000 		.word	.LC29
 507 025c D4000000 		.word	.LC31
 508 0260 E4000000 		.word	.LC33
 509              		.cfi_endproc
 510              	.LFE34:
 511              		.size	handler, .-handler
 512              		.comm	sensorData,148,4
 513              		.comm	i2cRxBuffer,4,4
 514              		.comm	i2cTxBuffer,4,4
 515              		.comm	backOfQueuePtr,4,4
 516              		.comm	frontOfQueuePtr,4,4
 517              		.section	.rodata.str1.4,"aMS",%progbits,1
 518              		.align	2
 519              	.LC3:
 520 0000 636D6447 		.ascii	"cmdGetRed \000"
 520      65745265 
 520      642000
 521 000b 00       		.space	1
 522              	.LC5:
 523 000c 636D6453 		.ascii	"cmdSetRed \000"
 523      65745265 
 523      642000
 524 0017 00       		.space	1
 525              	.LC7:
 526 0018 636D6447 		.ascii	"cmdGetGreen \000"
 526      65744772 
 526      65656E20 
 526      00
 527 0025 000000   		.space	3
 528              	.LC9:
 529 0028 636D6453 		.ascii	"cmdSetGreen \000"
 529      65744772 
 529      65656E20 
 529      00
 530 0035 000000   		.space	3
 531              	.LC11:
 532 0038 636D6447 		.ascii	"cmdGetBlue \000"
 532      6574426C 
 532      75652000 
 533              	.LC13:
 534 0044 636D6453 		.ascii	"cmdSetBlue \000"
 534      6574426C 
 534      75652000 
 535              	.LC15:
 536 0050 636D6447 		.ascii	"cmdGetPower \000"
 536      6574506F 
 536      77657220 
 536      00
 537 005d 000000   		.space	3
 538              	.LC17:
 539 0060 636D6453 		.ascii	"cmdSetPower \000"
 539      6574506F 
 539      77657220 
 539      00
ARM GAS  C:\Users\Simon\AppData\Local\Temp\ccbf6Lk6.s 			page 14


 540 006d 000000   		.space	3
 541              	.LC19:
 542 0070 636D6447 		.ascii	"cmdGetLumen \000"
 542      65744C75 
 542      6D656E20 
 542      00
 543 007d 000000   		.space	3
 544              	.LC21:
 545 0080 636D6453 		.ascii	"cmdSetLumen \000"
 545      65744C75 
 545      6D656E20 
 545      00
 546 008d 000000   		.space	3
 547              	.LC23:
 548 0090 636D6447 		.ascii	"cmdGetDistance \000"
 548      65744469 
 548      7374616E 
 548      63652000 
 549              	.LC25:
 550 00a0 636D6453 		.ascii	"cmdSetDistance \000"
 550      65744469 
 550      7374616E 
 550      63652000 
 551              	.LC27:
 552 00b0 636D6444 		.ascii	"cmdDistanceAlert \000"
 552      69737461 
 552      6E636541 
 552      6C657274 
 552      2000
 553 00c2 0000     		.space	2
 554              	.LC29:
 555 00c4 636D6447 		.ascii	"cmdGetMovement \000"
 555      65744D6F 
 555      76656D65 
 555      6E742000 
 556              	.LC31:
 557 00d4 636D6453 		.ascii	"cmdSetMovement \000"
 557      65744D6F 
 557      76656D65 
 557      6E742000 
 558              	.LC33:
 559 00e4 636D644D 		.ascii	"cmdMovementAlert \000"
 559      6F76656D 
 559      656E7441 
 559      6C657274 
 559      2000
 560 00f6 0000     		.text
 561              	.Letext0:
 562              		.file 2 "Generated_Source\\PSoC4/cytypes.h"
 563              		.file 3 ".\\queue.h"
 564              		.file 4 ".\\CircularMean.h"
 565              		.file 5 ".\\SensorData.h"
 566              		.file 6 ".\\i2c.h"
 567              		.file 7 "Generated_Source\\PSoC4/DEBUG.h"
 568              		.file 8 "Generated_Source\\PSoC4/RedPWM.h"
 569              		.file 9 "Generated_Source\\PSoC4/GreenPWM.h"
 570              		.file 10 "Generated_Source\\PSoC4/BluePWM.h"
ARM GAS  C:\Users\Simon\AppData\Local\Temp\ccbf6Lk6.s 			page 15


 571              		.file 11 ".\\LumenSensor.h"