ARM GAS  C:\Users\Simon\AppData\Local\Temp\ccxJTVpq.s 			page 1


   1              		.cpu cortex-m0
   2              		.fpu softvfp
   3              		.eabi_attribute 20, 1
   4              		.eabi_attribute 21, 1
   5              		.eabi_attribute 23, 3
   6              		.eabi_attribute 24, 1
   7              		.eabi_attribute 25, 1
   8              		.eabi_attribute 26, 1
   9              		.eabi_attribute 30, 1
  10              		.eabi_attribute 34, 0
  11              		.eabi_attribute 18, 4
  12              		.code	16
  13              		.file	"LumenSensor.c"
  14              		.text
  15              	.Ltext0:
  16              		.cfi_sections	.debug_frame
  17              		.section	.text.initLumenSensor,"ax",%progbits
  18              		.align	2
  19              		.global	initLumenSensor
  20              		.code	16
  21              		.thumb_func
  22              		.type	initLumenSensor, %function
  23              	initLumenSensor:
  24              	.LFB34:
  25              		.file 1 ".\\LumenSensor.c"
   1:.\LumenSensor.c **** /* ========================================
   2:.\LumenSensor.c ****  *
   3:.\LumenSensor.c ****  * Copyright YOUR COMPANY, THE YEAR
   4:.\LumenSensor.c ****  * All Rights Reserved
   5:.\LumenSensor.c ****  * UNPUBLISHED, LICENSED SOFTWARE.
   6:.\LumenSensor.c ****  *
   7:.\LumenSensor.c ****  * CONFIDENTIAL AND PROPRIETARY INFORMATION
   8:.\LumenSensor.c ****  * WHICH IS THE PROPERTY OF your company.
   9:.\LumenSensor.c ****  *
  10:.\LumenSensor.c ****  * ========================================
  11:.\LumenSensor.c **** */
  12:.\LumenSensor.c **** 
  13:.\LumenSensor.c **** #include "LumenSensor.h"
  14:.\LumenSensor.c **** #include "lux.h"
  15:.\LumenSensor.c **** 
  16:.\LumenSensor.c **** // Lumen sensor
  17:.\LumenSensor.c **** #define LUMEN_ADDR 0b0101001
  18:.\LumenSensor.c **** 
  19:.\LumenSensor.c **** void initLumenSensor()
  20:.\LumenSensor.c **** {
  26              		.loc 1 20 0
  27              		.cfi_startproc
  28 0000 00B5     		push	{lr}
  29              		.cfi_def_cfa_offset 4
  30              		.cfi_offset 14, -4
  31 0002 83B0     		sub	sp, sp, #12
  32              		.cfi_def_cfa_offset 16
  21:.\LumenSensor.c ****     uint8 writeBuf[2];
  22:.\LumenSensor.c ****     
  23:.\LumenSensor.c ****     // Add internal pull-up resistors on the SCL and SDA lines
  24:.\LumenSensor.c ****     LumenCom_scl_SetDriveMode(LumenCom_scl_DM_RES_UP);
  33              		.loc 1 24 0
ARM GAS  C:\Users\Simon\AppData\Local\Temp\ccxJTVpq.s 			page 2


  34 0004 0220     		mov	r0, #2
  35 0006 FFF7FEFF 		bl	LumenCom_scl_SetDriveMode
  36              	.LVL0:
  25:.\LumenSensor.c ****     LumenCom_sda_SetDriveMode(LumenCom_sda_DM_RES_UP);
  37              		.loc 1 25 0
  38 000a 0220     		mov	r0, #2
  39 000c FFF7FEFF 		bl	LumenCom_sda_SetDriveMode
  40              	.LVL1:
  26:.\LumenSensor.c **** 
  27:.\LumenSensor.c ****     LumenCom_Start();
  41              		.loc 1 27 0
  42 0010 FFF7FEFF 		bl	LumenCom_Start
  43              	.LVL2:
  28:.\LumenSensor.c ****     // Send command to sensor:
  29:.\LumenSensor.c ****     writeBuf[0] = 0x80;
  44              		.loc 1 29 0
  45 0014 01A9     		add	r1, sp, #4
  46 0016 8023     		mov	r3, #128
  47 0018 0B70     		strb	r3, [r1]
  30:.\LumenSensor.c ****     writeBuf[1] = 0x03;
  48              		.loc 1 30 0
  49 001a 7D3B     		sub	r3, r3, #125
  50 001c 4B70     		strb	r3, [r1, #1]
  31:.\LumenSensor.c ****     LumenCom_I2CMasterWriteBuf(LUMEN_ADDR, writeBuf, 2, LumenCom_I2C_MODE_COMPLETE_XFER);
  51              		.loc 1 31 0
  52 001e 2920     		mov	r0, #41
  53 0020 0222     		mov	r2, #2
  54 0022 0023     		mov	r3, #0
  55 0024 FFF7FEFF 		bl	LumenCom_I2CMasterWriteBuf
  56              	.LVL3:
  57              	.L2:
  32:.\LumenSensor.c ****     // Wait for the I2C command to finish transferring:
  33:.\LumenSensor.c ****     while(LumenCom_I2CMasterStatus() & LumenCom_I2C_MSTAT_XFER_INP) {}
  58              		.loc 1 33 0 discriminator 1
  59 0028 FFF7FEFF 		bl	LumenCom_I2CMasterStatus
  60              	.LVL4:
  61 002c 4307     		lsl	r3, r0, #29
  62 002e FBD4     		bmi	.L2
  34:.\LumenSensor.c **** }
  63              		.loc 1 34 0
  64 0030 03B0     		add	sp, sp, #12
  65              		@ sp needed
  66 0032 00BD     		pop	{pc}
  67              		.cfi_endproc
  68              	.LFE34:
  69              		.size	initLumenSensor, .-initLumenSensor
  70              		.section	.text.readLumenSensor,"ax",%progbits
  71              		.align	2
  72              		.global	readLumenSensor
  73              		.code	16
  74              		.thumb_func
  75              		.type	readLumenSensor, %function
  76              	readLumenSensor:
  77              	.LFB35:
  35:.\LumenSensor.c **** 
  36:.\LumenSensor.c **** unsigned int readLumenSensor()
  37:.\LumenSensor.c **** {
ARM GAS  C:\Users\Simon\AppData\Local\Temp\ccxJTVpq.s 			page 3


  78              		.loc 1 37 0
  79              		.cfi_startproc
  80 0000 10B5     		push	{r4, lr}
  81              		.cfi_def_cfa_offset 8
  82              		.cfi_offset 4, -8
  83              		.cfi_offset 14, -4
  84 0002 84B0     		sub	sp, sp, #16
  85              		.cfi_def_cfa_offset 24
  86              	.LVL5:
  38:.\LumenSensor.c ****     uint8 readBuf[2];
  39:.\LumenSensor.c ****     uint8 writeBuf[1];
  40:.\LumenSensor.c ****     unsigned int channel0 = 0;
  41:.\LumenSensor.c ****     unsigned int channel1 = 0;
  42:.\LumenSensor.c ****     uint32 err = 0;
  43:.\LumenSensor.c **** 
  44:.\LumenSensor.c ****     // Send "read channel 0" command
  45:.\LumenSensor.c ****     writeBuf[0] = 0xAC;
  87              		.loc 1 45 0
  88 0004 02A9     		add	r1, sp, #8
  89 0006 AC23     		mov	r3, #172
  90 0008 0B70     		strb	r3, [r1]
  46:.\LumenSensor.c ****     err = LumenCom_I2CMasterWriteBuf(LUMEN_ADDR, writeBuf, 1, LumenCom_I2C_MODE_NO_STOP);
  91              		.loc 1 46 0
  92 000a 2920     		mov	r0, #41
  93 000c 0122     		mov	r2, #1
  94 000e AA3B     		sub	r3, r3, #170
  95 0010 FFF7FEFF 		bl	LumenCom_I2CMasterWriteBuf
  96              	.LVL6:
  47:.\LumenSensor.c **** DEBUG_PutHexByte(err);
  97              		.loc 1 47 0
  98 0014 C0B2     		uxtb	r0, r0
  99              	.LVL7:
 100 0016 FFF7FEFF 		bl	DEBUG_PutHexByte
 101              	.LVL8:
  48:.\LumenSensor.c **** DEBUG_PutCRLF();
 102              		.loc 1 48 0
 103 001a FFF7FEFF 		bl	DEBUG_PutCRLF
 104              	.LVL9:
 105              	.L4:
  49:.\LumenSensor.c **** 
  50:.\LumenSensor.c ****     // Wait for the I2C command to finish transferring
  51:.\LumenSensor.c ****     while(!(LumenCom_I2CMasterStatus() & LumenCom_I2C_MSTAT_XFER_HALT)) {}
 106              		.loc 1 51 0 discriminator 1
 107 001e FFF7FEFF 		bl	LumenCom_I2CMasterStatus
 108              	.LVL10:
 109 0022 0307     		lsl	r3, r0, #28
 110 0024 FBD5     		bpl	.L4
  52:.\LumenSensor.c ****     // Read two bytes of data
  53:.\LumenSensor.c ****     err = LumenCom_I2CMasterReadBuf(LUMEN_ADDR, readBuf, 2,
 111              		.loc 1 53 0
 112 0026 2920     		mov	r0, #41
 113 0028 03A9     		add	r1, sp, #12
 114 002a 0222     		mov	r2, #2
 115 002c 0323     		mov	r3, #3
 116 002e FFF7FEFF 		bl	LumenCom_I2CMasterReadBuf
 117              	.LVL11:
  54:.\LumenSensor.c ****         LumenCom_I2C_MODE_REPEAT_START | LumenCom_I2C_MODE_NO_STOP);
ARM GAS  C:\Users\Simon\AppData\Local\Temp\ccxJTVpq.s 			page 4


  55:.\LumenSensor.c **** DEBUG_PutHexByte(err);
 118              		.loc 1 55 0
 119 0032 C0B2     		uxtb	r0, r0
 120              	.LVL12:
 121 0034 FFF7FEFF 		bl	DEBUG_PutHexByte
 122              	.LVL13:
  56:.\LumenSensor.c **** DEBUG_PutCRLF();
 123              		.loc 1 56 0
 124 0038 FFF7FEFF 		bl	DEBUG_PutCRLF
 125              	.LVL14:
 126              	.L5:
  57:.\LumenSensor.c **** 
  58:.\LumenSensor.c ****     // Wait for the I2C command to finish transferring
  59:.\LumenSensor.c ****     while(!(LumenCom_I2CMasterStatus() & LumenCom_I2C_MSTAT_XFER_HALT)) {}
 127              		.loc 1 59 0 discriminator 1
 128 003c FFF7FEFF 		bl	LumenCom_I2CMasterStatus
 129              	.LVL15:
 130 0040 0307     		lsl	r3, r0, #28
 131 0042 FBD5     		bpl	.L5
  60:.\LumenSensor.c **** 
  61:.\LumenSensor.c ****     channel0 = readBuf[0] + readBuf[1] * 256;
 132              		.loc 1 61 0
 133 0044 03AB     		add	r3, sp, #12
 134 0046 1A78     		ldrb	r2, [r3]
 135 0048 5C78     		ldrb	r4, [r3, #1]
 136 004a 2402     		lsl	r4, r4, #8
 137 004c 1419     		add	r4, r2, r4
 138              	.LVL16:
  62:.\LumenSensor.c **** 
  63:.\LumenSensor.c ****     // Send "read channel 1" command
  64:.\LumenSensor.c ****     writeBuf[0] = 0xAE;
 139              		.loc 1 64 0
 140 004e 02A9     		add	r1, sp, #8
 141 0050 AE23     		mov	r3, #174
 142 0052 0B70     		strb	r3, [r1]
  65:.\LumenSensor.c ****     err = LumenCom_I2CMasterWriteBuf(LUMEN_ADDR, writeBuf, 1,
 143              		.loc 1 65 0
 144 0054 2920     		mov	r0, #41
 145 0056 0122     		mov	r2, #1
 146 0058 AB3B     		sub	r3, r3, #171
 147 005a FFF7FEFF 		bl	LumenCom_I2CMasterWriteBuf
 148              	.LVL17:
  66:.\LumenSensor.c ****         LumenCom_I2C_MODE_REPEAT_START | LumenCom_I2C_MODE_NO_STOP);
  67:.\LumenSensor.c **** DEBUG_PutHexByte(err);
 149              		.loc 1 67 0
 150 005e C0B2     		uxtb	r0, r0
 151              	.LVL18:
 152 0060 FFF7FEFF 		bl	DEBUG_PutHexByte
 153              	.LVL19:
  68:.\LumenSensor.c **** DEBUG_PutCRLF();
 154              		.loc 1 68 0
 155 0064 FFF7FEFF 		bl	DEBUG_PutCRLF
 156              	.LVL20:
 157              	.L6:
  69:.\LumenSensor.c ****     // Wait for the I2C command to finish transferring
  70:.\LumenSensor.c ****     while(!(LumenCom_I2CMasterStatus() & LumenCom_I2C_MSTAT_XFER_HALT)) {}
 158              		.loc 1 70 0 discriminator 1
ARM GAS  C:\Users\Simon\AppData\Local\Temp\ccxJTVpq.s 			page 5


 159 0068 FFF7FEFF 		bl	LumenCom_I2CMasterStatus
 160              	.LVL21:
 161 006c 0307     		lsl	r3, r0, #28
 162 006e FBD5     		bpl	.L6
  71:.\LumenSensor.c ****     // Read two bytes of data
  72:.\LumenSensor.c ****     err = LumenCom_I2CMasterReadBuf(LUMEN_ADDR, readBuf, 2, LumenCom_I2C_MODE_REPEAT_START);
 163              		.loc 1 72 0
 164 0070 2920     		mov	r0, #41
 165 0072 03A9     		add	r1, sp, #12
 166 0074 0222     		mov	r2, #2
 167 0076 0123     		mov	r3, #1
 168 0078 FFF7FEFF 		bl	LumenCom_I2CMasterReadBuf
 169              	.LVL22:
  73:.\LumenSensor.c **** DEBUG_PutHexByte(err);
 170              		.loc 1 73 0
 171 007c C0B2     		uxtb	r0, r0
 172              	.LVL23:
 173 007e FFF7FEFF 		bl	DEBUG_PutHexByte
 174              	.LVL24:
  74:.\LumenSensor.c **** DEBUG_PutCRLF();
 175              		.loc 1 74 0
 176 0082 FFF7FEFF 		bl	DEBUG_PutCRLF
 177              	.LVL25:
 178              	.L7:
  75:.\LumenSensor.c **** 
  76:.\LumenSensor.c ****     // Wait for the I2C command to finish transferring
  77:.\LumenSensor.c ****     while(LumenCom_I2CMasterStatus() & LumenCom_I2C_MSTAT_XFER_INP) {}
 179              		.loc 1 77 0 discriminator 1
 180 0086 FFF7FEFF 		bl	LumenCom_I2CMasterStatus
 181              	.LVL26:
 182 008a 4307     		lsl	r3, r0, #29
 183 008c FBD4     		bmi	.L7
  78:.\LumenSensor.c **** 
  79:.\LumenSensor.c ****     channel1 = readBuf[0] + readBuf[1] * 256;
 184              		.loc 1 79 0
 185 008e 03AA     		add	r2, sp, #12
 186 0090 1178     		ldrb	r1, [r2]
 187 0092 5378     		ldrb	r3, [r2, #1]
 188 0094 1B02     		lsl	r3, r3, #8
 189 0096 CB18     		add	r3, r1, r3
 190              	.LVL27:
  80:.\LumenSensor.c **** 
  81:.\LumenSensor.c ****     // Use Datasheet function to calculate lux value from read values
  82:.\LumenSensor.c ****     return CalculateLux(0, 2, channel0, channel1, 0);
 191              		.loc 1 82 0
 192 0098 0022     		mov	r2, #0
 193 009a 0092     		str	r2, [sp]
 194 009c 0020     		mov	r0, #0
 195 009e 0221     		mov	r1, #2
 196 00a0 221C     		mov	r2, r4
 197 00a2 FFF7FEFF 		bl	CalculateLux
 198              	.LVL28:
  83:.\LumenSensor.c **** }
 199              		.loc 1 83 0
 200 00a6 04B0     		add	sp, sp, #16
 201              		@ sp needed
 202              	.LVL29:
ARM GAS  C:\Users\Simon\AppData\Local\Temp\ccxJTVpq.s 			page 6


 203 00a8 10BD     		pop	{r4, pc}
 204              		.cfi_endproc
 205              	.LFE35:
 206              		.size	readLumenSensor, .-readLumenSensor
 207 00aa C046     		.text
 208              	.Letext0:
 209              		.file 2 "Generated_Source\\PSoC4/cytypes.h"
 210              		.file 3 "Generated_Source\\PSoC4/LumenCom_scl.h"
 211              		.file 4 "Generated_Source\\PSoC4/LumenCom_sda.h"
 212              		.file 5 "Generated_Source\\PSoC4/DEBUG.h"
 213              		.file 6 "Generated_Source\\PSoC4/LumenCom.h"
 214              		.file 7 "Generated_Source\\PSoC4/LumenCom_I2C.h"
 215              		.file 8 ".\\lux.h"