ARM GAS  C:\Users\Simon\AppData\Local\Temp\ccY6XOlk.s 			page 1


   1              		.cpu cortex-m0
   2              		.fpu softvfp
   3              		.eabi_attribute 20, 1
   4              		.eabi_attribute 21, 1
   5              		.eabi_attribute 23, 3
   6              		.eabi_attribute 24, 1
   7              		.eabi_attribute 25, 1
   8              		.eabi_attribute 26, 1
   9              		.eabi_attribute 30, 1
  10              		.eabi_attribute 34, 0
  11              		.eabi_attribute 18, 4
  12              		.code	16
  13              		.file	"main.c"
  14              		.text
  15              	.Ltext0:
  16              		.cfi_sections	.debug_frame
  17              		.global	__aeabi_idiv
  18              		.section	.text.DistTimer_Interrupt,"ax",%progbits
  19              		.align	2
  20              		.global	DistTimer_Interrupt
  21              		.code	16
  22              		.thumb_func
  23              		.type	DistTimer_Interrupt, %function
  24              	DistTimer_Interrupt:
  25              	.LFB37:
  26              		.file 1 ".\\main.c"
   1:.\main.c      **** /*!
   2:.\main.c      ****  *  @file        Handler.c
   3:.\main.c      ****  *  @brief       Main file for Sensor-PSoC
   4:.\main.c      ****  *
   5:.\main.c      ****  *  Contains the main loop and control structure for the Sensor-PSoC.
   6:.\main.c      ****  *  The main control is the Metronome timer which generates an interrupt every
   7:.\main.c      ****  *      half second. This interrupt then increases a set of counters which, in
   8:.\main.c      ****  *      turn, set flags when the counters overflow. This allows us to define
   9:.\main.c      ****  *      periodic events that trigger on integer multiple of half seconds.
  10:.\main.c      ****  *
  11:.\main.c      ****  *  @author      Simon Nejmann (19981127@uni.au.dk)
  12:.\main.c      ****  */
  13:.\main.c      **** #include <project.h>
  14:.\main.c      **** #include <stdio.h>
  15:.\main.c      **** #include "SensorData.h"
  16:.\main.c      **** #include "LumenSensor.h"
  17:.\main.c      **** #include "handler.h"
  18:.\main.c      **** #include "i2c.h"
  19:.\main.c      **** #include "queue.h"
  20:.\main.c      **** 
  21:.\main.c      **** /*! Debug define. Comment out to suppress debug prints */
  22:.\main.c      **** #define DEBUG_ON
  23:.\main.c      **** char bla[150];
  24:.\main.c      **** 
  25:.\main.c      **** void scaleLedPWM();
  26:.\main.c      **** 
  27:.\main.c      **** // Main loop control stuff
  28:.\main.c      **** enum sensor {DIST, LUMEN, PIR, DIST_ALERT, MOVE_ALERT};
  29:.\main.c      **** enum ctrl {COUNT, RATE, FLAG};
  30:.\main.c      **** char controlFlags[5][3] = {
  31:.\main.c      ****     {1,-1, 0},
ARM GAS  C:\Users\Simon\AppData\Local\Temp\ccY6XOlk.s 			page 2


  32:.\main.c      ****     {1,-1, 0},
  33:.\main.c      ****     {1,-1, 0},
  34:.\main.c      ****     {1,-1, 0},
  35:.\main.c      ****     {1,-1, 0}
  36:.\main.c      **** };
  37:.\main.c      **** void initCtrlFlags()
  38:.\main.c      **** {
  39:.\main.c      ****     controlFlags[DIST][RATE] = 3;
  40:.\main.c      ****     controlFlags[LUMEN][RATE] = 2;
  41:.\main.c      ****     controlFlags[PIR][RATE] = 1;
  42:.\main.c      **** 
  43:.\main.c      ****     controlFlags[MOVE_ALERT][RATE] = 1;
  44:.\main.c      **** }
  45:.\main.c      **** void incrCtrlFlag(enum sensor se)
  46:.\main.c      **** {
  47:.\main.c      ****     controlFlags[se][COUNT] = (controlFlags[se][COUNT] + 1) % controlFlags[se][RATE];
  48:.\main.c      ****     if (controlFlags[se][COUNT] == 0) {
  49:.\main.c      ****         controlFlags[se][FLAG] = 1;
  50:.\main.c      ****     }
  51:.\main.c      **** }
  52:.\main.c      **** CY_ISR(Metronome_Interrupt)
  53:.\main.c      **** {
  54:.\main.c      ****     // Clear interrupt
  55:.\main.c      ****     MetronomeTimer_ReadStatusRegister();
  56:.\main.c      **** 
  57:.\main.c      ****     incrCtrlFlag(DIST);
  58:.\main.c      ****     incrCtrlFlag(LUMEN);
  59:.\main.c      ****     incrCtrlFlag(PIR);
  60:.\main.c      ****     // Not DIST_ALERT
  61:.\main.c      ****     incrCtrlFlag(MOVE_ALERT);
  62:.\main.c      **** 
  63:.\main.c      **** #ifdef DEBUG_ON
  64:.\main.c      **** //    DEBUG_PutString("Beat\r\n");
  65:.\main.c      **** #endif
  66:.\main.c      **** }
  67:.\main.c      **** 
  68:.\main.c      **** // Flag: Have we already triggered a "too close" alert?
  69:.\main.c      **** uint8 distAlertTriggered = 0;
  70:.\main.c      **** // Afstandssensor
  71:.\main.c      **** CY_ISR(DistTimer_Interrupt)
  72:.\main.c      **** {
  27              		.loc 1 72 0
  28              		.cfi_startproc
  29 0000 10B5     		push	{r4, lr}
  30              		.cfi_def_cfa_offset 8
  31              		.cfi_offset 4, -8
  32              		.cfi_offset 14, -4
  73:.\main.c      ****     //  Calculate distance from delay. Basic formula: cm = micro-seconds / 58
  74:.\main.c      ****     //      Timer counts down from 2^16, so start at 2^16 and subtract timer.
  75:.\main.c      ****     int echoDelay = (1<<16) - DistTimer_ReadCapture();
  33              		.loc 1 75 0
  34 0002 FFF7FEFF 		bl	DistTimer_ReadCapture
  35              	.LVL0:
  36 0006 8024     		mov	r4, #128
  37 0008 6402     		lsl	r4, r4, #9
  38 000a 241A     		sub	r4, r4, r0
  39              	.LVL1:
ARM GAS  C:\Users\Simon\AppData\Local\Temp\ccY6XOlk.s 			page 3


  76:.\main.c      **** 
  77:.\main.c      ****     //  Integer calculations means everything gets rounded down, so add
  78:.\main.c      ****     //      half a cm (58/2) to make 3.5 round up instead.
  79:.\main.c      ****     sensorData.distance = (echoDelay + 58/2) / 58;
  40              		.loc 1 79 0
  41 000c 0D4B     		ldr	r3, .L4
  42 000e 181A     		sub	r0, r3, r0
  43 0010 3A21     		mov	r1, #58
  44 0012 FFF7FEFF 		bl	__aeabi_idiv
  45              	.LVL2:
  46 0016 0C4B     		ldr	r3, .L4+4
  47 0018 8822     		mov	r2, #136
  48 001a 9850     		str	r0, [r3, r2]
  80:.\main.c      **** 
  81:.\main.c      ****     // Check if we are too close - check done in time domain due to greater resolution
  82:.\main.c      ****     if (echoDelay < sensorData.desiredTimeDistance) {
  49              		.loc 1 82 0
  50 001c 0432     		add	r2, r2, #4
  51 001e 9B58     		ldr	r3, [r3, r2]
  52 0020 A342     		cmp	r3, r4
  53 0022 03DD     		ble	.L2
  83:.\main.c      ****         controlFlags[DIST_ALERT][FLAG] = 1;
  54              		.loc 1 83 0
  55 0024 8B3A     		sub	r2, r2, #139
  56 0026 094B     		ldr	r3, .L4+8
  57 0028 DA72     		strb	r2, [r3, #11]
  58 002a 07E0     		b	.L3
  59              	.L2:
  84:.\main.c      ****     } else {
  85:.\main.c      ****         distAlertTriggered = 0;
  60              		.loc 1 85 0
  61 002c 0024     		mov	r4, #0
  62              	.LVL3:
  63 002e 084B     		ldr	r3, .L4+12
  64 0030 1C70     		strb	r4, [r3]
  86:.\main.c      ****         DistInterruptPin_Write(0);
  65              		.loc 1 86 0
  66 0032 0020     		mov	r0, #0
  67 0034 FFF7FEFF 		bl	DistInterruptPin_Write
  68              	.LVL4:
  87:.\main.c      ****         controlFlags[DIST_ALERT][COUNT] = 0;
  69              		.loc 1 87 0
  70 0038 044B     		ldr	r3, .L4+8
  71 003a 5C72     		strb	r4, [r3, #9]
  72              	.L3:
  88:.\main.c      ****     }
  89:.\main.c      **** 
  90:.\main.c      ****     // Reset the timer
  91:.\main.c      ****     DistReset_Write(1);
  73              		.loc 1 91 0
  74 003c 0120     		mov	r0, #1
  75 003e FFF7FEFF 		bl	DistReset_Write
  76              	.LVL5:
  92:.\main.c      **** 
  93:.\main.c      **** #ifdef DEBUG_ON
  94:.\main.c      **** //    sprintf(bla, "Dist: %i\n\r", sensorData.distance);
  95:.\main.c      **** //    DEBUG_PutString(bla);
ARM GAS  C:\Users\Simon\AppData\Local\Temp\ccY6XOlk.s 			page 4


  96:.\main.c      **** #endif
  97:.\main.c      **** }
  77              		.loc 1 97 0
  78              		@ sp needed
  79 0042 10BD     		pop	{r4, pc}
  80              	.L5:
  81              		.align	2
  82              	.L4:
  83 0044 1D000100 		.word	65565
  84 0048 00000000 		.word	sensorData
  85 004c 00000000 		.word	.LANCHOR0
  86 0050 00000000 		.word	.LANCHOR1
  87              		.cfi_endproc
  88              	.LFE37:
  89              		.size	DistTimer_Interrupt, .-DistTimer_Interrupt
  90              		.section	.text.initCtrlFlags,"ax",%progbits
  91              		.align	2
  92              		.global	initCtrlFlags
  93              		.code	16
  94              		.thumb_func
  95              		.type	initCtrlFlags, %function
  96              	initCtrlFlags:
  97              	.LFB34:
  38:.\main.c      ****     controlFlags[DIST][RATE] = 3;
  98              		.loc 1 38 0
  99              		.cfi_startproc
  39:.\main.c      ****     controlFlags[LUMEN][RATE] = 2;
 100              		.loc 1 39 0
 101 0000 044B     		ldr	r3, .L7
 102 0002 0322     		mov	r2, #3
 103 0004 5A70     		strb	r2, [r3, #1]
  40:.\main.c      ****     controlFlags[PIR][RATE] = 1;
 104              		.loc 1 40 0
 105 0006 013A     		sub	r2, r2, #1
 106 0008 1A71     		strb	r2, [r3, #4]
  41:.\main.c      **** 
 107              		.loc 1 41 0
 108 000a 013A     		sub	r2, r2, #1
 109 000c DA71     		strb	r2, [r3, #7]
  43:.\main.c      **** }
 110              		.loc 1 43 0
 111 000e 5A73     		strb	r2, [r3, #13]
  44:.\main.c      **** void incrCtrlFlag(enum sensor se)
 112              		.loc 1 44 0
 113              		@ sp needed
 114 0010 7047     		bx	lr
 115              	.L8:
 116 0012 C046     		.align	2
 117              	.L7:
 118 0014 00000000 		.word	.LANCHOR0
 119              		.cfi_endproc
 120              	.LFE34:
 121              		.size	initCtrlFlags, .-initCtrlFlags
 122              		.global	__aeabi_idivmod
 123              		.section	.text.incrCtrlFlag,"ax",%progbits
 124              		.align	2
 125              		.global	incrCtrlFlag
ARM GAS  C:\Users\Simon\AppData\Local\Temp\ccY6XOlk.s 			page 5


 126              		.code	16
 127              		.thumb_func
 128              		.type	incrCtrlFlag, %function
 129              	incrCtrlFlag:
 130              	.LFB35:
  46:.\main.c      ****     controlFlags[se][COUNT] = (controlFlags[se][COUNT] + 1) % controlFlags[se][RATE];
 131              		.loc 1 46 0
 132              		.cfi_startproc
 133              	.LVL6:
 134 0000 70B5     		push	{r4, r5, r6, lr}
 135              		.cfi_def_cfa_offset 16
 136              		.cfi_offset 4, -16
 137              		.cfi_offset 5, -12
 138              		.cfi_offset 6, -8
 139              		.cfi_offset 14, -4
  47:.\main.c      ****     if (controlFlags[se][COUNT] == 0) {
 140              		.loc 1 47 0
 141 0002 084E     		ldr	r6, .L11
 142 0004 4500     		lsl	r5, r0, #1
 143 0006 2D18     		add	r5, r5, r0
 144 0008 A85D     		ldrb	r0, [r5, r6]
 145              	.LVL7:
 146 000a 0130     		add	r0, r0, #1
 147 000c 7319     		add	r3, r6, r5
 148 000e 5978     		ldrb	r1, [r3, #1]
 149 0010 FFF7FEFF 		bl	__aeabi_idivmod
 150              	.LVL8:
 151 0014 C9B2     		uxtb	r1, r1
 152 0016 A955     		strb	r1, [r5, r6]
  48:.\main.c      ****         controlFlags[se][FLAG] = 1;
 153              		.loc 1 48 0
 154 0018 0029     		cmp	r1, #0
 155 001a 02D1     		bne	.L9
  49:.\main.c      ****     }
 156              		.loc 1 49 0
 157 001c 7419     		add	r4, r6, r5
 158 001e 0123     		mov	r3, #1
 159 0020 A370     		strb	r3, [r4, #2]
 160              	.L9:
  51:.\main.c      **** CY_ISR(Metronome_Interrupt)
 161              		.loc 1 51 0
 162              		@ sp needed
 163 0022 70BD     		pop	{r4, r5, r6, pc}
 164              	.L12:
 165              		.align	2
 166              	.L11:
 167 0024 00000000 		.word	.LANCHOR0
 168              		.cfi_endproc
 169              	.LFE35:
 170              		.size	incrCtrlFlag, .-incrCtrlFlag
 171              		.section	.text.Metronome_Interrupt,"ax",%progbits
 172              		.align	2
 173              		.global	Metronome_Interrupt
 174              		.code	16
 175              		.thumb_func
 176              		.type	Metronome_Interrupt, %function
 177              	Metronome_Interrupt:
ARM GAS  C:\Users\Simon\AppData\Local\Temp\ccY6XOlk.s 			page 6


 178              	.LFB36:
  53:.\main.c      ****     // Clear interrupt
 179              		.loc 1 53 0
 180              		.cfi_startproc
 181 0000 08B5     		push	{r3, lr}
 182              		.cfi_def_cfa_offset 8
 183              		.cfi_offset 3, -8
 184              		.cfi_offset 14, -4
  55:.\main.c      **** 
 185              		.loc 1 55 0
 186 0002 FFF7FEFF 		bl	MetronomeTimer_ReadStatusRegister
 187              	.LVL9:
  57:.\main.c      ****     incrCtrlFlag(LUMEN);
 188              		.loc 1 57 0
 189 0006 0020     		mov	r0, #0
 190 0008 FFF7FEFF 		bl	incrCtrlFlag
 191              	.LVL10:
  58:.\main.c      ****     incrCtrlFlag(PIR);
 192              		.loc 1 58 0
 193 000c 0120     		mov	r0, #1
 194 000e FFF7FEFF 		bl	incrCtrlFlag
 195              	.LVL11:
  59:.\main.c      ****     // Not DIST_ALERT
 196              		.loc 1 59 0
 197 0012 0220     		mov	r0, #2
 198 0014 FFF7FEFF 		bl	incrCtrlFlag
 199              	.LVL12:
  61:.\main.c      **** 
 200              		.loc 1 61 0
 201 0018 0420     		mov	r0, #4
 202 001a FFF7FEFF 		bl	incrCtrlFlag
 203              	.LVL13:
  66:.\main.c      **** 
 204              		.loc 1 66 0
 205              		@ sp needed
 206 001e 08BD     		pop	{r3, pc}
 207              		.cfi_endproc
 208              	.LFE36:
 209              		.size	Metronome_Interrupt, .-Metronome_Interrupt
 210              		.section	.rodata.cst2,"aM",%progbits,2
 211              		.align	1
 212              	.LC9:
 213 0000 F6FF     		.short	-10
 214              		.section	.text.scaleLedPWM,"ax",%progbits
 215              		.align	2
 216              		.global	scaleLedPWM
 217              		.code	16
 218              		.thumb_func
 219              		.type	scaleLedPWM, %function
 220              	scaleLedPWM:
 221              	.LFB39:
  98:.\main.c      **** 
  99:.\main.c      **** int main()
 100:.\main.c      **** {
 101:.\main.c      ****     CyGlobalIntEnable; /* Enable global interrupts. */
 102:.\main.c      **** 
 103:.\main.c      ****     // Data collection
ARM GAS  C:\Users\Simon\AppData\Local\Temp\ccY6XOlk.s 			page 7


 104:.\main.c      ****     initSensorData();
 105:.\main.c      ****     
 106:.\main.c      ****     // Afstandssensor
 107:.\main.c      ****     DistTimer_Start();
 108:.\main.c      ****     DistTimerInt_StartEx(DistTimer_Interrupt);
 109:.\main.c      ****     
 110:.\main.c      ****     // Lumen sensor
 111:.\main.c      ****     initLumenSensor();
 112:.\main.c      **** 
 113:.\main.c      ****     // LED PWM
 114:.\main.c      ****     GreenPWM_Start();
 115:.\main.c      ****     RedPWM_Start();
 116:.\main.c      ****     BluePWM_Start();
 117:.\main.c      ****     
 118:.\main.c      ****     // Main command loop
 119:.\main.c      ****     initCtrlFlags();
 120:.\main.c      ****     MetronomeTimer_Start();
 121:.\main.c      ****     MetronomeISR_StartEx(Metronome_Interrupt);
 122:.\main.c      ****     queue_init(6u);
 123:.\main.c      ****     i2c_init();
 124:.\main.c      **** 
 125:.\main.c      ****     for(;;)
 126:.\main.c      ****     {
 127:.\main.c      ****         // Handle communication with PSoC4Master
 128:.\main.c      ****         i2c_rx();
 129:.\main.c      ****         if(isEmptyQueue() != 1)
 130:.\main.c      ****         {   char queue[25];
 131:.\main.c      ****             struct Data action;
 132:.\main.c      ****             action = frontQueue();
 133:.\main.c      ****             handler(action.cmd_, action.val_);
 134:.\main.c      ****             sprintf(queue, "Queue: %i Cmd: %i Cal: %i\n\r", queueCount_,action.cmd_, action.val_);
 135:.\main.c      ****             DEBUG_PutString(queue);
 136:.\main.c      ****             popQueue();
 137:.\main.c      ****         }
 138:.\main.c      ****         i2c_tx();
 139:.\main.c      ****         
 140:.\main.c      ****         // Afstandssensor
 141:.\main.c      ****         if (controlFlags[DIST][FLAG]) {
 142:.\main.c      ****             controlFlags[DIST][FLAG] = 0;
 143:.\main.c      ****             // Start the distance sensor by holding the trigger pin high for 10us
 144:.\main.c      ****             DistReset_Write(0);
 145:.\main.c      ****             DistTrigger_Write(1);
 146:.\main.c      ****             CyDelayUs(10);
 147:.\main.c      ****             DistTrigger_Write(0);
 148:.\main.c      ****         }
 149:.\main.c      **** 
 150:.\main.c      ****         if (controlFlags[DIST_ALERT][FLAG]) {
 151:.\main.c      ****             controlFlags[DIST_ALERT][FLAG] = 0;
 152:.\main.c      ****             
 153:.\main.c      ****             // Have to get two "too close" readings in a row to trigger alert
 154:.\main.c      ****             ++(controlFlags[DIST_ALERT][COUNT]);
 155:.\main.c      ****             if (!distAlertTriggered && controlFlags[DIST_ALERT][COUNT] >= 1) {
 156:.\main.c      ****                 // Set counter to fixed value - keeps it high but prevents overflow
 157:.\main.c      ****                 controlFlags[DIST_ALERT][COUNT] = 10;
 158:.\main.c      ****                 distAlertTriggered = 1;
 159:.\main.c      ****                 DistInterruptPin_Write(1);
 160:.\main.c      ****                 handler(cmdDistanceAlert, 0xff);
ARM GAS  C:\Users\Simon\AppData\Local\Temp\ccY6XOlk.s 			page 8


 161:.\main.c      ****             }
 162:.\main.c      ****         }
 163:.\main.c      ****         
 164:.\main.c      ****         // PIR sensor
 165:.\main.c      ****         if (controlFlags[PIR][FLAG]) {
 166:.\main.c      ****             controlFlags[PIR][FLAG] = 0;
 167:.\main.c      **** 
 168:.\main.c      ****             if (sensorData.movementAlertOn) {
 169:.\main.c      ****                 // Read the PIR sensor output
 170:.\main.c      ****                 int tmp = PIR_Trig_Read();
 171:.\main.c      ****                 // If there is movement now but not before
 172:.\main.c      ****                 if (tmp && (tmp != sensorData.movement)) {
 173:.\main.c      ****                     handler(cmdMovementAlert, 0xff);
 174:.\main.c      ****                 }
 175:.\main.c      ****                 // Store new value
 176:.\main.c      ****                 sensorData.movement = tmp;
 177:.\main.c      ****             } else {
 178:.\main.c      ****                 sensorData.movement = 0;
 179:.\main.c      ****             }
 180:.\main.c      ****         }
 181:.\main.c      **** 
 182:.\main.c      ****         if (controlFlags[MOVE_ALERT][FLAG]) {
 183:.\main.c      ****             controlFlags[MOVE_ALERT][FLAG] = 0;
 184:.\main.c      **** 
 185:.\main.c      ****             if (sensorData.movementAlertOn) {
 186:.\main.c      ****                 if (sensorData.movement) {
 187:.\main.c      ****                     sensorData.ledPower = 1;
 188:.\main.c      ****                     RedPWM_Start();
 189:.\main.c      ****                     GreenPWM_Start();
 190:.\main.c      ****                     BluePWM_Start();
 191:.\main.c      ****                     RedPWM_WriteCompare(sensorData.redPWMPct);
 192:.\main.c      ****                     GreenPWM_WriteCompare(sensorData.greenPWMPct);
 193:.\main.c      ****                     BluePWM_WriteCompare(sensorData.bluePWMPct);
 194:.\main.c      ****                 } else {
 195:.\main.c      ****                     sensorData.ledPower = 0;
 196:.\main.c      ****                     RedPWM_Stop();
 197:.\main.c      ****                     GreenPWM_Stop();
 198:.\main.c      ****                     BluePWM_Stop();
 199:.\main.c      ****                 }
 200:.\main.c      ****             }
 201:.\main.c      ****         }
 202:.\main.c      **** 
 203:.\main.c      ****         // Lumen sensor
 204:.\main.c      ****         if (controlFlags[LUMEN][FLAG]) {
 205:.\main.c      ****             controlFlags[LUMEN][FLAG] = 0;
 206:.\main.c      ****             // Read the lux value from the sensor
 207:.\main.c      ****             unsigned int luxValue = readLumenSensor();
 208:.\main.c      ****             // Add lux value to history
 209:.\main.c      ****             insertValue(&sensorData.LumenMean, luxValue);
 210:.\main.c      ****             sensorData.lux = getMeanValue(&sensorData.LumenMean);
 211:.\main.c      **** 
 212:.\main.c      ****             if (sensorData.ledPower && sensorData.desiredLux != 0) {
 213:.\main.c      ****                 scaleLedPWM();
 214:.\main.c      ****             }
 215:.\main.c      ****             
 216:.\main.c      **** #ifdef DEBUG_ON
 217:.\main.c      ****             sprintf(bla, "Lux: %u, mean: %i\n\r", luxValue, sensorData.lux);
ARM GAS  C:\Users\Simon\AppData\Local\Temp\ccY6XOlk.s 			page 9


 218:.\main.c      ****             DEBUG_PutString(bla);
 219:.\main.c      **** #endif
 220:.\main.c      ****         }
 221:.\main.c      ****     }
 222:.\main.c      **** }
 223:.\main.c      **** 
 224:.\main.c      **** void scaleLedPWM()
 225:.\main.c      **** {
 222              		.loc 1 225 0
 223              		.cfi_startproc
 224 0000 F0B5     		push	{r4, r5, r6, r7, lr}
 225              		.cfi_def_cfa_offset 20
 226              		.cfi_offset 4, -20
 227              		.cfi_offset 5, -16
 228              		.cfi_offset 6, -12
 229              		.cfi_offset 7, -8
 230              		.cfi_offset 14, -4
 231 0002 4F46     		mov	r7, r9
 232 0004 80B4     		push	{r7}
 233              		.cfi_def_cfa_offset 24
 234              		.cfi_offset 9, -24
 235 0006 84B0     		sub	sp, sp, #16
 236              		.cfi_def_cfa_offset 40
 226:.\main.c      ****     // Work in scaled units since the LedPWMs also use the 0-255 range
 227:.\main.c      ****     uint8 luxFF = scaleLuxToFF(sensorData.lux);
 237              		.loc 1 227 0
 238 0008 204C     		ldr	r4, .L17
 239 000a 2068     		ldr	r0, [r4]
 240 000c FFF7FEFF 		bl	scaleLuxToFF
 241              	.LVL14:
 242 0010 051C     		mov	r5, r0
 243              	.LVL15:
 228:.\main.c      ****     uint8 luxDesFF = scaleLuxToFF(sensorData.desiredLux);
 244              		.loc 1 228 0
 245 0012 6068     		ldr	r0, [r4, #4]
 246 0014 FFF7FEFF 		bl	scaleLuxToFF
 247              	.LVL16:
 229:.\main.c      ****     int16 delta = luxDesFF - luxFF;
 248              		.loc 1 229 0
 249 0018 401B     		sub	r0, r0, r5
 250              	.LVL17:
 251 001a 80B2     		uxth	r0, r0
 252              	.LVL18:
 230:.\main.c      **** 
 231:.\main.c      ****     // Keep delta in check - don't want light-levels jumping too much
 232:.\main.c      ****     delta = (delta > 10) ? 10 : delta;
 253              		.loc 1 232 0
 254 001c 031C     		add	r3, r0, #0
 255 001e 00B2     		sxth	r0, r0
 256              	.LVL19:
 257 0020 0A28     		cmp	r0, #10
 258 0022 00DD     		ble	.L15
 259 0024 0A23     		mov	r3, #10
 260              	.LVL20:
 261              	.L15:
 233:.\main.c      ****     delta = (delta < -10) ? -10 : delta;
 262              		.loc 1 233 0
ARM GAS  C:\Users\Simon\AppData\Local\Temp\ccY6XOlk.s 			page 10


 263 0026 1A1C     		add	r2, r3, #0
 264 0028 1BB2     		sxth	r3, r3
 265              	.LVL21:
 266 002a 0A33     		add	r3, r3, #10
 267 002c 01DA     		bge	.L16
 268 002e 184B     		ldr	r3, .L17+4
 269 0030 1A88     		ldrh	r2, [r3]
 270              	.LVL22:
 271              	.L16:
 272 0032 93B2     		uxth	r3, r2
 273 0034 9946     		mov	r9, r3
 274              	.LVL23:
 234:.\main.c      ****     
 235:.\main.c      **** #ifdef DEBUG_ON
 236:.\main.c      ****     sprintf(bla, "Delta: %i, RGB: %i, %i, %i\n\r", delta,
 237:.\main.c      ****         sensorData.redPWMPct, sensorData.greenPWMPct, sensorData.bluePWMPct);
 275              		.loc 1 237 0
 276 0036 154C     		ldr	r4, .L17
 277 0038 9127     		mov	r7, #145
 278 003a E35D     		ldrb	r3, [r4, r7]
 279 003c 9026     		mov	r6, #144
 280 003e A05D     		ldrb	r0, [r4, r6]
 281 0040 9225     		mov	r5, #146
 282              	.LVL24:
 283 0042 615D     		ldrb	r1, [r4, r5]
 236:.\main.c      ****         sensorData.redPWMPct, sensorData.greenPWMPct, sensorData.bluePWMPct);
 284              		.loc 1 236 0
 285 0044 12B2     		sxth	r2, r2
 286 0046 0090     		str	r0, [sp]
 287 0048 0191     		str	r1, [sp, #4]
 288 004a 1248     		ldr	r0, .L17+8
 289 004c 1249     		ldr	r1, .L17+12
 290 004e FFF7FEFF 		bl	sprintf
 291              	.LVL25:
 238:.\main.c      ****     DEBUG_PutString(bla);
 292              		.loc 1 238 0
 293 0052 1048     		ldr	r0, .L17+8
 294 0054 FFF7FEFF 		bl	DEBUG_PutString
 295              	.LVL26:
 239:.\main.c      **** #endif
 240:.\main.c      **** 
 241:.\main.c      **** // Scale LEDs by delta
 242:.\main.c      ****     sensorData.redPWMPct += delta;
 296              		.loc 1 242 0
 297 0058 4B46     		mov	r3, r9
 298 005a 6A46     		mov	r2, sp
 299 005c D373     		strb	r3, [r2, #15]
 300 005e D37B     		ldrb	r3, [r2, #15]
 301 0060 E05D     		ldrb	r0, [r4, r7]
 302 0062 1818     		add	r0, r3, r0
 303 0064 C0B2     		uxtb	r0, r0
 304 0066 E055     		strb	r0, [r4, r7]
 243:.\main.c      ****     sensorData.greenPWMPct += delta;
 305              		.loc 1 243 0
 306 0068 A25D     		ldrb	r2, [r4, r6]
 307 006a 9A18     		add	r2, r3, r2
 308 006c A255     		strb	r2, [r4, r6]
ARM GAS  C:\Users\Simon\AppData\Local\Temp\ccY6XOlk.s 			page 11


 244:.\main.c      ****     sensorData.bluePWMPct += delta;
 309              		.loc 1 244 0
 310 006e 625D     		ldrb	r2, [r4, r5]
 311 0070 9B18     		add	r3, r3, r2
 312 0072 6355     		strb	r3, [r4, r5]
 245:.\main.c      **** 
 246:.\main.c      ****     RedPWM_WriteCompare(sensorData.redPWMPct);
 313              		.loc 1 246 0
 314 0074 FFF7FEFF 		bl	RedPWM_WriteCompare
 315              	.LVL27:
 247:.\main.c      ****     GreenPWM_WriteCompare(sensorData.greenPWMPct);
 316              		.loc 1 247 0
 317 0078 A05D     		ldrb	r0, [r4, r6]
 318 007a FFF7FEFF 		bl	GreenPWM_WriteCompare
 319              	.LVL28:
 248:.\main.c      ****     BluePWM_WriteCompare(sensorData.bluePWMPct);
 320              		.loc 1 248 0
 321 007e 605D     		ldrb	r0, [r4, r5]
 322 0080 FFF7FEFF 		bl	BluePWM_WriteCompare
 323              	.LVL29:
 249:.\main.c      **** }
 324              		.loc 1 249 0
 325 0084 04B0     		add	sp, sp, #16
 326              		@ sp needed
 327              	.LVL30:
 328 0086 04BC     		pop	{r2}
 329 0088 9146     		mov	r9, r2
 330 008a F0BD     		pop	{r4, r5, r6, r7, pc}
 331              	.L18:
 332              		.align	2
 333              	.L17:
 334 008c 00000000 		.word	sensorData
 335 0090 00000000 		.word	.LC9
 336 0094 00000000 		.word	bla
 337 0098 00000000 		.word	.LC7
 338              		.cfi_endproc
 339              	.LFE39:
 340              		.size	scaleLedPWM, .-scaleLedPWM
 341              		.section	.text.main,"ax",%progbits
 342              		.align	2
 343              		.global	main
 344              		.code	16
 345              		.thumb_func
 346              		.type	main, %function
 347              	main:
 348              	.LFB38:
 100:.\main.c      ****     CyGlobalIntEnable; /* Enable global interrupts. */
 349              		.loc 1 100 0
 350              		.cfi_startproc
 351 0000 30B5     		push	{r4, r5, lr}
 352              		.cfi_def_cfa_offset 12
 353              		.cfi_offset 4, -12
 354              		.cfi_offset 5, -8
 355              		.cfi_offset 14, -4
 356 0002 8DB0     		sub	sp, sp, #52
 357              		.cfi_def_cfa_offset 64
 101:.\main.c      **** 
ARM GAS  C:\Users\Simon\AppData\Local\Temp\ccY6XOlk.s 			page 12


 358              		.loc 1 101 0
 359              	@ 101 ".\main.c" 1
 360 0004 62B6     		CPSIE   i
 361              	@ 0 "" 2
 104:.\main.c      ****     
 362              		.loc 1 104 0
 363              		.code	16
 364 0006 FFF7FEFF 		bl	initSensorData
 365              	.LVL31:
 107:.\main.c      ****     DistTimerInt_StartEx(DistTimer_Interrupt);
 366              		.loc 1 107 0
 367 000a FFF7FEFF 		bl	DistTimer_Start
 368              	.LVL32:
 108:.\main.c      ****     
 369              		.loc 1 108 0
 370 000e 7148     		ldr	r0, .L31
 371 0010 FFF7FEFF 		bl	DistTimerInt_StartEx
 372              	.LVL33:
 111:.\main.c      **** 
 373              		.loc 1 111 0
 374 0014 FFF7FEFF 		bl	initLumenSensor
 375              	.LVL34:
 114:.\main.c      ****     RedPWM_Start();
 376              		.loc 1 114 0
 377 0018 FFF7FEFF 		bl	GreenPWM_Start
 378              	.LVL35:
 115:.\main.c      ****     BluePWM_Start();
 379              		.loc 1 115 0
 380 001c FFF7FEFF 		bl	RedPWM_Start
 381              	.LVL36:
 116:.\main.c      ****     
 382              		.loc 1 116 0
 383 0020 FFF7FEFF 		bl	BluePWM_Start
 384              	.LVL37:
 119:.\main.c      ****     MetronomeTimer_Start();
 385              		.loc 1 119 0
 386 0024 FFF7FEFF 		bl	initCtrlFlags
 387              	.LVL38:
 120:.\main.c      ****     MetronomeISR_StartEx(Metronome_Interrupt);
 388              		.loc 1 120 0
 389 0028 FFF7FEFF 		bl	MetronomeTimer_Start
 390              	.LVL39:
 121:.\main.c      ****     queue_init(6u);
 391              		.loc 1 121 0
 392 002c 6A48     		ldr	r0, .L31+4
 393 002e FFF7FEFF 		bl	MetronomeISR_StartEx
 394              	.LVL40:
 122:.\main.c      ****     i2c_init();
 395              		.loc 1 122 0
 396 0032 0620     		mov	r0, #6
 397 0034 FFF7FEFF 		bl	queue_init
 398              	.LVL41:
 123:.\main.c      **** 
 399              		.loc 1 123 0
 400 0038 FFF7FEFF 		bl	i2c_init
 401              	.LVL42:
 402              	.L28:
ARM GAS  C:\Users\Simon\AppData\Local\Temp\ccY6XOlk.s 			page 13


 128:.\main.c      ****         if(isEmptyQueue() != 1)
 403              		.loc 1 128 0
 404 003c FFF7FEFF 		bl	i2c_rx
 405              	.LVL43:
 129:.\main.c      ****         {   char queue[25];
 406              		.loc 1 129 0
 407 0040 FFF7FEFF 		bl	isEmptyQueue
 408              	.LVL44:
 409 0044 0128     		cmp	r0, #1
 410 0046 15D0     		beq	.L20
 411              	.LBB2:
 132:.\main.c      ****             handler(action.cmd_, action.val_);
 412              		.loc 1 132 0
 413 0048 03A8     		add	r0, sp, #12
 414 004a FFF7FEFF 		bl	frontQueue
 415              	.LVL45:
 133:.\main.c      ****             sprintf(queue, "Queue: %i Cmd: %i Cal: %i\n\r", queueCount_,action.cmd_, action.val_);
 416              		.loc 1 133 0
 417 004e 039C     		ldr	r4, [sp, #12]
 418 0050 049D     		ldr	r5, [sp, #16]
 419 0052 E0B2     		uxtb	r0, r4
 420 0054 E9B2     		uxtb	r1, r5
 421 0056 FFF7FEFF 		bl	handler
 422              	.LVL46:
 134:.\main.c      ****             DEBUG_PutString(queue);
 423              		.loc 1 134 0
 424 005a 604B     		ldr	r3, .L31+8
 425 005c 1A78     		ldrb	r2, [r3]
 426 005e 0095     		str	r5, [sp]
 427 0060 05A8     		add	r0, sp, #20
 428 0062 5F49     		ldr	r1, .L31+12
 429 0064 231C     		mov	r3, r4
 430 0066 FFF7FEFF 		bl	sprintf
 431              	.LVL47:
 135:.\main.c      ****             popQueue();
 432              		.loc 1 135 0
 433 006a 05A8     		add	r0, sp, #20
 434 006c FFF7FEFF 		bl	DEBUG_PutString
 435              	.LVL48:
 136:.\main.c      ****         }
 436              		.loc 1 136 0
 437 0070 FFF7FEFF 		bl	popQueue
 438              	.LVL49:
 439              	.L20:
 440              	.LBE2:
 138:.\main.c      ****         
 441              		.loc 1 138 0
 442 0074 FFF7FEFF 		bl	i2c_tx
 443              	.LVL50:
 141:.\main.c      ****             controlFlags[DIST][FLAG] = 0;
 444              		.loc 1 141 0
 445 0078 5A4B     		ldr	r3, .L31+16
 446 007a 9B78     		ldrb	r3, [r3, #2]
 447 007c 002B     		cmp	r3, #0
 448 007e 0ED0     		beq	.L21
 142:.\main.c      ****             // Start the distance sensor by holding the trigger pin high for 10us
 449              		.loc 1 142 0
ARM GAS  C:\Users\Simon\AppData\Local\Temp\ccY6XOlk.s 			page 14


 450 0080 0022     		mov	r2, #0
 451 0082 584B     		ldr	r3, .L31+16
 452 0084 9A70     		strb	r2, [r3, #2]
 144:.\main.c      ****             DistTrigger_Write(1);
 453              		.loc 1 144 0
 454 0086 0020     		mov	r0, #0
 455 0088 FFF7FEFF 		bl	DistReset_Write
 456              	.LVL51:
 145:.\main.c      ****             CyDelayUs(10);
 457              		.loc 1 145 0
 458 008c 0120     		mov	r0, #1
 459 008e FFF7FEFF 		bl	DistTrigger_Write
 460              	.LVL52:
 146:.\main.c      ****             DistTrigger_Write(0);
 461              		.loc 1 146 0
 462 0092 0A20     		mov	r0, #10
 463 0094 FFF7FEFF 		bl	CyDelayUs
 464              	.LVL53:
 147:.\main.c      ****         }
 465              		.loc 1 147 0
 466 0098 0020     		mov	r0, #0
 467 009a FFF7FEFF 		bl	DistTrigger_Write
 468              	.LVL54:
 469              	.L21:
 150:.\main.c      ****             controlFlags[DIST_ALERT][FLAG] = 0;
 470              		.loc 1 150 0
 471 009e 514B     		ldr	r3, .L31+16
 472 00a0 DB7A     		ldrb	r3, [r3, #11]
 473 00a2 002B     		cmp	r3, #0
 474 00a4 19D0     		beq	.L22
 151:.\main.c      ****             
 475              		.loc 1 151 0
 476 00a6 4F4A     		ldr	r2, .L31+16
 477 00a8 0023     		mov	r3, #0
 478 00aa D372     		strb	r3, [r2, #11]
 154:.\main.c      ****             if (!distAlertTriggered && controlFlags[DIST_ALERT][COUNT] >= 1) {
 479              		.loc 1 154 0
 480 00ac 537A     		ldrb	r3, [r2, #9]
 481 00ae 0133     		add	r3, r3, #1
 482 00b0 DBB2     		uxtb	r3, r3
 483 00b2 5372     		strb	r3, [r2, #9]
 155:.\main.c      ****                 // Set counter to fixed value - keeps it high but prevents overflow
 484              		.loc 1 155 0
 485 00b4 4C4A     		ldr	r2, .L31+20
 486 00b6 1278     		ldrb	r2, [r2]
 487 00b8 002A     		cmp	r2, #0
 488 00ba 0ED1     		bne	.L22
 155:.\main.c      ****                 // Set counter to fixed value - keeps it high but prevents overflow
 489              		.loc 1 155 0 is_stmt 0 discriminator 1
 490 00bc 002B     		cmp	r3, #0
 491 00be 0CD0     		beq	.L22
 157:.\main.c      ****                 distAlertTriggered = 1;
 492              		.loc 1 157 0 is_stmt 1
 493 00c0 0A32     		add	r2, r2, #10
 494 00c2 484B     		ldr	r3, .L31+16
 495 00c4 5A72     		strb	r2, [r3, #9]
 158:.\main.c      ****                 DistInterruptPin_Write(1);
ARM GAS  C:\Users\Simon\AppData\Local\Temp\ccY6XOlk.s 			page 15


 496              		.loc 1 158 0
 497 00c6 093A     		sub	r2, r2, #9
 498 00c8 474B     		ldr	r3, .L31+20
 499 00ca 1A70     		strb	r2, [r3]
 159:.\main.c      ****                 handler(cmdDistanceAlert, 0xff);
 500              		.loc 1 159 0
 501 00cc 0120     		mov	r0, #1
 502 00ce FFF7FEFF 		bl	DistInterruptPin_Write
 503              	.LVL55:
 160:.\main.c      ****             }
 504              		.loc 1 160 0
 505 00d2 4420     		mov	r0, #68
 506 00d4 FF21     		mov	r1, #255
 507 00d6 FFF7FEFF 		bl	handler
 508              	.LVL56:
 509              	.L22:
 165:.\main.c      ****             controlFlags[PIR][FLAG] = 0;
 510              		.loc 1 165 0
 511 00da 424B     		ldr	r3, .L31+16
 512 00dc 1B7A     		ldrb	r3, [r3, #8]
 513 00de 002B     		cmp	r3, #0
 514 00e0 1CD0     		beq	.L23
 166:.\main.c      **** 
 515              		.loc 1 166 0
 516 00e2 0022     		mov	r2, #0
 517 00e4 3F4B     		ldr	r3, .L31+16
 518 00e6 1A72     		strb	r2, [r3, #8]
 168:.\main.c      ****                 // Read the PIR sensor output
 519              		.loc 1 168 0
 520 00e8 8523     		mov	r3, #133
 521 00ea 404A     		ldr	r2, .L31+24
 522 00ec D35C     		ldrb	r3, [r2, r3]
 523 00ee 002B     		cmp	r3, #0
 524 00f0 10D0     		beq	.L24
 525              	.LBB3:
 170:.\main.c      ****                 // If there is movement now but not before
 526              		.loc 1 170 0
 527 00f2 FFF7FEFF 		bl	PIR_Trig_Read
 528              	.LVL57:
 529 00f6 041E     		sub	r4, r0, #0
 530              	.LVL58:
 172:.\main.c      ****                     handler(cmdMovementAlert, 0xff);
 531              		.loc 1 172 0
 532 00f8 08D0     		beq	.L25
 172:.\main.c      ****                     handler(cmdMovementAlert, 0xff);
 533              		.loc 1 172 0 is_stmt 0 discriminator 1
 534 00fa 8422     		mov	r2, #132
 535 00fc 3B49     		ldr	r1, .L31+24
 536 00fe 8A5C     		ldrb	r2, [r1, r2]
 537 0100 8242     		cmp	r2, r0
 538 0102 03D0     		beq	.L25
 173:.\main.c      ****                 }
 539              		.loc 1 173 0 is_stmt 1
 540 0104 4520     		mov	r0, #69
 541              	.LVL59:
 542 0106 FF21     		mov	r1, #255
 543 0108 FFF7FEFF 		bl	handler
ARM GAS  C:\Users\Simon\AppData\Local\Temp\ccY6XOlk.s 			page 16


 544              	.LVL60:
 545              	.L25:
 176:.\main.c      ****             } else {
 546              		.loc 1 176 0
 547 010c 8423     		mov	r3, #132
 548 010e 374A     		ldr	r2, .L31+24
 549 0110 D454     		strb	r4, [r2, r3]
 550              	.LBE3:
 551 0112 03E0     		b	.L23
 552              	.LVL61:
 553              	.L24:
 178:.\main.c      ****             }
 554              		.loc 1 178 0
 555 0114 0021     		mov	r1, #0
 556 0116 8423     		mov	r3, #132
 557 0118 344A     		ldr	r2, .L31+24
 558 011a D154     		strb	r1, [r2, r3]
 559              	.L23:
 182:.\main.c      ****             controlFlags[MOVE_ALERT][FLAG] = 0;
 560              		.loc 1 182 0
 561 011c 314B     		ldr	r3, .L31+16
 562 011e 9B7B     		ldrb	r3, [r3, #14]
 563 0120 002B     		cmp	r3, #0
 564 0122 2CD0     		beq	.L26
 183:.\main.c      **** 
 565              		.loc 1 183 0
 566 0124 0022     		mov	r2, #0
 567 0126 2F4B     		ldr	r3, .L31+16
 568 0128 9A73     		strb	r2, [r3, #14]
 185:.\main.c      ****                 if (sensorData.movement) {
 569              		.loc 1 185 0
 570 012a 8523     		mov	r3, #133
 571 012c 2F4A     		ldr	r2, .L31+24
 572 012e D35C     		ldrb	r3, [r2, r3]
 573 0130 002B     		cmp	r3, #0
 574 0132 24D0     		beq	.L26
 186:.\main.c      ****                     sensorData.ledPower = 1;
 575              		.loc 1 186 0
 576 0134 8423     		mov	r3, #132
 577 0136 D35C     		ldrb	r3, [r2, r3]
 578 0138 002B     		cmp	r3, #0
 579 013a 16D0     		beq	.L27
 187:.\main.c      ****                     RedPWM_Start();
 580              		.loc 1 187 0
 581 013c 141C     		mov	r4, r2
 582 013e 0122     		mov	r2, #1
 583 0140 9323     		mov	r3, #147
 584 0142 E254     		strb	r2, [r4, r3]
 188:.\main.c      ****                     GreenPWM_Start();
 585              		.loc 1 188 0
 586 0144 FFF7FEFF 		bl	RedPWM_Start
 587              	.LVL62:
 189:.\main.c      ****                     BluePWM_Start();
 588              		.loc 1 189 0
 589 0148 FFF7FEFF 		bl	GreenPWM_Start
 590              	.LVL63:
 190:.\main.c      ****                     RedPWM_WriteCompare(sensorData.redPWMPct);
ARM GAS  C:\Users\Simon\AppData\Local\Temp\ccY6XOlk.s 			page 17


 591              		.loc 1 190 0
 592 014c FFF7FEFF 		bl	BluePWM_Start
 593              	.LVL64:
 191:.\main.c      ****                     GreenPWM_WriteCompare(sensorData.greenPWMPct);
 594              		.loc 1 191 0
 595 0150 9123     		mov	r3, #145
 596 0152 E05C     		ldrb	r0, [r4, r3]
 597 0154 FFF7FEFF 		bl	RedPWM_WriteCompare
 598              	.LVL65:
 192:.\main.c      ****                     BluePWM_WriteCompare(sensorData.bluePWMPct);
 599              		.loc 1 192 0
 600 0158 9023     		mov	r3, #144
 601 015a E05C     		ldrb	r0, [r4, r3]
 602 015c FFF7FEFF 		bl	GreenPWM_WriteCompare
 603              	.LVL66:
 193:.\main.c      ****                 } else {
 604              		.loc 1 193 0
 605 0160 9223     		mov	r3, #146
 606 0162 E05C     		ldrb	r0, [r4, r3]
 607 0164 FFF7FEFF 		bl	BluePWM_WriteCompare
 608              	.LVL67:
 609 0168 09E0     		b	.L26
 610              	.L27:
 195:.\main.c      ****                     RedPWM_Stop();
 611              		.loc 1 195 0
 612 016a 0021     		mov	r1, #0
 613 016c 9323     		mov	r3, #147
 614 016e 1F4A     		ldr	r2, .L31+24
 615 0170 D154     		strb	r1, [r2, r3]
 196:.\main.c      ****                     GreenPWM_Stop();
 616              		.loc 1 196 0
 617 0172 FFF7FEFF 		bl	RedPWM_Stop
 618              	.LVL68:
 197:.\main.c      ****                     BluePWM_Stop();
 619              		.loc 1 197 0
 620 0176 FFF7FEFF 		bl	GreenPWM_Stop
 621              	.LVL69:
 198:.\main.c      ****                 }
 622              		.loc 1 198 0
 623 017a FFF7FEFF 		bl	BluePWM_Stop
 624              	.LVL70:
 625              	.L26:
 204:.\main.c      ****             controlFlags[LUMEN][FLAG] = 0;
 626              		.loc 1 204 0
 627 017e 194B     		ldr	r3, .L31+16
 628 0180 5B79     		ldrb	r3, [r3, #5]
 629 0182 002B     		cmp	r3, #0
 630 0184 00D1     		bne	.LCB512
 631 0186 59E7     		b	.L28	@long jump
 632              	.LCB512:
 633              	.LBB4:
 205:.\main.c      ****             // Read the lux value from the sensor
 634              		.loc 1 205 0
 635 0188 0022     		mov	r2, #0
 636 018a 164B     		ldr	r3, .L31+16
 637 018c 5A71     		strb	r2, [r3, #5]
 207:.\main.c      ****             // Add lux value to history
ARM GAS  C:\Users\Simon\AppData\Local\Temp\ccY6XOlk.s 			page 18


 638              		.loc 1 207 0
 639 018e FFF7FEFF 		bl	readLumenSensor
 640              	.LVL71:
 641 0192 051C     		mov	r5, r0
 642              	.LVL72:
 209:.\main.c      ****             sensorData.lux = getMeanValue(&sensorData.LumenMean);
 643              		.loc 1 209 0
 644 0194 164C     		ldr	r4, .L31+28
 645 0196 201C     		mov	r0, r4
 646              	.LVL73:
 647 0198 291C     		mov	r1, r5
 648 019a FFF7FEFF 		bl	insertValue
 649              	.LVL74:
 210:.\main.c      **** 
 650              		.loc 1 210 0
 651 019e 201C     		mov	r0, r4
 652 01a0 FFF7FEFF 		bl	getMeanValue
 653              	.LVL75:
 654 01a4 083C     		sub	r4, r4, #8
 655 01a6 2060     		str	r0, [r4]
 212:.\main.c      ****                 scaleLedPWM();
 656              		.loc 1 212 0
 657 01a8 9323     		mov	r3, #147
 658 01aa E35C     		ldrb	r3, [r4, r3]
 659 01ac 002B     		cmp	r3, #0
 660 01ae 05D0     		beq	.L29
 212:.\main.c      ****                 scaleLedPWM();
 661              		.loc 1 212 0 is_stmt 0 discriminator 1
 662 01b0 0E4B     		ldr	r3, .L31+24
 663 01b2 5B68     		ldr	r3, [r3, #4]
 664 01b4 002B     		cmp	r3, #0
 665 01b6 01D0     		beq	.L29
 213:.\main.c      ****             }
 666              		.loc 1 213 0 is_stmt 1
 667 01b8 FFF7FEFF 		bl	scaleLedPWM
 668              	.LVL76:
 669              	.L29:
 217:.\main.c      ****             DEBUG_PutString(bla);
 670              		.loc 1 217 0
 671 01bc 0D4C     		ldr	r4, .L31+32
 672 01be 0B4B     		ldr	r3, .L31+24
 673 01c0 1B68     		ldr	r3, [r3]
 674 01c2 201C     		mov	r0, r4
 675 01c4 0C49     		ldr	r1, .L31+36
 676 01c6 2A1C     		mov	r2, r5
 677 01c8 FFF7FEFF 		bl	sprintf
 678              	.LVL77:
 218:.\main.c      **** #endif
 679              		.loc 1 218 0
 680 01cc 201C     		mov	r0, r4
 681 01ce FFF7FEFF 		bl	DEBUG_PutString
 682              	.LVL78:
 683 01d2 33E7     		b	.L28
 684              	.L32:
 685              		.align	2
 686              	.L31:
 687 01d4 00000000 		.word	DistTimer_Interrupt
ARM GAS  C:\Users\Simon\AppData\Local\Temp\ccY6XOlk.s 			page 19


 688 01d8 00000000 		.word	Metronome_Interrupt
 689 01dc 00000000 		.word	queueCount_
 690 01e0 20000000 		.word	.LC12
 691 01e4 00000000 		.word	.LANCHOR0
 692 01e8 00000000 		.word	.LANCHOR1
 693 01ec 00000000 		.word	sensorData
 694 01f0 08000000 		.word	sensorData+8
 695 01f4 00000000 		.word	bla
 696 01f8 3C000000 		.word	.LC20
 697              	.LBE4:
 698              		.cfi_endproc
 699              	.LFE38:
 700              		.size	main, .-main
 701              		.global	distAlertTriggered
 702              		.global	controlFlags
 703              		.comm	bla,150,4
 704              		.comm	i2cRxBuffer,4,4
 705              		.comm	i2cTxBuffer,4,4
 706              		.comm	sensorData,148,4
 707              		.data
 708              		.align	2
 709              		.set	.LANCHOR0,. + 0
 710              		.type	controlFlags, %object
 711              		.size	controlFlags, 15
 712              	controlFlags:
 713 0000 01       		.byte	1
 714 0001 FF       		.byte	-1
 715 0002 00       		.byte	0
 716 0003 01       		.byte	1
 717 0004 FF       		.byte	-1
 718 0005 00       		.byte	0
 719 0006 01       		.byte	1
 720 0007 FF       		.byte	-1
 721 0008 00       		.byte	0
 722 0009 01       		.byte	1
 723 000a FF       		.byte	-1
 724 000b 00       		.byte	0
 725 000c 01       		.byte	1
 726 000d FF       		.byte	-1
 727 000e 00       		.byte	0
 728 000f 00       		.section	.rodata.str1.4,"aMS",%progbits,1
 729              		.align	2
 730              	.LC7:
 731 0000 44656C74 		.ascii	"Delta: %i, RGB: %i, %i, %i\012\015\000"
 731      613A2025 
 731      692C2052 
 731      47423A20 
 731      25692C20 
 732 001d 000000   		.space	3
 733              	.LC12:
 734 0020 51756575 		.ascii	"Queue: %i Cmd: %i Cal: %i\012\015\000"
 734      653A2025 
 734      6920436D 
 734      643A2025 
 734      69204361 
 735              	.LC20:
 736 003c 4C75783A 		.ascii	"Lux: %u, mean: %i\012\015\000"
ARM GAS  C:\Users\Simon\AppData\Local\Temp\ccY6XOlk.s 			page 20


 736      2025752C 
 736      206D6561 
 736      6E3A2025 
 736      690A0D00 
 737              		.bss
 738              		.set	.LANCHOR1,. + 0
 739              		.type	distAlertTriggered, %object
 740              		.size	distAlertTriggered, 1
 741              	distAlertTriggered:
 742 0000 00       		.space	1
 743              		.text
 744              	.Letext0:
 745              		.file 2 "Generated_Source\\PSoC4/cytypes.h"
 746              		.file 3 ".\\CircularMean.h"
 747              		.file 4 ".\\SensorData.h"
 748              		.file 5 ".\\queue.h"
 749              		.file 6 ".\\i2c.h"
 750              		.file 7 "Generated_Source\\PSoC4/DistInterruptPin.h"
 751              		.file 8 "Generated_Source\\PSoC4/DistReset.h"
 752              		.file 9 "Generated_Source\\PSoC4/DistTimer.h"
 753              		.file 10 "Generated_Source\\PSoC4/MetronomeTimer.h"
 754              		.file 11 ".\\LumenSensor.h"
 755              		.file 12 "c:\\program files (x86)\\cypress\\psoc creator\\3.3\\psoc creator\\import\\gnu\\arm\\4.9
 756              		.file 13 "Generated_Source\\PSoC4/DEBUG.h"
 757              		.file 14 "Generated_Source\\PSoC4/RedPWM.h"
 758              		.file 15 "Generated_Source\\PSoC4/GreenPWM.h"
 759              		.file 16 "Generated_Source\\PSoC4/BluePWM.h"
 760              		.file 17 ".\\handler.h"
 761              		.file 18 "Generated_Source\\PSoC4/PIR_Trig.h"
 762              		.file 19 "Generated_Source\\PSoC4/DistTimerInt.h"
 763              		.file 20 "Generated_Source\\PSoC4/MetronomeISR.h"
 764              		.file 21 "Generated_Source\\PSoC4/DistTrigger.h"
 765              		.file 22 "Generated_Source\\PSoC4/CyLib.h"