ARM GAS  C:\Users\Simon\AppData\Local\Temp\ccmNlV4h.s 			page 1


   1              		.cpu cortex-m0
   2              		.fpu softvfp
   3              		.eabi_attribute 20, 1
   4              		.eabi_attribute 21, 1
   5              		.eabi_attribute 23, 3
   6              		.eabi_attribute 24, 1
   7              		.eabi_attribute 25, 1
   8              		.eabi_attribute 26, 1
   9              		.eabi_attribute 30, 1
  10              		.eabi_attribute 34, 0
  11              		.eabi_attribute 18, 4
  12              		.code	16
  13              		.file	"queue.c"
  14              		.text
  15              	.Ltext0:
  16              		.cfi_sections	.debug_frame
  17              		.section	.text.backInsert,"ax",%progbits
  18              		.align	2
  19              		.code	16
  20              		.thumb_func
  21              		.type	backInsert, %function
  22              	backInsert:
  23              	.LFB41:
  24              		.file 1 ".\\queue.c"
   1:.\queue.c     **** /*!
   2:.\queue.c     ****  * @file        queue.c
   3:.\queue.c     ****  * @brief       A queue for incoming commands
   4:.\queue.c     ****  * @class       Queue
   5:.\queue.c     ****  * @author      Jeppe Stærk (201271201@uni.au.dk)
   6:.\queue.c     ****  */
   7:.\queue.c     **** #include "queue.h"
   8:.\queue.c     **** #include <stdio.h>
   9:.\queue.c     **** #include <stdlib.h>
  10:.\queue.c     **** 
  11:.\queue.c     **** /***************************************
  12:.\queue.c     **** *       Private data types
  13:.\queue.c     **** ***************************************/
  14:.\queue.c     **** 
  15:.\queue.c     **** /*!
  16:.\queue.c     ****  *  @brief      Struct to contain a element in the queue
  17:.\queue.c     ****  *  @private
  18:.\queue.c     ****  *  @author     Jeppe Stærk (201271201@uni.au.dk)
  19:.\queue.c     ****  */
  20:.\queue.c     **** struct Node
  21:.\queue.c     **** {
  22:.\queue.c     ****   struct Data data_;    /**< Data stored in queue */
  23:.\queue.c     ****   struct Node* next_;   /**< Next node in queue */
  24:.\queue.c     **** };
  25:.\queue.c     **** 
  26:.\queue.c     **** /***************************************
  27:.\queue.c     **** *       Private attributes
  28:.\queue.c     **** ***************************************/
  29:.\queue.c     **** 
  30:.\queue.c     **** /*!
  31:.\queue.c     ****  *  @brief      Pointer to front element in queue
  32:.\queue.c     ****  *  @private
  33:.\queue.c     ****  *  @memberof   Queue
ARM GAS  C:\Users\Simon\AppData\Local\Temp\ccmNlV4h.s 			page 2


  34:.\queue.c     ****  *  @author     Jeppe Stærk (201271201@uni.au.dk)
  35:.\queue.c     ****  */
  36:.\queue.c     **** static struct Node* frontOfQueuePtr_;
  37:.\queue.c     **** 
  38:.\queue.c     **** /*!
  39:.\queue.c     ****  *  @brief      Pointer to back element in queue
  40:.\queue.c     ****  *  @private
  41:.\queue.c     ****  *  @memberof   Queue
  42:.\queue.c     ****  *  @author     Jeppe Stærk (201271201@uni.au.dk)
  43:.\queue.c     ****  */
  44:.\queue.c     **** static struct Node* backOfQueuePtr_;
  45:.\queue.c     **** 
  46:.\queue.c     **** /*!
  47:.\queue.c     ****  *  @brief      Conuter for elements in the queue
  48:.\queue.c     ****  *  @private
  49:.\queue.c     ****  *  @memberof   Queue
  50:.\queue.c     ****  *  @author     Jeppe Stærk (201271201@uni.au.dk)
  51:.\queue.c     ****  */
  52:.\queue.c     ****  uint8 queueCount_;
  53:.\queue.c     **** 
  54:.\queue.c     **** /*!
  55:.\queue.c     ****  *  @brief      Maximum elements in queue
  56:.\queue.c     ****  *  @private
  57:.\queue.c     ****  *  @memberof   Queue
  58:.\queue.c     ****  *  @author     Jeppe Stærk (201271201@uni.au.dk)
  59:.\queue.c     ****  */
  60:.\queue.c     **** static uint8 queueMax_;
  61:.\queue.c     **** 
  62:.\queue.c     **** /***************************************
  63:.\queue.c     **** *       Private methods            
  64:.\queue.c     **** ***************************************/
  65:.\queue.c     **** 
  66:.\queue.c     **** static void headInsert(struct Node** headPtr, const struct Data data);
  67:.\queue.c     **** static void headRemove(struct Node** headPtr);
  68:.\queue.c     **** static void backInsert(struct Node** backPtr, const struct Data data);
  69:.\queue.c     **** 
  70:.\queue.c     **** 
  71:.\queue.c     **** /***************************************
  72:.\queue.c     ****  *       Public methods
  73:.\queue.c     ****  ***************************************/
  74:.\queue.c     **** 
  75:.\queue.c     **** /**
  76:.\queue.c     ****  *  @brief      Initialize queue.
  77:.\queue.c     ****  *  @param[in]  queueSize   Size of queue.
  78:.\queue.c     ****  *  @public
  79:.\queue.c     ****  *  @memberof   Queue
  80:.\queue.c     ****  *  @author     Jeppe Stærk (201271201@uni.au.dk)
  81:.\queue.c     ****  */
  82:.\queue.c     **** void queue_init(uint8 queueSize)
  83:.\queue.c     **** {
  84:.\queue.c     ****   frontOfQueuePtr_ = NULL;
  85:.\queue.c     ****   frontOfQueuePtr_->next_ = NULL;
  86:.\queue.c     ****   backOfQueuePtr_ = NULL;
  87:.\queue.c     ****   backOfQueuePtr_->next_ = NULL;
  88:.\queue.c     ****   queueMax_ = queueSize;
  89:.\queue.c     ****   queueCount_ = 0;
  90:.\queue.c     **** }
ARM GAS  C:\Users\Simon\AppData\Local\Temp\ccmNlV4h.s 			page 3


  91:.\queue.c     **** 
  92:.\queue.c     **** /**
  93:.\queue.c     ****  *  @brief      Insert element in FIFO ordre in queue 
  94:.\queue.c     ****  *  @param[in]  data    Struct of data to be placed in the queue
  95:.\queue.c     ****  *  @public
  96:.\queue.c     ****  *  @memberof   Queue
  97:.\queue.c     ****  *  @author     Jeppe Stærk (201271201@uni.au.dk)
  98:.\queue.c     ****  */
  99:.\queue.c     **** void pushQueue(const struct Data data)
 100:.\queue.c     **** {
 101:.\queue.c     ****   if(queueCount_<queueMax_)
 102:.\queue.c     ****   {
 103:.\queue.c     ****   if(isEmptyQueue() != 1)
 104:.\queue.c     ****   {
 105:.\queue.c     ****     backInsert(&backOfQueuePtr_, data);
 106:.\queue.c     ****     backOfQueuePtr_ = backOfQueuePtr_->next_;
 107:.\queue.c     ****     queueCount_++;
 108:.\queue.c     ****   }
 109:.\queue.c     ****     else
 110:.\queue.c     ****     {
 111:.\queue.c     ****       headInsert(&frontOfQueuePtr_, data);
 112:.\queue.c     ****       backOfQueuePtr_ = frontOfQueuePtr_;
 113:.\queue.c     ****       queueCount_++;
 114:.\queue.c     ****     }
 115:.\queue.c     ****   }
 116:.\queue.c     **** }
 117:.\queue.c     **** 
 118:.\queue.c     **** /**
 119:.\queue.c     ****  *  @brief      Remove front element of the queue  
 120:.\queue.c     ****  *  @public
 121:.\queue.c     ****  *  @memberof   Queue
 122:.\queue.c     ****  *  @author     Jeppe Stærk (201271201@uni.au.dk)
 123:.\queue.c     ****  */
 124:.\queue.c     **** void popQueue()
 125:.\queue.c     **** {
 126:.\queue.c     ****   headRemove(&frontOfQueuePtr_);
 127:.\queue.c     ****   queueCount_--;
 128:.\queue.c     ****   if(isEmptyQueue() == 1)
 129:.\queue.c     ****   {
 130:.\queue.c     ****     backOfQueuePtr_ = NULL;
 131:.\queue.c     ****   }
 132:.\queue.c     **** }
 133:.\queue.c     **** 
 134:.\queue.c     **** /*!
 135:.\queue.c     ****  *  @brief      Return data from the front element in the queue 
 136:.\queue.c     ****  *  @return     Data
 137:.\queue.c     ****  *  @public
 138:.\queue.c     ****  *  @memberof   Queue
 139:.\queue.c     ****  *  @author     Jeppe Stærk (201271201@uni.au.dk)
 140:.\queue.c     ****  */
 141:.\queue.c     **** struct Data frontQueue()
 142:.\queue.c     **** {
 143:.\queue.c     ****   return frontOfQueuePtr_->data_;
 144:.\queue.c     **** }
 145:.\queue.c     **** 
 146:.\queue.c     **** /*!
 147:.\queue.c     ****  *  @brief      Return 1 (true) if queue is empty or 0 (false) if not 
ARM GAS  C:\Users\Simon\AppData\Local\Temp\ccmNlV4h.s 			page 4


 148:.\queue.c     ****  *  @return     int
 149:.\queue.c     ****  *  @public
 150:.\queue.c     ****  *  @memberof   Queue
 151:.\queue.c     ****  *  @author     Jeppe Stærk (201271201@uni.au.dk)
 152:.\queue.c     ****  */
 153:.\queue.c     **** int isEmptyQueue()
 154:.\queue.c     **** {
 155:.\queue.c     ****   if(frontOfQueuePtr_ == NULL)
 156:.\queue.c     ****   {
 157:.\queue.c     ****     return 1;
 158:.\queue.c     ****   }
 159:.\queue.c     ****   else
 160:.\queue.c     ****   {
 161:.\queue.c     ****     return 0;
 162:.\queue.c     ****   }
 163:.\queue.c     **** }
 164:.\queue.c     **** 
 165:.\queue.c     **** /*!
 166:.\queue.c     ****  *  @brief      Insert element in the front of the queue
 167:.\queue.c     ****  *  @param[in]  headPtr     Pointer to front of queue
 168:.\queue.c     ****  *  @param[in]  data        Struct of data to be placed in the queue
 169:.\queue.c     ****  *  @private
 170:.\queue.c     ****  *  @memberof   Queue
 171:.\queue.c     ****  *  @author     Jeppe Stærk (201271201@uni.au.dk)
 172:.\queue.c     ****  */
 173:.\queue.c     **** void headInsert(struct Node** headPtr, const struct Data data)
 174:.\queue.c     **** {
 175:.\queue.c     ****   struct Node* temp = (struct Node*)malloc(sizeof(struct Node));
 176:.\queue.c     ****   if(temp == NULL)
 177:.\queue.c     ****   {
 178:.\queue.c     ****     return;
 179:.\queue.c     ****   }
 180:.\queue.c     **** 
 181:.\queue.c     ****   temp->data_ = data;
 182:.\queue.c     ****   temp->next_ = NULL;
 183:.\queue.c     **** 
 184:.\queue.c     ****   *headPtr = temp;
 185:.\queue.c     **** }
 186:.\queue.c     **** 
 187:.\queue.c     **** /*!
 188:.\queue.c     ****  *  @brief      Remove element in front af queue
 189:.\queue.c     ****  *  @param[in]  headPtr     Pointer to front of queue
 190:.\queue.c     ****  *  @private
 191:.\queue.c     ****  *  @memberof   Queue
 192:.\queue.c     ****  *  @author     Jeppe Stærk (201271201@uni.au.dk)
 193:.\queue.c     ****  */
 194:.\queue.c     **** void headRemove(struct Node** headPtr)
 195:.\queue.c     **** {
 196:.\queue.c     ****   if(headPtr != NULL)
 197:.\queue.c     ****   {
 198:.\queue.c     **** struct Node* condemned;
 199:.\queue.c     ****     condemned = *headPtr;
 200:.\queue.c     ****     *headPtr = (*headPtr)->next_;
 201:.\queue.c     ****     free(condemned);
 202:.\queue.c     ****   }
 203:.\queue.c     **** }
 204:.\queue.c     **** 
ARM GAS  C:\Users\Simon\AppData\Local\Temp\ccmNlV4h.s 			page 5


 205:.\queue.c     **** /*!
 206:.\queue.c     ****  *  @brief      Insert element in the back of the queue
 207:.\queue.c     ****  *  @param[in]  backPtr     Pointer to back of queue
 208:.\queue.c     ****  *  @param[in]  data        Struct of data to be placed in the queue
 209:.\queue.c     ****  *  @private
 210:.\queue.c     ****  *  @memberof   Queue
 211:.\queue.c     ****  *  @author     Jeppe Stærk (201271201@uni.au.dk)
 212:.\queue.c     ****  */
 213:.\queue.c     **** void backInsert(struct Node** backPtr, const struct Data data)
 214:.\queue.c     **** {
  25              		.loc 1 214 0
  26              		.cfi_startproc
  27              	.LVL0:
  28 0000 70B5     		push	{r4, r5, r6, lr}
  29              		.cfi_def_cfa_offset 16
  30              		.cfi_offset 4, -16
  31              		.cfi_offset 5, -12
  32              		.cfi_offset 6, -8
  33              		.cfi_offset 14, -4
  34 0002 82B0     		sub	sp, sp, #8
  35              		.cfi_def_cfa_offset 24
  36 0004 0091     		str	r1, [sp]
  37 0006 0192     		str	r2, [sp, #4]
 215:.\queue.c     ****   if(*backPtr == NULL)
  38              		.loc 1 215 0
  39 0008 0368     		ldr	r3, [r0]
  40 000a 002B     		cmp	r3, #0
  41 000c 0BD0     		beq	.L1
  42 000e 041C     		mov	r4, r0
 216:.\queue.c     ****   {
 217:.\queue.c     ****     return;
 218:.\queue.c     ****   }
 219:.\queue.c     **** 
 220:.\queue.c     ****   struct Node* next = (*backPtr)->next_;
  43              		.loc 1 220 0
  44 0010 9D68     		ldr	r5, [r3, #8]
  45              	.LVL1:
 221:.\queue.c     ****   struct Node* temp = (struct Node*)malloc(sizeof(struct Node));
  46              		.loc 1 221 0
  47 0012 0C20     		mov	r0, #12
  48              	.LVL2:
  49 0014 FFF7FEFF 		bl	malloc
  50              	.LVL3:
 222:.\queue.c     ****   temp->data_ = data;
  51              		.loc 1 222 0
  52 0018 6B46     		mov	r3, sp
  53 001a 021C     		mov	r2, r0
  54 001c 42CB     		ldmia	r3!, {r1, r6}
  55 001e 42C2     		stmia	r2!, {r1, r6}
 223:.\queue.c     ****   temp->next_ = next;
  56              		.loc 1 223 0
  57 0020 8560     		str	r5, [r0, #8]
 224:.\queue.c     ****   (*backPtr)->next_ = temp;
  58              		.loc 1 224 0
  59 0022 2368     		ldr	r3, [r4]
  60 0024 9860     		str	r0, [r3, #8]
  61              	.LVL4:
ARM GAS  C:\Users\Simon\AppData\Local\Temp\ccmNlV4h.s 			page 6


  62              	.L1:
 225:.\queue.c     **** }
  63              		.loc 1 225 0
  64 0026 02B0     		add	sp, sp, #8
  65              		@ sp needed
  66 0028 70BD     		pop	{r4, r5, r6, pc}
  67              		.cfi_endproc
  68              	.LFE41:
  69              		.size	backInsert, .-backInsert
  70 002a C046     		.section	.text.headInsert,"ax",%progbits
  71              		.align	2
  72              		.code	16
  73              		.thumb_func
  74              		.type	headInsert, %function
  75              	headInsert:
  76              	.LFB39:
 174:.\queue.c     ****   struct Node* temp = (struct Node*)malloc(sizeof(struct Node));
  77              		.loc 1 174 0
  78              		.cfi_startproc
  79              	.LVL5:
  80 0000 30B5     		push	{r4, r5, lr}
  81              		.cfi_def_cfa_offset 12
  82              		.cfi_offset 4, -12
  83              		.cfi_offset 5, -8
  84              		.cfi_offset 14, -4
  85 0002 83B0     		sub	sp, sp, #12
  86              		.cfi_def_cfa_offset 24
  87 0004 041C     		mov	r4, r0
  88 0006 0091     		str	r1, [sp]
  89 0008 0192     		str	r2, [sp, #4]
 175:.\queue.c     ****   if(temp == NULL)
  90              		.loc 1 175 0
  91 000a 0C20     		mov	r0, #12
  92              	.LVL6:
  93 000c FFF7FEFF 		bl	malloc
  94              	.LVL7:
 176:.\queue.c     ****   {
  95              		.loc 1 176 0
  96 0010 0028     		cmp	r0, #0
  97 0012 06D0     		beq	.L3
 181:.\queue.c     ****   temp->next_ = NULL;
  98              		.loc 1 181 0
  99 0014 6B46     		mov	r3, sp
 100 0016 021C     		mov	r2, r0
 101 0018 22CB     		ldmia	r3!, {r1, r5}
 102 001a 22C2     		stmia	r2!, {r1, r5}
 182:.\queue.c     **** 
 103              		.loc 1 182 0
 104 001c 0023     		mov	r3, #0
 105 001e 8360     		str	r3, [r0, #8]
 184:.\queue.c     **** }
 106              		.loc 1 184 0
 107 0020 2060     		str	r0, [r4]
 108              	.L3:
 185:.\queue.c     **** 
 109              		.loc 1 185 0
 110 0022 03B0     		add	sp, sp, #12
ARM GAS  C:\Users\Simon\AppData\Local\Temp\ccmNlV4h.s 			page 7


 111              		@ sp needed
 112              	.LVL8:
 113 0024 30BD     		pop	{r4, r5, pc}
 114              		.cfi_endproc
 115              	.LFE39:
 116              		.size	headInsert, .-headInsert
 117 0026 C046     		.section	.text.headRemove,"ax",%progbits
 118              		.align	2
 119              		.code	16
 120              		.thumb_func
 121              		.type	headRemove, %function
 122              	headRemove:
 123              	.LFB40:
 195:.\queue.c     ****   if(headPtr != NULL)
 124              		.loc 1 195 0
 125              		.cfi_startproc
 126              	.LVL9:
 127 0000 08B5     		push	{r3, lr}
 128              		.cfi_def_cfa_offset 8
 129              		.cfi_offset 3, -8
 130              		.cfi_offset 14, -4
 196:.\queue.c     ****   {
 131              		.loc 1 196 0
 132 0002 0028     		cmp	r0, #0
 133 0004 05D0     		beq	.L5
 134 0006 031C     		mov	r3, r0
 135              	.LBB2:
 199:.\queue.c     ****     *headPtr = (*headPtr)->next_;
 136              		.loc 1 199 0
 137 0008 0068     		ldr	r0, [r0]
 138              	.LVL10:
 200:.\queue.c     ****     free(condemned);
 139              		.loc 1 200 0
 140 000a 8268     		ldr	r2, [r0, #8]
 141 000c 1A60     		str	r2, [r3]
 201:.\queue.c     ****   }
 142              		.loc 1 201 0
 143 000e FFF7FEFF 		bl	free
 144              	.LVL11:
 145              	.L5:
 146              	.LBE2:
 203:.\queue.c     **** 
 147              		.loc 1 203 0
 148              		@ sp needed
 149 0012 08BD     		pop	{r3, pc}
 150              		.cfi_endproc
 151              	.LFE40:
 152              		.size	headRemove, .-headRemove
 153              		.section	.text.queue_init,"ax",%progbits
 154              		.align	2
 155              		.global	queue_init
 156              		.code	16
 157              		.thumb_func
 158              		.type	queue_init, %function
 159              	queue_init:
 160              	.LFB34:
  83:.\queue.c     ****   frontOfQueuePtr_ = NULL;
ARM GAS  C:\Users\Simon\AppData\Local\Temp\ccmNlV4h.s 			page 8


 161              		.loc 1 83 0
 162              		.cfi_startproc
 163              	.LVL12:
  84:.\queue.c     ****   frontOfQueuePtr_->next_ = NULL;
 164              		.loc 1 84 0
 165 0000 044A     		ldr	r2, .L8
 166 0002 0023     		mov	r3, #0
 167 0004 1360     		str	r3, [r2]
  85:.\queue.c     ****   backOfQueuePtr_ = NULL;
 168              		.loc 1 85 0
 169 0006 9B60     		str	r3, [r3, #8]
  86:.\queue.c     ****   backOfQueuePtr_->next_ = NULL;
 170              		.loc 1 86 0
 171 0008 5360     		str	r3, [r2, #4]
  88:.\queue.c     ****   queueCount_ = 0;
 172              		.loc 1 88 0
 173 000a 1072     		strb	r0, [r2, #8]
  89:.\queue.c     **** }
 174              		.loc 1 89 0
 175 000c 024A     		ldr	r2, .L8+4
 176 000e 1370     		strb	r3, [r2]
  90:.\queue.c     **** 
 177              		.loc 1 90 0
 178              		@ sp needed
 179 0010 7047     		bx	lr
 180              	.L9:
 181 0012 C046     		.align	2
 182              	.L8:
 183 0014 00000000 		.word	.LANCHOR0
 184 0018 00000000 		.word	queueCount_
 185              		.cfi_endproc
 186              	.LFE34:
 187              		.size	queue_init, .-queue_init
 188              		.section	.text.frontQueue,"ax",%progbits
 189              		.align	2
 190              		.global	frontQueue
 191              		.code	16
 192              		.thumb_func
 193              		.type	frontQueue, %function
 194              	frontQueue:
 195              	.LFB37:
 142:.\queue.c     ****   return frontOfQueuePtr_->data_;
 196              		.loc 1 142 0
 197              		.cfi_startproc
 198              	.LVL13:
 199 0000 10B5     		push	{r4, lr}
 200              		.cfi_def_cfa_offset 8
 201              		.cfi_offset 4, -8
 202              		.cfi_offset 14, -4
 143:.\queue.c     **** }
 203              		.loc 1 143 0
 204 0002 034B     		ldr	r3, .L11
 205 0004 1B68     		ldr	r3, [r3]
 206 0006 021C     		mov	r2, r0
 207 0008 12CB     		ldmia	r3!, {r1, r4}
 208 000a 12C2     		stmia	r2!, {r1, r4}
 144:.\queue.c     **** 
ARM GAS  C:\Users\Simon\AppData\Local\Temp\ccmNlV4h.s 			page 9


 209              		.loc 1 144 0
 210              		@ sp needed
 211 000c 10BD     		pop	{r4, pc}
 212              	.L12:
 213 000e C046     		.align	2
 214              	.L11:
 215 0010 00000000 		.word	.LANCHOR0
 216              		.cfi_endproc
 217              	.LFE37:
 218              		.size	frontQueue, .-frontQueue
 219              		.section	.text.isEmptyQueue,"ax",%progbits
 220              		.align	2
 221              		.global	isEmptyQueue
 222              		.code	16
 223              		.thumb_func
 224              		.type	isEmptyQueue, %function
 225              	isEmptyQueue:
 226              	.LFB38:
 154:.\queue.c     ****   if(frontOfQueuePtr_ == NULL)
 227              		.loc 1 154 0
 228              		.cfi_startproc
 155:.\queue.c     ****   {
 229              		.loc 1 155 0
 230 0000 034B     		ldr	r3, .L16
 231 0002 1B68     		ldr	r3, [r3]
 232 0004 002B     		cmp	r3, #0
 233 0006 01D1     		bne	.L15
 157:.\queue.c     ****   }
 234              		.loc 1 157 0
 235 0008 0120     		mov	r0, #1
 236 000a 00E0     		b	.L14
 237              	.L15:
 161:.\queue.c     ****   }
 238              		.loc 1 161 0
 239 000c 0020     		mov	r0, #0
 240              	.L14:
 163:.\queue.c     **** 
 241              		.loc 1 163 0
 242              		@ sp needed
 243 000e 7047     		bx	lr
 244              	.L17:
 245              		.align	2
 246              	.L16:
 247 0010 00000000 		.word	.LANCHOR0
 248              		.cfi_endproc
 249              	.LFE38:
 250              		.size	isEmptyQueue, .-isEmptyQueue
 251              		.section	.text.pushQueue,"ax",%progbits
 252              		.align	2
 253              		.global	pushQueue
 254              		.code	16
 255              		.thumb_func
 256              		.type	pushQueue, %function
 257              	pushQueue:
 258              	.LFB35:
 100:.\queue.c     ****   if(queueCount_<queueMax_)
 259              		.loc 1 100 0
ARM GAS  C:\Users\Simon\AppData\Local\Temp\ccmNlV4h.s 			page 10


 260              		.cfi_startproc
 261 0000 10B5     		push	{r4, lr}
 262              		.cfi_def_cfa_offset 8
 263              		.cfi_offset 4, -8
 264              		.cfi_offset 14, -4
 265 0002 82B0     		sub	sp, sp, #8
 266              		.cfi_def_cfa_offset 16
 267 0004 0090     		str	r0, [sp]
 268 0006 0191     		str	r1, [sp, #4]
 101:.\queue.c     ****   {
 269              		.loc 1 101 0
 270 0008 124B     		ldr	r3, .L21
 271 000a 1A78     		ldrb	r2, [r3]
 272 000c 124B     		ldr	r3, .L21+4
 273 000e 1B7A     		ldrb	r3, [r3, #8]
 274 0010 9A42     		cmp	r2, r3
 275 0012 1DD2     		bcs	.L18
 103:.\queue.c     ****   {
 276              		.loc 1 103 0
 277 0014 FFF7FEFF 		bl	isEmptyQueue
 278              	.LVL14:
 279 0018 0128     		cmp	r0, #1
 280 001a 0DD0     		beq	.L20
 105:.\queue.c     ****     backOfQueuePtr_ = backOfQueuePtr_->next_;
 281              		.loc 1 105 0
 282 001c 0E4C     		ldr	r4, .L21+4
 283 001e 201D     		add	r0, r4, #4
 284 0020 0099     		ldr	r1, [sp]
 285 0022 019A     		ldr	r2, [sp, #4]
 286 0024 FFF7FEFF 		bl	backInsert
 287              	.LVL15:
 106:.\queue.c     ****     queueCount_++;
 288              		.loc 1 106 0
 289 0028 6368     		ldr	r3, [r4, #4]
 290 002a 9B68     		ldr	r3, [r3, #8]
 291 002c 6360     		str	r3, [r4, #4]
 107:.\queue.c     ****   }
 292              		.loc 1 107 0
 293 002e 094A     		ldr	r2, .L21
 294 0030 1378     		ldrb	r3, [r2]
 295 0032 0133     		add	r3, r3, #1
 296 0034 1370     		strb	r3, [r2]
 297 0036 0BE0     		b	.L18
 298              	.L20:
 111:.\queue.c     ****       backOfQueuePtr_ = frontOfQueuePtr_;
 299              		.loc 1 111 0
 300 0038 074C     		ldr	r4, .L21+4
 301 003a 201C     		mov	r0, r4
 302 003c 0099     		ldr	r1, [sp]
 303 003e 019A     		ldr	r2, [sp, #4]
 304 0040 FFF7FEFF 		bl	headInsert
 305              	.LVL16:
 112:.\queue.c     ****       queueCount_++;
 306              		.loc 1 112 0
 307 0044 2368     		ldr	r3, [r4]
 308 0046 6360     		str	r3, [r4, #4]
 113:.\queue.c     ****     }
ARM GAS  C:\Users\Simon\AppData\Local\Temp\ccmNlV4h.s 			page 11


 309              		.loc 1 113 0
 310 0048 024A     		ldr	r2, .L21
 311 004a 1378     		ldrb	r3, [r2]
 312 004c 0133     		add	r3, r3, #1
 313 004e 1370     		strb	r3, [r2]
 314              	.L18:
 116:.\queue.c     **** 
 315              		.loc 1 116 0
 316 0050 02B0     		add	sp, sp, #8
 317              		@ sp needed
 318 0052 10BD     		pop	{r4, pc}
 319              	.L22:
 320              		.align	2
 321              	.L21:
 322 0054 00000000 		.word	queueCount_
 323 0058 00000000 		.word	.LANCHOR0
 324              		.cfi_endproc
 325              	.LFE35:
 326              		.size	pushQueue, .-pushQueue
 327              		.section	.text.popQueue,"ax",%progbits
 328              		.align	2
 329              		.global	popQueue
 330              		.code	16
 331              		.thumb_func
 332              		.type	popQueue, %function
 333              	popQueue:
 334              	.LFB36:
 125:.\queue.c     ****   headRemove(&frontOfQueuePtr_);
 335              		.loc 1 125 0
 336              		.cfi_startproc
 337 0000 08B5     		push	{r3, lr}
 338              		.cfi_def_cfa_offset 8
 339              		.cfi_offset 3, -8
 340              		.cfi_offset 14, -4
 126:.\queue.c     ****   queueCount_--;
 341              		.loc 1 126 0
 342 0002 0748     		ldr	r0, .L25
 343 0004 FFF7FEFF 		bl	headRemove
 344              	.LVL17:
 127:.\queue.c     ****   if(isEmptyQueue() == 1)
 345              		.loc 1 127 0
 346 0008 064A     		ldr	r2, .L25+4
 347 000a 1378     		ldrb	r3, [r2]
 348 000c 013B     		sub	r3, r3, #1
 349 000e 1370     		strb	r3, [r2]
 128:.\queue.c     ****   {
 350              		.loc 1 128 0
 351 0010 FFF7FEFF 		bl	isEmptyQueue
 352              	.LVL18:
 353 0014 0128     		cmp	r0, #1
 354 0016 02D1     		bne	.L23
 130:.\queue.c     ****   }
 355              		.loc 1 130 0
 356 0018 0022     		mov	r2, #0
 357 001a 014B     		ldr	r3, .L25
 358 001c 5A60     		str	r2, [r3, #4]
 359              	.L23:
ARM GAS  C:\Users\Simon\AppData\Local\Temp\ccmNlV4h.s 			page 12


 132:.\queue.c     **** 
 360              		.loc 1 132 0
 361              		@ sp needed
 362 001e 08BD     		pop	{r3, pc}
 363              	.L26:
 364              		.align	2
 365              	.L25:
 366 0020 00000000 		.word	.LANCHOR0
 367 0024 00000000 		.word	queueCount_
 368              		.cfi_endproc
 369              	.LFE36:
 370              		.size	popQueue, .-popQueue
 371              		.comm	queueCount_,1,1
 372              		.bss
 373              		.align	2
 374              		.set	.LANCHOR0,. + 0
 375              		.type	frontOfQueuePtr_, %object
 376              		.size	frontOfQueuePtr_, 4
 377              	frontOfQueuePtr_:
 378 0000 00000000 		.space	4
 379              		.type	backOfQueuePtr_, %object
 380              		.size	backOfQueuePtr_, 4
 381              	backOfQueuePtr_:
 382 0004 00000000 		.space	4
 383              		.type	queueMax_, %object
 384              		.size	queueMax_, 1
 385              	queueMax_:
 386 0008 00       		.space	1
 387 0009 000000   		.text
 388              	.Letext0:
 389              		.file 2 "Generated_Source\\PSoC4/cytypes.h"
 390              		.file 3 "c:\\program files (x86)\\cypress\\psoc creator\\3.3\\psoc creator\\import\\gnu\\arm\\4.9.
 391              		.file 4 ".\\queue.h"
 392              		.file 5 "c:\\program files (x86)\\cypress\\psoc creator\\3.3\\psoc creator\\import\\gnu\\arm\\4.9.