ARM GAS  C:\Users\JEPPES~1\AppData\Local\Temp\cc0EMcjB.s 			page 1


   1              		.cpu cortex-m0
   2              		.fpu softvfp
   3              		.eabi_attribute 20, 1
   4              		.eabi_attribute 21, 1
   5              		.eabi_attribute 23, 3
   6              		.eabi_attribute 24, 1
   7              		.eabi_attribute 25, 1
   8              		.eabi_attribute 26, 1
   9              		.eabi_attribute 30, 1
  10              		.eabi_attribute 34, 0
  11              		.eabi_attribute 18, 4
  12              		.code	16
  13              		.file	"CapSense_SMS.c"
  14              		.text
  15              	.Ltext0:
  16              		.cfi_sections	.debug_frame
  17              		.section	.text.CapSense_UpdateThresholds,"ax",%progbits
  18              		.align	2
  19              		.global	CapSense_UpdateThresholds
  20              		.code	16
  21              		.thumb_func
  22              		.type	CapSense_UpdateThresholds, %function
  23              	CapSense_UpdateThresholds:
  24              	.LFB35:
  25              		.file 1 ".\\Generated_Source\\PSoC4\\CapSense_SMS.c"
   1:.\Generated_Source\PSoC4/CapSense_SMS.c **** /*******************************************************************************
   2:.\Generated_Source\PSoC4/CapSense_SMS.c **** * File Name: CapSense_SMS.c
   3:.\Generated_Source\PSoC4/CapSense_SMS.c **** * Version 2.40
   4:.\Generated_Source\PSoC4/CapSense_SMS.c **** *
   5:.\Generated_Source\PSoC4/CapSense_SMS.c **** * Description:
   6:.\Generated_Source\PSoC4/CapSense_SMS.c **** *  This file provides the source code of wrapper between CapSense CSD component
   7:.\Generated_Source\PSoC4/CapSense_SMS.c **** *  and Auto Tuning library.
   8:.\Generated_Source\PSoC4/CapSense_SMS.c **** *
   9:.\Generated_Source\PSoC4/CapSense_SMS.c **** * Note:
  10:.\Generated_Source\PSoC4/CapSense_SMS.c **** *
  11:.\Generated_Source\PSoC4/CapSense_SMS.c **** ********************************************************************************
  12:.\Generated_Source\PSoC4/CapSense_SMS.c **** * Copyright 2013-2015, Cypress Semiconductor Corporation.  All rights reserved.
  13:.\Generated_Source\PSoC4/CapSense_SMS.c **** * You may use this file only in accordance with the license, terms, conditions,
  14:.\Generated_Source\PSoC4/CapSense_SMS.c **** * disclaimers, and limitations in the end user license agreement accompanying
  15:.\Generated_Source\PSoC4/CapSense_SMS.c **** * the software package with which this file was provided.
  16:.\Generated_Source\PSoC4/CapSense_SMS.c **** *******************************************************************************/
  17:.\Generated_Source\PSoC4/CapSense_SMS.c **** 
  18:.\Generated_Source\PSoC4/CapSense_SMS.c **** #include "CapSense_SMS.h"
  19:.\Generated_Source\PSoC4/CapSense_SMS.c **** #include "CapSense_PVT.h"
  20:.\Generated_Source\PSoC4/CapSense_SMS.c **** 
  21:.\Generated_Source\PSoC4/CapSense_SMS.c **** #include "cytypes.h"
  22:.\Generated_Source\PSoC4/CapSense_SMS.c **** 
  23:.\Generated_Source\PSoC4/CapSense_SMS.c **** #if (CapSense_TUNING_METHOD == CapSense__TUNING_AUTO)
  24:.\Generated_Source\PSoC4/CapSense_SMS.c **** 
  25:.\Generated_Source\PSoC4/CapSense_SMS.c **** 
  26:.\Generated_Source\PSoC4/CapSense_SMS.c **** /*  Real Charge Divider values */
  27:.\Generated_Source\PSoC4/CapSense_SMS.c **** #if ((0u != CapSense_IS_M0S8PERI_BLOCK) && (0u == CY_PSOC4_4000))
  28:.\Generated_Source\PSoC4/CapSense_SMS.c ****     /*  Dividers are not chained */
  29:.\Generated_Source\PSoC4/CapSense_SMS.c ****     #if (CYDEV_BCLK__HFCLK__MHZ > 24u)
  30:.\Generated_Source\PSoC4/CapSense_SMS.c ****         const uint8 CapSense_prescalerTable[CapSense_PRESCALERS_TBL_SIZE] = {
  31:.\Generated_Source\PSoC4/CapSense_SMS.c ****             4u,     4u,     4u,    8u,    8u,    8u,    8u,    16u,    16u,    16u,    16u,    16u,
  32:.\Generated_Source\PSoC4/CapSense_SMS.c ****         };
ARM GAS  C:\Users\JEPPES~1\AppData\Local\Temp\cc0EMcjB.s 			page 2


  33:.\Generated_Source\PSoC4/CapSense_SMS.c ****     #elif (CYDEV_BCLK__HFCLK__MHZ >12u)
  34:.\Generated_Source\PSoC4/CapSense_SMS.c ****         const uint8 CapSense_prescalerTable[CapSense_PRESCALERS_TBL_SIZE] = {
  35:.\Generated_Source\PSoC4/CapSense_SMS.c ****             2u,     2u,     2u,    4u,    4u,    4u,    4u,    8u,    8u,    8u,    8u,    8u,    8
  36:.\Generated_Source\PSoC4/CapSense_SMS.c ****         };
  37:.\Generated_Source\PSoC4/CapSense_SMS.c ****     #else   /* (CYDEV_BCLK__HFCLK__MHZ > 12u) */
  38:.\Generated_Source\PSoC4/CapSense_SMS.c ****         const uint8 CapSense_prescalerTable[CapSense_PRESCALERS_TBL_SIZE] = {
  39:.\Generated_Source\PSoC4/CapSense_SMS.c ****             1u,     1u,     1u,    2u,    2u,    2u,    2u,    4u,    4u,    4u,    4u,    4u,    4
  40:.\Generated_Source\PSoC4/CapSense_SMS.c ****         };
  41:.\Generated_Source\PSoC4/CapSense_SMS.c ****     #endif /* (CYDEV_BCLK__HFCLK__MHZ > 24u) */
  42:.\Generated_Source\PSoC4/CapSense_SMS.c **** 
  43:.\Generated_Source\PSoC4/CapSense_SMS.c **** #elif (0u != CapSense_IS_M0S8PERI_BLOCK)
  44:.\Generated_Source\PSoC4/CapSense_SMS.c ****     /*  Dividers are not chained (PSoC 4000) */
  45:.\Generated_Source\PSoC4/CapSense_SMS.c ****     #if (CYDEV_BCLK__HFCLK__MHZ >= 12u)
  46:.\Generated_Source\PSoC4/CapSense_SMS.c ****         const uint8 CapSense_prescalerTable[CapSense_PRESCALERS_TBL_SIZE] = {
  47:.\Generated_Source\PSoC4/CapSense_SMS.c ****             1u,     1u,     1u,    2u,    2u,    2u,    2u,    4u,    4u,    4u,    4u,    4u,    4
  48:.\Generated_Source\PSoC4/CapSense_SMS.c ****         };
  49:.\Generated_Source\PSoC4/CapSense_SMS.c **** 
  50:.\Generated_Source\PSoC4/CapSense_SMS.c ****     #elif (CYDEV_BCLK__HFCLK__MHZ >= 6u)
  51:.\Generated_Source\PSoC4/CapSense_SMS.c ****         const uint8 CapSense_prescalerTable[CapSense_PRESCALERS_TBL_SIZE] = {
  52:.\Generated_Source\PSoC4/CapSense_SMS.c ****             1u,     1u,     1u,    1u,    1u,    1u,    1u,    2u,    2u,    2u,    2u,    2u,    2
  53:.\Generated_Source\PSoC4/CapSense_SMS.c ****         };
  54:.\Generated_Source\PSoC4/CapSense_SMS.c ****     #else
  55:.\Generated_Source\PSoC4/CapSense_SMS.c ****         const uint8 CapSense_prescalerTable[CapSense_PRESCALERS_TBL_SIZE] = {
  56:.\Generated_Source\PSoC4/CapSense_SMS.c ****             1u,     1u,     1u,    1u,    1u,    1u,    1u,    1u,    1u,    1u,    1u,    1u,    1
  57:.\Generated_Source\PSoC4/CapSense_SMS.c ****         };
  58:.\Generated_Source\PSoC4/CapSense_SMS.c ****     #endif /* (CYDEV_BCLK__HFCLK__MHZ > 12u) */
  59:.\Generated_Source\PSoC4/CapSense_SMS.c **** 
  60:.\Generated_Source\PSoC4/CapSense_SMS.c **** #else
  61:.\Generated_Source\PSoC4/CapSense_SMS.c ****     /*  Dividers are chained (PSoC 4100, PSoC 4200) */
  62:.\Generated_Source\PSoC4/CapSense_SMS.c ****     #if (CYDEV_BCLK__HFCLK__MHZ > 24u)
  63:.\Generated_Source\PSoC4/CapSense_SMS.c ****         const uint8 CapSense_prescalerTable[CapSense_PRESCALERS_TBL_SIZE] = {
  64:.\Generated_Source\PSoC4/CapSense_SMS.c ****             2u,     2u,     2u,    4u,    4u,    4u,    4u,    8u,    8u,    8u,    8u,    8u,    8
  65:.\Generated_Source\PSoC4/CapSense_SMS.c ****         };
  66:.\Generated_Source\PSoC4/CapSense_SMS.c **** 
  67:.\Generated_Source\PSoC4/CapSense_SMS.c ****     #elif (CYDEV_BCLK__HFCLK__MHZ >12u)
  68:.\Generated_Source\PSoC4/CapSense_SMS.c ****         const uint8 CapSense_prescalerTable[CapSense_PRESCALERS_TBL_SIZE] = {
  69:.\Generated_Source\PSoC4/CapSense_SMS.c ****             1u,     1u,     1u,    2u,    2u,    2u,    2u,    4u,    4u,    4u,    4u,    4u,    4
  70:.\Generated_Source\PSoC4/CapSense_SMS.c ****         };
  71:.\Generated_Source\PSoC4/CapSense_SMS.c ****     #else   /* (CYDEV_BCLK__HFCLK__MHZ > 12u) */
  72:.\Generated_Source\PSoC4/CapSense_SMS.c ****         const uint8 CapSense_prescalerTable[CapSense_PRESCALERS_TBL_SIZE] = {
  73:.\Generated_Source\PSoC4/CapSense_SMS.c ****             1u,     1u,     1u,    1u,    1u,    1u,    1u,    2u,    2u,    2u,    2u,    2u,    2
  74:.\Generated_Source\PSoC4/CapSense_SMS.c ****         };
  75:.\Generated_Source\PSoC4/CapSense_SMS.c ****     #endif /* (CYDEV_BCLK__HFCLK__MHZ > 24u) */
  76:.\Generated_Source\PSoC4/CapSense_SMS.c **** #endif /* ((0u != CapSense_IS_M0S8PERI_BLOCK) && (0u == CY_PSOC4_4000)) */
  77:.\Generated_Source\PSoC4/CapSense_SMS.c **** 
  78:.\Generated_Source\PSoC4/CapSense_SMS.c **** 
  79:.\Generated_Source\PSoC4/CapSense_SMS.c **** uint8 CapSense_noiseEnvelopeTbl[CapSense_TOTAL_SENSOR_COUNT];
  80:.\Generated_Source\PSoC4/CapSense_SMS.c **** uint8 CapSense_runningDifferenceTbl[CapSense_TOTAL_SENSOR_COUNT];
  81:.\Generated_Source\PSoC4/CapSense_SMS.c **** uint8 CapSense_signRegisterTbl[CapSense_TOTAL_SENSOR_COUNT];
  82:.\Generated_Source\PSoC4/CapSense_SMS.c **** uint16 CapSense_sampleMinTbl[CapSense_TOTAL_SENSOR_COUNT];
  83:.\Generated_Source\PSoC4/CapSense_SMS.c **** uint16 CapSense_sampleMaxTbl[CapSense_TOTAL_SENSOR_COUNT];
  84:.\Generated_Source\PSoC4/CapSense_SMS.c **** uint16 CapSense_previousSampleTbl[CapSense_TOTAL_SENSOR_COUNT];
  85:.\Generated_Source\PSoC4/CapSense_SMS.c **** uint8 CapSense_kValueTbl[CapSense_TOTAL_SENSOR_COUNT];
  86:.\Generated_Source\PSoC4/CapSense_SMS.c **** 
  87:.\Generated_Source\PSoC4/CapSense_SMS.c **** uint8 CapSense_sensorSensitivity[] = {
  88:.\Generated_Source\PSoC4/CapSense_SMS.c ****     2u, 2u, 2u, 2u, 2u, 
  89:.\Generated_Source\PSoC4/CapSense_SMS.c **** };
ARM GAS  C:\Users\JEPPES~1\AppData\Local\Temp\cc0EMcjB.s 			page 3


  90:.\Generated_Source\PSoC4/CapSense_SMS.c **** 
  91:.\Generated_Source\PSoC4/CapSense_SMS.c **** CapSense_CONFIG_TYPE_P4_v2_40 CapSense_config;
  92:.\Generated_Source\PSoC4/CapSense_SMS.c **** CapSense_CONFIG_TYPE_POINTERS_P4_v2_40 const CapSense_configPointers = {
  93:.\Generated_Source\PSoC4/CapSense_SMS.c ****     CapSense_modulationIDAC,
  94:.\Generated_Source\PSoC4/CapSense_SMS.c ****     CapSense_compensationIDAC,
  95:.\Generated_Source\PSoC4/CapSense_SMS.c ****     CapSense_sensorSensitivity,
  96:.\Generated_Source\PSoC4/CapSense_SMS.c ****     CapSense_senseClkDividerVal,
  97:.\Generated_Source\PSoC4/CapSense_SMS.c ****     CapSense_sampleClkDividerVal,
  98:.\Generated_Source\PSoC4/CapSense_SMS.c ****     CapSense_widgetNumber,
  99:.\Generated_Source\PSoC4/CapSense_SMS.c ****     CapSense_widgetResolution,
 100:.\Generated_Source\PSoC4/CapSense_SMS.c ****     CapSense_noiseEnvelopeTbl,
 101:.\Generated_Source\PSoC4/CapSense_SMS.c ****     CapSense_runningDifferenceTbl,
 102:.\Generated_Source\PSoC4/CapSense_SMS.c ****     CapSense_signRegisterTbl,
 103:.\Generated_Source\PSoC4/CapSense_SMS.c ****     CapSense_sampleMinTbl,
 104:.\Generated_Source\PSoC4/CapSense_SMS.c ****     CapSense_sampleMaxTbl,
 105:.\Generated_Source\PSoC4/CapSense_SMS.c ****     CapSense_previousSampleTbl,
 106:.\Generated_Source\PSoC4/CapSense_SMS.c ****     CapSense_kValueTbl,
 107:.\Generated_Source\PSoC4/CapSense_SMS.c ****     CapSense_scanSpeedTbl,
 108:.\Generated_Source\PSoC4/CapSense_SMS.c ****     CapSense_prescalerTable,
 109:.\Generated_Source\PSoC4/CapSense_SMS.c ****     (const uint8  *)CapSense_rawDataIndex,
 110:.\Generated_Source\PSoC4/CapSense_SMS.c ****     (const uint8  *)CapSense_numberOfSensors,
 111:.\Generated_Source\PSoC4/CapSense_SMS.c ****     &CapSense_GetSensorRaw,
 112:.\Generated_Source\PSoC4/CapSense_SMS.c ****     &CapSense_PreScan,
 113:.\Generated_Source\PSoC4/CapSense_SMS.c ****     &CapSense_ReadSensorRaw,
 114:.\Generated_Source\PSoC4/CapSense_SMS.c ****     &CapSense_GetBitValue,
 115:.\Generated_Source\PSoC4/CapSense_SMS.c ****     &CapSense_SetBitValue
 116:.\Generated_Source\PSoC4/CapSense_SMS.c **** };
 117:.\Generated_Source\PSoC4/CapSense_SMS.c **** 
 118:.\Generated_Source\PSoC4/CapSense_SMS.c **** 
 119:.\Generated_Source\PSoC4/CapSense_SMS.c **** /*******************************************************************************
 120:.\Generated_Source\PSoC4/CapSense_SMS.c **** * Function Name: CapSense_AutoTune
 121:.\Generated_Source\PSoC4/CapSense_SMS.c **** ********************************************************************************
 122:.\Generated_Source\PSoC4/CapSense_SMS.c **** *
 123:.\Generated_Source\PSoC4/CapSense_SMS.c **** * Summary:
 124:.\Generated_Source\PSoC4/CapSense_SMS.c **** *  Provides the tuning procedure for all sensors.
 125:.\Generated_Source\PSoC4/CapSense_SMS.c **** *
 126:.\Generated_Source\PSoC4/CapSense_SMS.c **** * Parameters:
 127:.\Generated_Source\PSoC4/CapSense_SMS.c **** *  None
 128:.\Generated_Source\PSoC4/CapSense_SMS.c **** *
 129:.\Generated_Source\PSoC4/CapSense_SMS.c **** * Return:
 130:.\Generated_Source\PSoC4/CapSense_SMS.c **** *  None
 131:.\Generated_Source\PSoC4/CapSense_SMS.c **** *
 132:.\Generated_Source\PSoC4/CapSense_SMS.c **** * Global Variables:
 133:.\Generated_Source\PSoC4/CapSense_SMS.c **** *   CapSense_config: the structure which contains configuration parameters
 134:.\Generated_Source\PSoC4/CapSense_SMS.c **** *   CapSense_senseClkDividerVal[]: used to store the Analog Switch
 135:.\Generated_Source\PSoC4/CapSense_SMS.c **** *   dividers for each sensor.
 136:.\Generated_Source\PSoC4/CapSense_SMS.c **** *   CapSense_senseClkDividerVal[]: used to store the
 137:.\Generated_Source\PSoC4/CapSense_SMS.c **** *    Analog Switch divider for all sensors.
 138:.\Generated_Source\PSoC4/CapSense_SMS.c **** *   CapSense_prescalersTuningDone - used to notify the Tuner GUI that
 139:.\Generated_Source\PSoC4/CapSense_SMS.c **** *   the pre-scalers tuning  is done.
 140:.\Generated_Source\PSoC4/CapSense_SMS.c **** *
 141:.\Generated_Source\PSoC4/CapSense_SMS.c **** * Side Effects:
 142:.\Generated_Source\PSoC4/CapSense_SMS.c **** *  None
 143:.\Generated_Source\PSoC4/CapSense_SMS.c **** *
 144:.\Generated_Source\PSoC4/CapSense_SMS.c **** *******************************************************************************/
 145:.\Generated_Source\PSoC4/CapSense_SMS.c **** void CapSense_AutoTune(void)
 146:.\Generated_Source\PSoC4/CapSense_SMS.c **** {
ARM GAS  C:\Users\JEPPES~1\AppData\Local\Temp\cc0EMcjB.s 			page 4


 147:.\Generated_Source\PSoC4/CapSense_SMS.c ****     uint32 curSensor;
 148:.\Generated_Source\PSoC4/CapSense_SMS.c ****     uint32 widget;
 149:.\Generated_Source\PSoC4/CapSense_SMS.c **** 
 150:.\Generated_Source\PSoC4/CapSense_SMS.c ****     CapSense_config.totalScanslotsNum = CapSense_TOTAL_SCANSLOT_COUNT;
 151:.\Generated_Source\PSoC4/CapSense_SMS.c ****     CapSense_config.totalWidgetsNum = CapSense_END_OF_WIDGETS_INDEX;
 152:.\Generated_Source\PSoC4/CapSense_SMS.c ****     CapSense_config.totalSensorsNum = CapSense_TOTAL_SENSOR_COUNT;
 153:.\Generated_Source\PSoC4/CapSense_SMS.c **** 
 154:.\Generated_Source\PSoC4/CapSense_SMS.c ****     CapSense_config.hfclkFreq_MHz = CYDEV_BCLK__HFCLK__MHZ;
 155:.\Generated_Source\PSoC4/CapSense_SMS.c ****     CapSense_config.sensetivitySeed = CapSense_SENSETIVITY_FACTOR;
 156:.\Generated_Source\PSoC4/CapSense_SMS.c **** 
 157:.\Generated_Source\PSoC4/CapSense_SMS.c ****     CapSense_config.pointers = &CapSense_configPointers;
 158:.\Generated_Source\PSoC4/CapSense_SMS.c **** 
 159:.\Generated_Source\PSoC4/CapSense_SMS.c ****     CapSense_SetAnalogSwitchesSrcDirect();
 160:.\Generated_Source\PSoC4/CapSense_SMS.c **** 
 161:.\Generated_Source\PSoC4/CapSense_SMS.c ****     for(widget = 0u; widget < CapSense_config.totalWidgetsNum; widget++)
 162:.\Generated_Source\PSoC4/CapSense_SMS.c ****     {
 163:.\Generated_Source\PSoC4/CapSense_SMS.c ****         CapSense_widgetResolution[widget] = CapSense_CALIBRATION_RESOLUTION;
 164:.\Generated_Source\PSoC4/CapSense_SMS.c ****     }
 165:.\Generated_Source\PSoC4/CapSense_SMS.c **** 
 166:.\Generated_Source\PSoC4/CapSense_SMS.c **** 
 167:.\Generated_Source\PSoC4/CapSense_SMS.c ****     for(curSensor = 0u; curSensor < CapSense_TOTAL_SCANSLOT_COUNT; curSensor++)
 168:.\Generated_Source\PSoC4/CapSense_SMS.c ****     {
 169:.\Generated_Source\PSoC4/CapSense_SMS.c ****         CapSense_senseClkDividerVal[curSensor] = CapSense_CALIBRATION_ASD;
 170:.\Generated_Source\PSoC4/CapSense_SMS.c ****         CapSense_sampleClkDividerVal[curSensor] = CapSense_CALIBRATION_MD;
 171:.\Generated_Source\PSoC4/CapSense_SMS.c ****     }
 172:.\Generated_Source\PSoC4/CapSense_SMS.c **** 
 173:.\Generated_Source\PSoC4/CapSense_SMS.c ****     CapSense_DisableBaselineIDAC();
 174:.\Generated_Source\PSoC4/CapSense_SMS.c **** 
 175:.\Generated_Source\PSoC4/CapSense_SMS.c ****     CalibrateSensors_P4_v2_40(&CapSense_config, CapSense_CAL_RAW_COUNT);
 176:.\Generated_Source\PSoC4/CapSense_SMS.c **** 
 177:.\Generated_Source\PSoC4/CapSense_SMS.c ****     #if(0u != CapSense_TOTAL_CENTROIDS_COUNT)
 178:.\Generated_Source\PSoC4/CapSense_SMS.c ****         CapSense_NormalizeWidgets(CapSense_END_OF_WIDGETS_INDEX, CapSense_modulationIDAC);
 179:.\Generated_Source\PSoC4/CapSense_SMS.c ****     #endif /* (0u != CapSense_TOTAL_CENTROIDS_COUNT)  */
 180:.\Generated_Source\PSoC4/CapSense_SMS.c **** 
 181:.\Generated_Source\PSoC4/CapSense_SMS.c ****     TunePrescalers_P4_v2_40(&CapSense_config);
 182:.\Generated_Source\PSoC4/CapSense_SMS.c **** 
 183:.\Generated_Source\PSoC4/CapSense_SMS.c ****     #if(CapSense_PRS_OPTIONS != CapSense__PRS_NONE)
 184:.\Generated_Source\PSoC4/CapSense_SMS.c ****         CapSense_prescalersTuningDone = 1u;
 185:.\Generated_Source\PSoC4/CapSense_SMS.c ****     #endif /* (CapSense_PRS_OPTIONS == CapSense__PRS_NONE) */
 186:.\Generated_Source\PSoC4/CapSense_SMS.c **** 
 187:.\Generated_Source\PSoC4/CapSense_SMS.c ****     CalibrateSensors_P4_v2_40(&CapSense_config, CapSense_CAL_RAW_COUNT);
 188:.\Generated_Source\PSoC4/CapSense_SMS.c ****     #if(0u != CapSense_TOTAL_CENTROIDS_COUNT)
 189:.\Generated_Source\PSoC4/CapSense_SMS.c ****         CapSense_NormalizeWidgets(CapSense_END_OF_WIDGETS_INDEX, CapSense_modulationIDAC);
 190:.\Generated_Source\PSoC4/CapSense_SMS.c ****     #endif /* (0u != CapSense_TOTAL_CENTROIDS_COUNT)  */
 191:.\Generated_Source\PSoC4/CapSense_SMS.c ****     TuneSensitivity_P4_v2_40(&CapSense_config);
 192:.\Generated_Source\PSoC4/CapSense_SMS.c **** 
 193:.\Generated_Source\PSoC4/CapSense_SMS.c ****     CapSense_EnableBaselineIDAC(&CapSense_config);
 194:.\Generated_Source\PSoC4/CapSense_SMS.c **** 
 195:.\Generated_Source\PSoC4/CapSense_SMS.c ****     for(curSensor = 0u; curSensor < CapSense_TOTAL_SCANSLOT_COUNT; curSensor++)
 196:.\Generated_Source\PSoC4/CapSense_SMS.c ****     {
 197:.\Generated_Source\PSoC4/CapSense_SMS.c ****         CapSense_UpdateThresholds(curSensor);
 198:.\Generated_Source\PSoC4/CapSense_SMS.c ****     }
 199:.\Generated_Source\PSoC4/CapSense_SMS.c **** }
 200:.\Generated_Source\PSoC4/CapSense_SMS.c **** 
 201:.\Generated_Source\PSoC4/CapSense_SMS.c **** 
 202:.\Generated_Source\PSoC4/CapSense_SMS.c **** /*******************************************************************************
 203:.\Generated_Source\PSoC4/CapSense_SMS.c **** * Function Name: CapSense_UpdateThresholds
ARM GAS  C:\Users\JEPPES~1\AppData\Local\Temp\cc0EMcjB.s 			page 5


 204:.\Generated_Source\PSoC4/CapSense_SMS.c **** ********************************************************************************
 205:.\Generated_Source\PSoC4/CapSense_SMS.c **** *
 206:.\Generated_Source\PSoC4/CapSense_SMS.c **** * Summary:
 207:.\Generated_Source\PSoC4/CapSense_SMS.c **** *  The API updates the Finger Threshold, Hysteresis, Noise Threshold, and
 208:.\Generated_Source\PSoC4/CapSense_SMS.c **** *  Negative Noise Threshold in the AutoTuning (Smartsense) Mode.
 209:.\Generated_Source\PSoC4/CapSense_SMS.c **** *
 210:.\Generated_Source\PSoC4/CapSense_SMS.c **** * Parameters:
 211:.\Generated_Source\PSoC4/CapSense_SMS.c **** *  sensor: sensor number.
 212:.\Generated_Source\PSoC4/CapSense_SMS.c **** *
 213:.\Generated_Source\PSoC4/CapSense_SMS.c **** * Return:
 214:.\Generated_Source\PSoC4/CapSense_SMS.c **** *  None
 215:.\Generated_Source\PSoC4/CapSense_SMS.c **** *
 216:.\Generated_Source\PSoC4/CapSense_SMS.c **** * Global Variables:
 217:.\Generated_Source\PSoC4/CapSense_SMS.c **** *  CapSense_widgetNumber[] - contains widget Number for given sensor.
 218:.\Generated_Source\PSoC4/CapSense_SMS.c **** *  0 through 7 (sensor 0 is bit 0, sensor 1 is bit 1).
 219:.\Generated_Source\PSoC4/CapSense_SMS.c **** *  For other sensors the array element equals to 255.
 220:.\Generated_Source\PSoC4/CapSense_SMS.c **** *  CapSense_numberOfSensors[widget] - Number of sensors in the widget.
 221:.\Generated_Source\PSoC4/CapSense_SMS.c **** *   CapSense_fingerThreshold[] - contains the level of signal for each sensor
 222:.\Generated_Source\PSoC4/CapSense_SMS.c **** *   that determines if a finger present on the sensor.
 223:.\Generated_Source\PSoC4/CapSense_SMS.c **** *   CapSense_negativeNoiseThreshold[] - negative Noise Threshold
 224:.\Generated_Source\PSoC4/CapSense_SMS.c **** *   CapSense_hysteresis[] - the array with hysteresis values.
 225:.\Generated_Source\PSoC4/CapSense_SMS.c **** *
 226:.\Generated_Source\PSoC4/CapSense_SMS.c **** * Side Effects:
 227:.\Generated_Source\PSoC4/CapSense_SMS.c **** *  None
 228:.\Generated_Source\PSoC4/CapSense_SMS.c **** *
 229:.\Generated_Source\PSoC4/CapSense_SMS.c **** *******************************************************************************/
 230:.\Generated_Source\PSoC4/CapSense_SMS.c **** void CapSense_UpdateThresholds(uint32 sensor)
 231:.\Generated_Source\PSoC4/CapSense_SMS.c **** {
  26              		.loc 1 231 0
  27              		.cfi_startproc
  28              	.LVL0:
  29 0000 70B5     		push	{r4, r5, r6, lr}
  30              		.cfi_def_cfa_offset 16
  31              		.cfi_offset 4, -16
  32              		.cfi_offset 5, -12
  33              		.cfi_offset 6, -8
  34              		.cfi_offset 14, -4
  35 0002 82B0     		sub	sp, sp, #8
  36              		.cfi_def_cfa_offset 24
 232:.\Generated_Source\PSoC4/CapSense_SMS.c ****     uint8 fingerThreshold;
 233:.\Generated_Source\PSoC4/CapSense_SMS.c ****     uint32 widget;
 234:.\Generated_Source\PSoC4/CapSense_SMS.c **** 
 235:.\Generated_Source\PSoC4/CapSense_SMS.c ****     widget = CapSense_widgetNumber[sensor];
  37              		.loc 1 235 0
  38 0004 154B     		ldr	r3, .L7
  39 0006 1C5C     		ldrb	r4, [r3, r0]
  40              	.LVL1:
 236:.\Generated_Source\PSoC4/CapSense_SMS.c **** 
 237:.\Generated_Source\PSoC4/CapSense_SMS.c ****     #if(0u != CapSense_FLEXIBLE_THRESHOLDS_EN)
 238:.\Generated_Source\PSoC4/CapSense_SMS.c ****         fingerThreshold = CapSense_fingerThreshold[widget];
 239:.\Generated_Source\PSoC4/CapSense_SMS.c ****         /* Update Threshold manually (flexible) */
 240:.\Generated_Source\PSoC4/CapSense_SMS.c ****         CapSense_noiseThreshold[widget] = (uint8)(fingerThreshold >> 1u);
 241:.\Generated_Source\PSoC4/CapSense_SMS.c ****         CapSense_negativeNoiseThreshold[widget] = (uint8)(fingerThreshold >> 1u);
 242:.\Generated_Source\PSoC4/CapSense_SMS.c ****         CapSense_hysteresis[widget] = (uint8)(fingerThreshold >> 3u);
 243:.\Generated_Source\PSoC4/CapSense_SMS.c ****     #else
 244:.\Generated_Source\PSoC4/CapSense_SMS.c ****         /* Calculate Finger Threshold and Noise Threshold with Smartsense (automatic) */
 245:.\Generated_Source\PSoC4/CapSense_SMS.c ****         CalculateThresholds_P4_v2_40(&CapSense_config, (uint8)sensor, (uint8)widget, CapSense_finge
ARM GAS  C:\Users\JEPPES~1\AppData\Local\Temp\cc0EMcjB.s 			page 6


  41              		.loc 1 245 0
  42 0008 C1B2     		uxtb	r1, r0
  43 000a 154E     		ldr	r6, .L7+4
  44 000c 154D     		ldr	r5, .L7+8
  45 000e 0095     		str	r5, [sp]
  46 0010 1548     		ldr	r0, .L7+12
  47              	.LVL2:
  48 0012 221C     		mov	r2, r4
  49 0014 331C     		mov	r3, r6
  50 0016 FFF7FEFF 		bl	CalculateThresholds_P4_v2_40
  51              	.LVL3:
 246:.\Generated_Source\PSoC4/CapSense_SMS.c **** 
 247:.\Generated_Source\PSoC4/CapSense_SMS.c ****         fingerThreshold = CapSense_fingerThreshold[widget];
  52              		.loc 1 247 0
  53 001a 335D     		ldrb	r3, [r6, r4]
  54              	.LVL4:
 248:.\Generated_Source\PSoC4/CapSense_SMS.c **** 
 249:.\Generated_Source\PSoC4/CapSense_SMS.c ****         /* Update Threshold based on calculated with Smartsense (automatic) */
 250:.\Generated_Source\PSoC4/CapSense_SMS.c ****         CapSense_negativeNoiseThreshold[widget] = CapSense_noiseThreshold[widget];
  55              		.loc 1 250 0
  56 001c 295D     		ldrb	r1, [r5, r4]
  57 001e 134A     		ldr	r2, .L7+16
  58 0020 1155     		strb	r1, [r2, r4]
 251:.\Generated_Source\PSoC4/CapSense_SMS.c **** 
 252:.\Generated_Source\PSoC4/CapSense_SMS.c ****         if(fingerThreshold < CapSense_THRESHOLD_1)
  59              		.loc 1 252 0
  60 0022 DB2B     		cmp	r3, #219
  61 0024 03D8     		bhi	.L2
 253:.\Generated_Source\PSoC4/CapSense_SMS.c ****         {
 254:.\Generated_Source\PSoC4/CapSense_SMS.c ****             CapSense_hysteresis[widget] = (uint8)(fingerThreshold >> 3u);
  62              		.loc 1 254 0
  63 0026 DB08     		lsr	r3, r3, #3
  64              	.LVL5:
  65 0028 114A     		ldr	r2, .L7+20
  66 002a 1355     		strb	r3, [r2, r4]
  67 002c 14E0     		b	.L1
  68              	.LVL6:
  69              	.L2:
 255:.\Generated_Source\PSoC4/CapSense_SMS.c ****         }
 256:.\Generated_Source\PSoC4/CapSense_SMS.c ****         else if(fingerThreshold <  CapSense_THRESHOLD_2)
  70              		.loc 1 256 0
  71 002e EC2B     		cmp	r3, #236
  72 0030 03D8     		bhi	.L4
 257:.\Generated_Source\PSoC4/CapSense_SMS.c ****         {
 258:.\Generated_Source\PSoC4/CapSense_SMS.c ****             CapSense_hysteresis[widget] = (uint8)(fingerThreshold >> 4u);
  73              		.loc 1 258 0
  74 0032 1B09     		lsr	r3, r3, #4
  75              	.LVL7:
  76 0034 0E4A     		ldr	r2, .L7+20
  77 0036 1355     		strb	r3, [r2, r4]
  78 0038 0EE0     		b	.L1
  79              	.LVL8:
  80              	.L4:
 259:.\Generated_Source\PSoC4/CapSense_SMS.c ****         }
 260:.\Generated_Source\PSoC4/CapSense_SMS.c ****         else if(fingerThreshold <  CapSense_THRESHOLD_3)
  81              		.loc 1 260 0
  82 003a F42B     		cmp	r3, #244
ARM GAS  C:\Users\JEPPES~1\AppData\Local\Temp\cc0EMcjB.s 			page 7


  83 003c 03D8     		bhi	.L5
 261:.\Generated_Source\PSoC4/CapSense_SMS.c ****         {
 262:.\Generated_Source\PSoC4/CapSense_SMS.c ****             CapSense_hysteresis[widget] = (uint8)(fingerThreshold >> 5u);
  84              		.loc 1 262 0
  85 003e 5B09     		lsr	r3, r3, #5
  86              	.LVL9:
  87 0040 0B4A     		ldr	r2, .L7+20
  88 0042 1355     		strb	r3, [r2, r4]
  89 0044 08E0     		b	.L1
  90              	.LVL10:
  91              	.L5:
 263:.\Generated_Source\PSoC4/CapSense_SMS.c ****         }
 264:.\Generated_Source\PSoC4/CapSense_SMS.c ****         else if(fingerThreshold <  CapSense_THRESHOLD_4)
  92              		.loc 1 264 0
  93 0046 F92B     		cmp	r3, #249
  94 0048 03D8     		bhi	.L6
 265:.\Generated_Source\PSoC4/CapSense_SMS.c ****         {
 266:.\Generated_Source\PSoC4/CapSense_SMS.c ****             CapSense_hysteresis[widget] = (uint8)(fingerThreshold >> 6u);
  95              		.loc 1 266 0
  96 004a 9B09     		lsr	r3, r3, #6
  97              	.LVL11:
  98 004c 084A     		ldr	r2, .L7+20
  99 004e 1355     		strb	r3, [r2, r4]
 100 0050 02E0     		b	.L1
 101              	.LVL12:
 102              	.L6:
 267:.\Generated_Source\PSoC4/CapSense_SMS.c ****         }
 268:.\Generated_Source\PSoC4/CapSense_SMS.c ****         else
 269:.\Generated_Source\PSoC4/CapSense_SMS.c ****         {
 270:.\Generated_Source\PSoC4/CapSense_SMS.c ****             CapSense_hysteresis[widget] = 0u;
 103              		.loc 1 270 0
 104 0052 0022     		mov	r2, #0
 105 0054 064B     		ldr	r3, .L7+20
 106              	.LVL13:
 107 0056 1A55     		strb	r2, [r3, r4]
 108              	.L1:
 271:.\Generated_Source\PSoC4/CapSense_SMS.c ****         }
 272:.\Generated_Source\PSoC4/CapSense_SMS.c ****     #endif /* (0u != CapSense_FLEXIBLE_THRESHOLDS_EN)  */
 273:.\Generated_Source\PSoC4/CapSense_SMS.c **** }
 109              		.loc 1 273 0
 110 0058 02B0     		add	sp, sp, #8
 111              		@ sp needed
 112              	.LVL14:
 113              	.LVL15:
 114 005a 70BD     		pop	{r4, r5, r6, pc}
 115              	.L8:
 116              		.align	2
 117              	.L7:
 118 005c 00000000 		.word	CapSense_widgetNumber
 119 0060 00000000 		.word	CapSense_fingerThreshold
 120 0064 00000000 		.word	CapSense_noiseThreshold
 121 0068 00000000 		.word	CapSense_config
 122 006c 00000000 		.word	CapSense_negativeNoiseThreshold
 123 0070 00000000 		.word	CapSense_hysteresis
 124              		.cfi_endproc
 125              	.LFE35:
 126              		.size	CapSense_UpdateThresholds, .-CapSense_UpdateThresholds
ARM GAS  C:\Users\JEPPES~1\AppData\Local\Temp\cc0EMcjB.s 			page 8


 127              		.section	.text.CapSense_SetAnalogSwitchesSrcDirect,"ax",%progbits
 128              		.align	2
 129              		.global	CapSense_SetAnalogSwitchesSrcDirect
 130              		.code	16
 131              		.thumb_func
 132              		.type	CapSense_SetAnalogSwitchesSrcDirect, %function
 133              	CapSense_SetAnalogSwitchesSrcDirect:
 134              	.LFB36:
 274:.\Generated_Source\PSoC4/CapSense_SMS.c **** 
 275:.\Generated_Source\PSoC4/CapSense_SMS.c **** /*******************************************************************************
 276:.\Generated_Source\PSoC4/CapSense_SMS.c **** * Function Name: CapSense_SetAnalogSwitchesSrcDirect
 277:.\Generated_Source\PSoC4/CapSense_SMS.c **** ********************************************************************************
 278:.\Generated_Source\PSoC4/CapSense_SMS.c **** *
 279:.\Generated_Source\PSoC4/CapSense_SMS.c **** * Summary:
 280:.\Generated_Source\PSoC4/CapSense_SMS.c **** *  This API switches the charge clock source to prescaler.
 281:.\Generated_Source\PSoC4/CapSense_SMS.c **** *
 282:.\Generated_Source\PSoC4/CapSense_SMS.c **** * Parameters:
 283:.\Generated_Source\PSoC4/CapSense_SMS.c **** *  None
 284:.\Generated_Source\PSoC4/CapSense_SMS.c **** *
 285:.\Generated_Source\PSoC4/CapSense_SMS.c **** * Return:
 286:.\Generated_Source\PSoC4/CapSense_SMS.c **** *  None
 287:.\Generated_Source\PSoC4/CapSense_SMS.c **** *
 288:.\Generated_Source\PSoC4/CapSense_SMS.c **** * Global Variables:
 289:.\Generated_Source\PSoC4/CapSense_SMS.c **** *  None
 290:.\Generated_Source\PSoC4/CapSense_SMS.c **** *
 291:.\Generated_Source\PSoC4/CapSense_SMS.c **** * Side Effects:
 292:.\Generated_Source\PSoC4/CapSense_SMS.c **** *  None
 293:.\Generated_Source\PSoC4/CapSense_SMS.c **** *
 294:.\Generated_Source\PSoC4/CapSense_SMS.c **** *******************************************************************************/
 295:.\Generated_Source\PSoC4/CapSense_SMS.c **** void CapSense_SetAnalogSwitchesSrcDirect(void)
 296:.\Generated_Source\PSoC4/CapSense_SMS.c **** {
 135              		.loc 1 296 0
 136              		.cfi_startproc
 297:.\Generated_Source\PSoC4/CapSense_SMS.c ****     CapSense_CSD_CFG_REG &= ~(CapSense_CSD_CFG_PRS_SELECT);
 137              		.loc 1 297 0
 138 0000 024A     		ldr	r2, .L10
 139 0002 1368     		ldr	r3, [r2]
 140 0004 4021     		mov	r1, #64
 141 0006 8B43     		bic	r3, r1
 142 0008 1360     		str	r3, [r2]
 298:.\Generated_Source\PSoC4/CapSense_SMS.c **** }
 143              		.loc 1 298 0
 144              		@ sp needed
 145 000a 7047     		bx	lr
 146              	.L11:
 147              		.align	2
 148              	.L10:
 149 000c 04000840 		.word	1074266116
 150              		.cfi_endproc
 151              	.LFE36:
 152              		.size	CapSense_SetAnalogSwitchesSrcDirect, .-CapSense_SetAnalogSwitchesSrcDirect
 153              		.section	.text.CapSense_DisableBaselineIDAC,"ax",%progbits
 154              		.align	2
 155              		.global	CapSense_DisableBaselineIDAC
 156              		.code	16
 157              		.thumb_func
 158              		.type	CapSense_DisableBaselineIDAC, %function
ARM GAS  C:\Users\JEPPES~1\AppData\Local\Temp\cc0EMcjB.s 			page 9


 159              	CapSense_DisableBaselineIDAC:
 160              	.LFB37:
 299:.\Generated_Source\PSoC4/CapSense_SMS.c **** 
 300:.\Generated_Source\PSoC4/CapSense_SMS.c **** 
 301:.\Generated_Source\PSoC4/CapSense_SMS.c **** /*******************************************************************************
 302:.\Generated_Source\PSoC4/CapSense_SMS.c **** * Function Name: CapSense_DisableBaselineIDAC
 303:.\Generated_Source\PSoC4/CapSense_SMS.c **** ********************************************************************************
 304:.\Generated_Source\PSoC4/CapSense_SMS.c **** *
 305:.\Generated_Source\PSoC4/CapSense_SMS.c **** * Summary:
 306:.\Generated_Source\PSoC4/CapSense_SMS.c **** *  The API disables the Compensation IDAC.
 307:.\Generated_Source\PSoC4/CapSense_SMS.c **** *
 308:.\Generated_Source\PSoC4/CapSense_SMS.c **** * Parameters:
 309:.\Generated_Source\PSoC4/CapSense_SMS.c **** *  None
 310:.\Generated_Source\PSoC4/CapSense_SMS.c **** *
 311:.\Generated_Source\PSoC4/CapSense_SMS.c **** * Return:
 312:.\Generated_Source\PSoC4/CapSense_SMS.c **** *  None
 313:.\Generated_Source\PSoC4/CapSense_SMS.c **** *
 314:.\Generated_Source\PSoC4/CapSense_SMS.c **** * Global Variables:
 315:.\Generated_Source\PSoC4/CapSense_SMS.c **** *  None
 316:.\Generated_Source\PSoC4/CapSense_SMS.c **** *
 317:.\Generated_Source\PSoC4/CapSense_SMS.c **** * Side Effects:
 318:.\Generated_Source\PSoC4/CapSense_SMS.c **** *  None
 319:.\Generated_Source\PSoC4/CapSense_SMS.c **** *
 320:.\Generated_Source\PSoC4/CapSense_SMS.c **** *******************************************************************************/
 321:.\Generated_Source\PSoC4/CapSense_SMS.c **** void CapSense_DisableBaselineIDAC(void)
 322:.\Generated_Source\PSoC4/CapSense_SMS.c **** {
 161              		.loc 1 322 0
 162              		.cfi_startproc
 323:.\Generated_Source\PSoC4/CapSense_SMS.c ****     uint32 newRegValue;
 324:.\Generated_Source\PSoC4/CapSense_SMS.c **** 
 325:.\Generated_Source\PSoC4/CapSense_SMS.c ****     newRegValue = CapSense_CSD_IDAC_REG;
 163              		.loc 1 325 0
 164 0000 044A     		ldr	r2, .L13
 165 0002 1168     		ldr	r1, [r2]
 166              	.LVL16:
 326:.\Generated_Source\PSoC4/CapSense_SMS.c **** 
 327:.\Generated_Source\PSoC4/CapSense_SMS.c ****     newRegValue &= ~(CapSense_CSD_IDAC1_MODE_MASK | CapSense_CSD_IDAC2_MODE_MASK);
 167              		.loc 1 327 0
 168 0004 044B     		ldr	r3, .L13+4
 169 0006 0B40     		and	r3, r1
 170              	.LVL17:
 328:.\Generated_Source\PSoC4/CapSense_SMS.c ****     newRegValue |= CapSense_CSD_IDAC1_MODE_VARIABLE;
 171              		.loc 1 328 0
 172 0008 8021     		mov	r1, #128
 173 000a 8900     		lsl	r1, r1, #2
 174 000c 0B43     		orr	r3, r1
 175              	.LVL18:
 329:.\Generated_Source\PSoC4/CapSense_SMS.c **** 
 330:.\Generated_Source\PSoC4/CapSense_SMS.c ****     CapSense_CSD_IDAC_REG = newRegValue;
 176              		.loc 1 330 0
 177 000e 1360     		str	r3, [r2]
 331:.\Generated_Source\PSoC4/CapSense_SMS.c **** }
 178              		.loc 1 331 0
 179              		@ sp needed
 180 0010 7047     		bx	lr
 181              	.L14:
 182 0012 C046     		.align	2
ARM GAS  C:\Users\JEPPES~1\AppData\Local\Temp\cc0EMcjB.s 			page 10


 183              	.L13:
 184 0014 08000840 		.word	1074266120
 185 0018 FFFCFFFC 		.word	-50332417
 186              		.cfi_endproc
 187              	.LFE37:
 188              		.size	CapSense_DisableBaselineIDAC, .-CapSense_DisableBaselineIDAC
 189              		.section	.text.CapSense_EnableBaselineIDAC,"ax",%progbits
 190              		.align	2
 191              		.global	CapSense_EnableBaselineIDAC
 192              		.code	16
 193              		.thumb_func
 194              		.type	CapSense_EnableBaselineIDAC, %function
 195              	CapSense_EnableBaselineIDAC:
 196              	.LFB38:
 332:.\Generated_Source\PSoC4/CapSense_SMS.c **** 
 333:.\Generated_Source\PSoC4/CapSense_SMS.c **** 
 334:.\Generated_Source\PSoC4/CapSense_SMS.c **** /*******************************************************************************
 335:.\Generated_Source\PSoC4/CapSense_SMS.c **** * Function Name: CapSense_EnableBaselineIDAC
 336:.\Generated_Source\PSoC4/CapSense_SMS.c **** ********************************************************************************
 337:.\Generated_Source\PSoC4/CapSense_SMS.c **** *
 338:.\Generated_Source\PSoC4/CapSense_SMS.c **** * Summary:
 339:.\Generated_Source\PSoC4/CapSense_SMS.c **** *  The API enables the Compensation IDAC.
 340:.\Generated_Source\PSoC4/CapSense_SMS.c **** *
 341:.\Generated_Source\PSoC4/CapSense_SMS.c **** * Parameters:
 342:.\Generated_Source\PSoC4/CapSense_SMS.c **** *  None
 343:.\Generated_Source\PSoC4/CapSense_SMS.c **** *
 344:.\Generated_Source\PSoC4/CapSense_SMS.c **** * Return:
 345:.\Generated_Source\PSoC4/CapSense_SMS.c **** *  None
 346:.\Generated_Source\PSoC4/CapSense_SMS.c **** *
 347:.\Generated_Source\PSoC4/CapSense_SMS.c **** * Global Variables:
 348:.\Generated_Source\PSoC4/CapSense_SMS.c **** *  CapSense_compensationIDAC[] - used to store a 7-bit idac value for all the sensors.
 349:.\Generated_Source\PSoC4/CapSense_SMS.c **** *
 350:.\Generated_Source\PSoC4/CapSense_SMS.c **** * Side Effects:
 351:.\Generated_Source\PSoC4/CapSense_SMS.c **** *  None
 352:.\Generated_Source\PSoC4/CapSense_SMS.c **** *
 353:.\Generated_Source\PSoC4/CapSense_SMS.c **** *******************************************************************************/
 354:.\Generated_Source\PSoC4/CapSense_SMS.c **** void  CapSense_EnableBaselineIDAC(const CapSense_CONFIG_TYPE_P4_v2_40 *config)
 355:.\Generated_Source\PSoC4/CapSense_SMS.c **** {
 197              		.loc 1 355 0
 198              		.cfi_startproc
 199              	.LVL19:
 200 0000 38B5     		push	{r3, r4, r5, lr}
 201              		.cfi_def_cfa_offset 16
 202              		.cfi_offset 3, -16
 203              		.cfi_offset 4, -12
 204              		.cfi_offset 5, -8
 205              		.cfi_offset 14, -4
 206              	.LVL20:
 356:.\Generated_Source\PSoC4/CapSense_SMS.c ****     uint32 curSensor;
 357:.\Generated_Source\PSoC4/CapSense_SMS.c ****     uint32 newRegValue;
 358:.\Generated_Source\PSoC4/CapSense_SMS.c **** 
 359:.\Generated_Source\PSoC4/CapSense_SMS.c ****     for(curSensor = 0u; curSensor < config->totalScanslotsNum; curSensor++)
 207              		.loc 1 359 0
 208 0002 0022     		mov	r2, #0
 209 0004 08E0     		b	.L16
 210              	.LVL21:
 211              	.L17:
ARM GAS  C:\Users\JEPPES~1\AppData\Local\Temp\cc0EMcjB.s 			page 11


 360:.\Generated_Source\PSoC4/CapSense_SMS.c ****     {
 361:.\Generated_Source\PSoC4/CapSense_SMS.c ****         CapSense_compensationIDAC[curSensor] = CapSense_modulationIDAC[curSensor] / 2u;
 212              		.loc 1 361 0 discriminator 3
 213 0006 0D49     		ldr	r1, .L18
 214 0008 8B5C     		ldrb	r3, [r1, r2]
 215 000a 5D08     		lsr	r5, r3, #1
 216 000c 0C4C     		ldr	r4, .L18+4
 217 000e A554     		strb	r5, [r4, r2]
 362:.\Generated_Source\PSoC4/CapSense_SMS.c ****         CapSense_modulationIDAC[curSensor] = (CapSense_modulationIDAC[curSensor] + 1u) / 2u;
 218              		.loc 1 362 0 discriminator 3
 219 0010 0133     		add	r3, r3, #1
 220 0012 5B08     		lsr	r3, r3, #1
 221 0014 8B54     		strb	r3, [r1, r2]
 359:.\Generated_Source\PSoC4/CapSense_SMS.c ****     {
 222              		.loc 1 359 0 discriminator 3
 223 0016 0132     		add	r2, r2, #1
 224              	.LVL22:
 225              	.L16:
 359:.\Generated_Source\PSoC4/CapSense_SMS.c ****     {
 226              		.loc 1 359 0 is_stmt 0 discriminator 1
 227 0018 0378     		ldrb	r3, [r0]
 228 001a 9342     		cmp	r3, r2
 229 001c F3D8     		bhi	.L17
 363:.\Generated_Source\PSoC4/CapSense_SMS.c ****     }
 364:.\Generated_Source\PSoC4/CapSense_SMS.c **** 
 365:.\Generated_Source\PSoC4/CapSense_SMS.c ****     CyIntDisable(CapSense_ISR_NUMBER);
 230              		.loc 1 365 0 is_stmt 1
 231 001e 0F20     		mov	r0, #15
 232              	.LVL23:
 233 0020 FFF7FEFF 		bl	CyIntDisable
 234              	.LVL24:
 366:.\Generated_Source\PSoC4/CapSense_SMS.c **** 
 367:.\Generated_Source\PSoC4/CapSense_SMS.c ****     newRegValue = CapSense_CSD_IDAC_REG;
 235              		.loc 1 367 0
 236 0024 074A     		ldr	r2, .L18+8
 237 0026 1168     		ldr	r1, [r2]
 238              	.LVL25:
 368:.\Generated_Source\PSoC4/CapSense_SMS.c ****     newRegValue &= ~(CapSense_CSD_IDAC1_MODE_MASK | CapSense_CSD_IDAC2_MODE_MASK);
 239              		.loc 1 368 0
 240 0028 074B     		ldr	r3, .L18+12
 241 002a 0B40     		and	r3, r1
 242              	.LVL26:
 369:.\Generated_Source\PSoC4/CapSense_SMS.c ****     newRegValue |= (CapSense_CSD_IDAC1_MODE_VARIABLE | CapSense_CSD_IDAC2_MODE_FIXED);
 243              		.loc 1 369 0
 244 002c 0749     		ldr	r1, .L18+16
 245 002e 0B43     		orr	r3, r1
 246              	.LVL27:
 370:.\Generated_Source\PSoC4/CapSense_SMS.c ****     CapSense_CSD_IDAC_REG = newRegValue;
 247              		.loc 1 370 0
 248 0030 1360     		str	r3, [r2]
 371:.\Generated_Source\PSoC4/CapSense_SMS.c **** 
 372:.\Generated_Source\PSoC4/CapSense_SMS.c ****     CyIntEnable(CapSense_ISR_NUMBER);
 249              		.loc 1 372 0
 250 0032 0F20     		mov	r0, #15
 251 0034 FFF7FEFF 		bl	CyIntEnable
 252              	.LVL28:
 373:.\Generated_Source\PSoC4/CapSense_SMS.c **** }
ARM GAS  C:\Users\JEPPES~1\AppData\Local\Temp\cc0EMcjB.s 			page 12


 253              		.loc 1 373 0
 254              		@ sp needed
 255 0038 38BD     		pop	{r3, r4, r5, pc}
 256              	.L19:
 257 003a C046     		.align	2
 258              	.L18:
 259 003c 00000000 		.word	CapSense_modulationIDAC
 260 0040 00000000 		.word	CapSense_compensationIDAC
 261 0044 08000840 		.word	1074266120
 262 0048 FFFCFFFC 		.word	-50332417
 263 004c 00020001 		.word	16777728
 264              		.cfi_endproc
 265              	.LFE38:
 266              		.size	CapSense_EnableBaselineIDAC, .-CapSense_EnableBaselineIDAC
 267              		.section	.text.CapSense_AutoTune,"ax",%progbits
 268              		.align	2
 269              		.global	CapSense_AutoTune
 270              		.code	16
 271              		.thumb_func
 272              		.type	CapSense_AutoTune, %function
 273              	CapSense_AutoTune:
 274              	.LFB34:
 146:.\Generated_Source\PSoC4/CapSense_SMS.c ****     uint32 curSensor;
 275              		.loc 1 146 0
 276              		.cfi_startproc
 277 0000 70B5     		push	{r4, r5, r6, lr}
 278              		.cfi_def_cfa_offset 16
 279              		.cfi_offset 4, -16
 280              		.cfi_offset 5, -12
 281              		.cfi_offset 6, -8
 282              		.cfi_offset 14, -4
 150:.\Generated_Source\PSoC4/CapSense_SMS.c ****     CapSense_config.totalWidgetsNum = CapSense_END_OF_WIDGETS_INDEX;
 283              		.loc 1 150 0
 284 0002 274B     		ldr	r3, .L27
 285 0004 0522     		mov	r2, #5
 286 0006 1A70     		strb	r2, [r3]
 151:.\Generated_Source\PSoC4/CapSense_SMS.c ****     CapSense_config.totalSensorsNum = CapSense_TOTAL_SENSOR_COUNT;
 287              		.loc 1 151 0
 288 0008 0121     		mov	r1, #1
 289 000a 5970     		strb	r1, [r3, #1]
 152:.\Generated_Source\PSoC4/CapSense_SMS.c **** 
 290              		.loc 1 152 0
 291 000c 9A70     		strb	r2, [r3, #2]
 154:.\Generated_Source\PSoC4/CapSense_SMS.c ****     CapSense_config.sensetivitySeed = CapSense_SENSETIVITY_FACTOR;
 292              		.loc 1 154 0
 293 000e 1332     		add	r2, r2, #19
 294 0010 DA80     		strh	r2, [r3, #6]
 155:.\Generated_Source\PSoC4/CapSense_SMS.c **** 
 295              		.loc 1 155 0
 296 0012 244A     		ldr	r2, .L27+4
 297 0014 9A80     		strh	r2, [r3, #4]
 157:.\Generated_Source\PSoC4/CapSense_SMS.c **** 
 298              		.loc 1 157 0
 299 0016 244A     		ldr	r2, .L27+8
 300 0018 9A60     		str	r2, [r3, #8]
 159:.\Generated_Source\PSoC4/CapSense_SMS.c **** 
 301              		.loc 1 159 0
ARM GAS  C:\Users\JEPPES~1\AppData\Local\Temp\cc0EMcjB.s 			page 13


 302 001a FFF7FEFF 		bl	CapSense_SetAnalogSwitchesSrcDirect
 303              	.LVL29:
 161:.\Generated_Source\PSoC4/CapSense_SMS.c ****     {
 304              		.loc 1 161 0
 305 001e 0023     		mov	r3, #0
 306 0020 04E0     		b	.L21
 307              	.LVL30:
 308              	.L22:
 163:.\Generated_Source\PSoC4/CapSense_SMS.c ****     }
 309              		.loc 1 163 0 discriminator 3
 310 0022 9900     		lsl	r1, r3, #2
 311 0024 2148     		ldr	r0, .L27+12
 312 0026 224A     		ldr	r2, .L27+16
 313 0028 8850     		str	r0, [r1, r2]
 161:.\Generated_Source\PSoC4/CapSense_SMS.c ****     {
 314              		.loc 1 161 0 discriminator 3
 315 002a 0133     		add	r3, r3, #1
 316              	.LVL31:
 317              	.L21:
 161:.\Generated_Source\PSoC4/CapSense_SMS.c ****     {
 318              		.loc 1 161 0 is_stmt 0 discriminator 1
 319 002c 1C4A     		ldr	r2, .L27
 320 002e 5278     		ldrb	r2, [r2, #1]
 321 0030 9A42     		cmp	r2, r3
 322 0032 F6D8     		bhi	.L22
 323 0034 0023     		mov	r3, #0
 324              	.LVL32:
 325 0036 06E0     		b	.L23
 326              	.LVL33:
 327              	.L24:
 169:.\Generated_Source\PSoC4/CapSense_SMS.c ****         CapSense_sampleClkDividerVal[curSensor] = CapSense_CALIBRATION_MD;
 328              		.loc 1 169 0 is_stmt 1 discriminator 3
 329 0038 0421     		mov	r1, #4
 330 003a 1E4A     		ldr	r2, .L27+20
 331 003c D154     		strb	r1, [r2, r3]
 170:.\Generated_Source\PSoC4/CapSense_SMS.c ****     }
 332              		.loc 1 170 0 discriminator 3
 333 003e 0239     		sub	r1, r1, #2
 334 0040 1D4A     		ldr	r2, .L27+24
 335 0042 D154     		strb	r1, [r2, r3]
 167:.\Generated_Source\PSoC4/CapSense_SMS.c ****     {
 336              		.loc 1 167 0 discriminator 3
 337 0044 0133     		add	r3, r3, #1
 338              	.LVL34:
 339              	.L23:
 167:.\Generated_Source\PSoC4/CapSense_SMS.c ****     {
 340              		.loc 1 167 0 is_stmt 0 discriminator 1
 341 0046 042B     		cmp	r3, #4
 342 0048 F6D9     		bls	.L24
 173:.\Generated_Source\PSoC4/CapSense_SMS.c **** 
 343              		.loc 1 173 0 is_stmt 1
 344 004a FFF7FEFF 		bl	CapSense_DisableBaselineIDAC
 345              	.LVL35:
 175:.\Generated_Source\PSoC4/CapSense_SMS.c **** 
 346              		.loc 1 175 0
 347 004e 144C     		ldr	r4, .L27
 348 0050 1A4E     		ldr	r6, .L27+28
ARM GAS  C:\Users\JEPPES~1\AppData\Local\Temp\cc0EMcjB.s 			page 14


 349 0052 201C     		mov	r0, r4
 350 0054 311C     		mov	r1, r6
 351 0056 FFF7FEFF 		bl	CalibrateSensors_P4_v2_40
 352              	.LVL36:
 178:.\Generated_Source\PSoC4/CapSense_SMS.c ****     #endif /* (0u != CapSense_TOTAL_CENTROIDS_COUNT)  */
 353              		.loc 1 178 0
 354 005a 194D     		ldr	r5, .L27+32
 355 005c 0120     		mov	r0, #1
 356 005e 291C     		mov	r1, r5
 357 0060 FFF7FEFF 		bl	CapSense_NormalizeWidgets
 358              	.LVL37:
 181:.\Generated_Source\PSoC4/CapSense_SMS.c **** 
 359              		.loc 1 181 0
 360 0064 201C     		mov	r0, r4
 361 0066 FFF7FEFF 		bl	TunePrescalers_P4_v2_40
 362              	.LVL38:
 184:.\Generated_Source\PSoC4/CapSense_SMS.c ****     #endif /* (CapSense_PRS_OPTIONS == CapSense__PRS_NONE) */
 363              		.loc 1 184 0
 364 006a 0122     		mov	r2, #1
 365 006c 154B     		ldr	r3, .L27+36
 366 006e 1A70     		strb	r2, [r3]
 187:.\Generated_Source\PSoC4/CapSense_SMS.c ****     #if(0u != CapSense_TOTAL_CENTROIDS_COUNT)
 367              		.loc 1 187 0
 368 0070 201C     		mov	r0, r4
 369 0072 311C     		mov	r1, r6
 370 0074 FFF7FEFF 		bl	CalibrateSensors_P4_v2_40
 371              	.LVL39:
 189:.\Generated_Source\PSoC4/CapSense_SMS.c ****     #endif /* (0u != CapSense_TOTAL_CENTROIDS_COUNT)  */
 372              		.loc 1 189 0
 373 0078 0120     		mov	r0, #1
 374 007a 291C     		mov	r1, r5
 375 007c FFF7FEFF 		bl	CapSense_NormalizeWidgets
 376              	.LVL40:
 191:.\Generated_Source\PSoC4/CapSense_SMS.c **** 
 377              		.loc 1 191 0
 378 0080 201C     		mov	r0, r4
 379 0082 FFF7FEFF 		bl	TuneSensitivity_P4_v2_40
 380              	.LVL41:
 193:.\Generated_Source\PSoC4/CapSense_SMS.c **** 
 381              		.loc 1 193 0
 382 0086 201C     		mov	r0, r4
 383 0088 FFF7FEFF 		bl	CapSense_EnableBaselineIDAC
 384              	.LVL42:
 195:.\Generated_Source\PSoC4/CapSense_SMS.c ****     {
 385              		.loc 1 195 0
 386 008c 0024     		mov	r4, #0
 387 008e 03E0     		b	.L25
 388              	.LVL43:
 389              	.L26:
 197:.\Generated_Source\PSoC4/CapSense_SMS.c ****     }
 390              		.loc 1 197 0 discriminator 3
 391 0090 201C     		mov	r0, r4
 392 0092 FFF7FEFF 		bl	CapSense_UpdateThresholds
 393              	.LVL44:
 195:.\Generated_Source\PSoC4/CapSense_SMS.c ****     {
 394              		.loc 1 195 0 discriminator 3
 395 0096 0134     		add	r4, r4, #1
ARM GAS  C:\Users\JEPPES~1\AppData\Local\Temp\cc0EMcjB.s 			page 15


 396              	.LVL45:
 397              	.L25:
 195:.\Generated_Source\PSoC4/CapSense_SMS.c ****     {
 398              		.loc 1 195 0 is_stmt 0 discriminator 1
 399 0098 042C     		cmp	r4, #4
 400 009a F9D9     		bls	.L26
 199:.\Generated_Source\PSoC4/CapSense_SMS.c **** 
 401              		.loc 1 199 0 is_stmt 1
 402              		@ sp needed
 403              	.LVL46:
 404 009c 70BD     		pop	{r4, r5, r6, pc}
 405              	.L28:
 406 009e C046     		.align	2
 407              	.L27:
 408 00a0 00000000 		.word	CapSense_config
 409 00a4 66020000 		.word	614
 410 00a8 00000000 		.word	.LANCHOR0
 411 00ac 0000FF0F 		.word	268369920
 412 00b0 00000000 		.word	CapSense_widgetResolution
 413 00b4 00000000 		.word	CapSense_senseClkDividerVal
 414 00b8 00000000 		.word	CapSense_sampleClkDividerVal
 415 00bc 9A0D0000 		.word	3482
 416 00c0 00000000 		.word	CapSense_modulationIDAC
 417 00c4 00000000 		.word	CapSense_prescalersTuningDone
 418              		.cfi_endproc
 419              	.LFE34:
 420              		.size	CapSense_AutoTune, .-CapSense_AutoTune
 421              		.section	.text.CapSense_SetSensitivity,"ax",%progbits
 422              		.align	2
 423              		.global	CapSense_SetSensitivity
 424              		.code	16
 425              		.thumb_func
 426              		.type	CapSense_SetSensitivity, %function
 427              	CapSense_SetSensitivity:
 428              	.LFB39:
 374:.\Generated_Source\PSoC4/CapSense_SMS.c **** 
 375:.\Generated_Source\PSoC4/CapSense_SMS.c **** 
 376:.\Generated_Source\PSoC4/CapSense_SMS.c **** /*******************************************************************************
 377:.\Generated_Source\PSoC4/CapSense_SMS.c **** * Function Name: CapSense_SetSensitivity
 378:.\Generated_Source\PSoC4/CapSense_SMS.c **** ********************************************************************************
 379:.\Generated_Source\PSoC4/CapSense_SMS.c **** *
 380:.\Generated_Source\PSoC4/CapSense_SMS.c **** * Summary:
 381:.\Generated_Source\PSoC4/CapSense_SMS.c **** *  This API sets the sensitivity value for the sensor. The sensitivity
 382:.\Generated_Source\PSoC4/CapSense_SMS.c **** *  value is used during the auto-tuning algorithm executed as part of the CapSense_Start API.
 383:.\Generated_Source\PSoC4/CapSense_SMS.c **** *  This API is called by the application layer prior to calling the CapSense_Start API.
 384:.\Generated_Source\PSoC4/CapSense_SMS.c **** *  Calling this API after execution of CapSense_Start API has no effect.
 385:.\Generated_Source\PSoC4/CapSense_SMS.c **** *
 386:.\Generated_Source\PSoC4/CapSense_SMS.c **** * Parameters:
 387:.\Generated_Source\PSoC4/CapSense_SMS.c **** *  sensor  Sensor index
 388:.\Generated_Source\PSoC4/CapSense_SMS.c **** *  data    Sensitivity of the sensor. Possible values are below
 389:.\Generated_Source\PSoC4/CapSense_SMS.c **** *  1 - 0.1pf sensitivity
 390:.\Generated_Source\PSoC4/CapSense_SMS.c **** *  2 - 0.2pf sensitivity
 391:.\Generated_Source\PSoC4/CapSense_SMS.c **** *  3 - 0.3pf sensitivity
 392:.\Generated_Source\PSoC4/CapSense_SMS.c **** *  4 - 0.4pf sensitivity
 393:.\Generated_Source\PSoC4/CapSense_SMS.c **** *  5 - 0.5pf sensitivity
 394:.\Generated_Source\PSoC4/CapSense_SMS.c **** *  6 - 0.6pf sensitivity
 395:.\Generated_Source\PSoC4/CapSense_SMS.c **** *  7 - 0.7pf sensitivity
ARM GAS  C:\Users\JEPPES~1\AppData\Local\Temp\cc0EMcjB.s 			page 16


 396:.\Generated_Source\PSoC4/CapSense_SMS.c **** *  8 - 0.8pf sensitivity
 397:.\Generated_Source\PSoC4/CapSense_SMS.c **** *  9 - 0.9pf sensitivity
 398:.\Generated_Source\PSoC4/CapSense_SMS.c **** *  10 - 1.0pf sensitivity
 399:.\Generated_Source\PSoC4/CapSense_SMS.c **** *  All other values, set sensitivity to 1.0pf
 400:.\Generated_Source\PSoC4/CapSense_SMS.c **** *
 401:.\Generated_Source\PSoC4/CapSense_SMS.c **** *  Return Value:
 402:.\Generated_Source\PSoC4/CapSense_SMS.c **** *   None
 403:.\Generated_Source\PSoC4/CapSense_SMS.c **** *
 404:.\Generated_Source\PSoC4/CapSense_SMS.c **** * Global Variables:
 405:.\Generated_Source\PSoC4/CapSense_SMS.c **** * CapSense_sensorSensitivity[] - This 8-bits array contains Sensitivity in the LSB nibble
 406:.\Generated_Source\PSoC4/CapSense_SMS.c **** *                                and Noise Reset Counter value in the MSB nibble.
 407:.\Generated_Source\PSoC4/CapSense_SMS.c **** *
 408:.\Generated_Source\PSoC4/CapSense_SMS.c **** * Side Effects:
 409:.\Generated_Source\PSoC4/CapSense_SMS.c **** *  None
 410:.\Generated_Source\PSoC4/CapSense_SMS.c **** *
 411:.\Generated_Source\PSoC4/CapSense_SMS.c **** *******************************************************************************/
 412:.\Generated_Source\PSoC4/CapSense_SMS.c **** void CapSense_SetSensitivity(uint32 sensor, uint32 value)
 413:.\Generated_Source\PSoC4/CapSense_SMS.c **** {
 429              		.loc 1 413 0
 430              		.cfi_startproc
 431              	.LVL47:
 432 0000 10B5     		push	{r4, lr}
 433              		.cfi_def_cfa_offset 8
 434              		.cfi_offset 4, -8
 435              		.cfi_offset 14, -4
 414:.\Generated_Source\PSoC4/CapSense_SMS.c ****     if(value > 10u)
 436              		.loc 1 414 0
 437 0002 0A29     		cmp	r1, #10
 438 0004 00D9     		bls	.L30
 415:.\Generated_Source\PSoC4/CapSense_SMS.c ****     {
 416:.\Generated_Source\PSoC4/CapSense_SMS.c ****         value = 10u;
 439              		.loc 1 416 0
 440 0006 0A21     		mov	r1, #10
 441              	.LVL48:
 442              	.L30:
 417:.\Generated_Source\PSoC4/CapSense_SMS.c ****     }
 418:.\Generated_Source\PSoC4/CapSense_SMS.c **** 
 419:.\Generated_Source\PSoC4/CapSense_SMS.c ****     /* Clear SensorSensitivity value in LSB nibble */
 420:.\Generated_Source\PSoC4/CapSense_SMS.c ****     CapSense_sensorSensitivity[sensor] &= (uint8)~CapSense_SENSITIVITY_MASK;
 443              		.loc 1 420 0
 444 0008 034A     		ldr	r2, .L32
 445 000a 135C     		ldrb	r3, [r2, r0]
 446 000c 0F24     		mov	r4, #15
 447 000e A343     		bic	r3, r4
 421:.\Generated_Source\PSoC4/CapSense_SMS.c ****     /* Set SensorSensitivity value in LSB nibble */
 422:.\Generated_Source\PSoC4/CapSense_SMS.c ****     CapSense_sensorSensitivity[sensor] |= (uint8)value;
 448              		.loc 1 422 0
 449 0010 1943     		orr	r1, r3
 450              	.LVL49:
 451 0012 1154     		strb	r1, [r2, r0]
 423:.\Generated_Source\PSoC4/CapSense_SMS.c **** }
 452              		.loc 1 423 0
 453              		@ sp needed
 454 0014 10BD     		pop	{r4, pc}
 455              	.L33:
 456 0016 C046     		.align	2
 457              	.L32:
ARM GAS  C:\Users\JEPPES~1\AppData\Local\Temp\cc0EMcjB.s 			page 17


 458 0018 00000000 		.word	.LANCHOR1
 459              		.cfi_endproc
 460              	.LFE39:
 461              		.size	CapSense_SetSensitivity, .-CapSense_SetSensitivity
 462              		.section	.text.CapSense_GetSensitivityCoefficient,"ax",%progbits
 463              		.align	2
 464              		.global	CapSense_GetSensitivityCoefficient
 465              		.code	16
 466              		.thumb_func
 467              		.type	CapSense_GetSensitivityCoefficient, %function
 468              	CapSense_GetSensitivityCoefficient:
 469              	.LFB40:
 424:.\Generated_Source\PSoC4/CapSense_SMS.c **** 
 425:.\Generated_Source\PSoC4/CapSense_SMS.c **** 
 426:.\Generated_Source\PSoC4/CapSense_SMS.c **** /*******************************************************************************
 427:.\Generated_Source\PSoC4/CapSense_SMS.c **** * Function Name: CapSense_GetSensitivityCoefficient
 428:.\Generated_Source\PSoC4/CapSense_SMS.c **** ********************************************************************************
 429:.\Generated_Source\PSoC4/CapSense_SMS.c **** *
 430:.\Generated_Source\PSoC4/CapSense_SMS.c **** * Summary:
 431:.\Generated_Source\PSoC4/CapSense_SMS.c **** *  This API returns the K coefficient for the appropriate sensor.
 432:.\Generated_Source\PSoC4/CapSense_SMS.c **** *
 433:.\Generated_Source\PSoC4/CapSense_SMS.c **** * Parameters:
 434:.\Generated_Source\PSoC4/CapSense_SMS.c **** *  sensor:  Sensor index
 435:.\Generated_Source\PSoC4/CapSense_SMS.c **** *
 436:.\Generated_Source\PSoC4/CapSense_SMS.c **** *  Return Value:
 437:.\Generated_Source\PSoC4/CapSense_SMS.c **** *   K - value for the appropriate sensor.
 438:.\Generated_Source\PSoC4/CapSense_SMS.c **** *
 439:.\Generated_Source\PSoC4/CapSense_SMS.c **** * Global Variables:
 440:.\Generated_Source\PSoC4/CapSense_SMS.c **** *  CapSense_kValueTbl[] - This 8-bits array contains the K value for each sensor.
 441:.\Generated_Source\PSoC4/CapSense_SMS.c **** *
 442:.\Generated_Source\PSoC4/CapSense_SMS.c **** * Side Effects:
 443:.\Generated_Source\PSoC4/CapSense_SMS.c **** *  None
 444:.\Generated_Source\PSoC4/CapSense_SMS.c **** *
 445:.\Generated_Source\PSoC4/CapSense_SMS.c **** *******************************************************************************/
 446:.\Generated_Source\PSoC4/CapSense_SMS.c **** uint8 CapSense_GetSensitivityCoefficient(uint32 sensor)
 447:.\Generated_Source\PSoC4/CapSense_SMS.c **** {
 470              		.loc 1 447 0
 471              		.cfi_startproc
 472              	.LVL50:
 448:.\Generated_Source\PSoC4/CapSense_SMS.c ****     return (CapSense_kValueTbl[sensor]);
 473              		.loc 1 448 0
 474 0000 014B     		ldr	r3, .L35
 475 0002 185C     		ldrb	r0, [r3, r0]
 476              	.LVL51:
 449:.\Generated_Source\PSoC4/CapSense_SMS.c **** }
 477              		.loc 1 449 0
 478              		@ sp needed
 479 0004 7047     		bx	lr
 480              	.L36:
 481 0006 C046     		.align	2
 482              	.L35:
 483 0008 00000000 		.word	CapSense_kValueTbl
 484              		.cfi_endproc
 485              	.LFE40:
 486              		.size	CapSense_GetSensitivityCoefficient, .-CapSense_GetSensitivityCoefficient
 487              		.section	.text.CapSense_GetNoiseEnvelope,"ax",%progbits
 488              		.align	2
ARM GAS  C:\Users\JEPPES~1\AppData\Local\Temp\cc0EMcjB.s 			page 18


 489              		.global	CapSense_GetNoiseEnvelope
 490              		.code	16
 491              		.thumb_func
 492              		.type	CapSense_GetNoiseEnvelope, %function
 493              	CapSense_GetNoiseEnvelope:
 494              	.LFB41:
 450:.\Generated_Source\PSoC4/CapSense_SMS.c **** 
 451:.\Generated_Source\PSoC4/CapSense_SMS.c **** 
 452:.\Generated_Source\PSoC4/CapSense_SMS.c **** /*******************************************************************************
 453:.\Generated_Source\PSoC4/CapSense_SMS.c **** * Function Name: CapSense_GetNoiseEnvelope
 454:.\Generated_Source\PSoC4/CapSense_SMS.c **** ********************************************************************************
 455:.\Generated_Source\PSoC4/CapSense_SMS.c **** *
 456:.\Generated_Source\PSoC4/CapSense_SMS.c **** * Summary:
 457:.\Generated_Source\PSoC4/CapSense_SMS.c **** *  This function returns the noise value of a
 458:.\Generated_Source\PSoC4/CapSense_SMS.c **** *  component.
 459:.\Generated_Source\PSoC4/CapSense_SMS.c **** *
 460:.\Generated_Source\PSoC4/CapSense_SMS.c **** * Parameters:
 461:.\Generated_Source\PSoC4/CapSense_SMS.c **** *  sensor - Sensor number.
 462:.\Generated_Source\PSoC4/CapSense_SMS.c **** *
 463:.\Generated_Source\PSoC4/CapSense_SMS.c **** * Return:
 464:.\Generated_Source\PSoC4/CapSense_SMS.c **** *  The noise envelope value of the sensor
 465:.\Generated_Source\PSoC4/CapSense_SMS.c **** *  indicated by argument.
 466:.\Generated_Source\PSoC4/CapSense_SMS.c **** *
 467:.\Generated_Source\PSoC4/CapSense_SMS.c **** * Global Variables:
 468:.\Generated_Source\PSoC4/CapSense_SMS.c **** *  CapSense_noiseEnvelopeTbl[] - array with Noise Envelope.
 469:.\Generated_Source\PSoC4/CapSense_SMS.c **** *
 470:.\Generated_Source\PSoC4/CapSense_SMS.c **** * Side Effects:
 471:.\Generated_Source\PSoC4/CapSense_SMS.c **** *  None
 472:.\Generated_Source\PSoC4/CapSense_SMS.c **** *
 473:.\Generated_Source\PSoC4/CapSense_SMS.c **** *******************************************************************************/
 474:.\Generated_Source\PSoC4/CapSense_SMS.c **** uint16 CapSense_GetNoiseEnvelope(uint32 sensor)
 475:.\Generated_Source\PSoC4/CapSense_SMS.c **** {
 495              		.loc 1 475 0
 496              		.cfi_startproc
 497              	.LVL52:
 476:.\Generated_Source\PSoC4/CapSense_SMS.c ****     return((uint16)((uint16)CapSense_noiseEnvelopeTbl[sensor] << 1u) + 1u);
 498              		.loc 1 476 0
 499 0000 024B     		ldr	r3, .L38
 500 0002 185C     		ldrb	r0, [r3, r0]
 501              	.LVL53:
 502 0004 4000     		lsl	r0, r0, #1
 503 0006 0130     		add	r0, r0, #1
 477:.\Generated_Source\PSoC4/CapSense_SMS.c **** }
 504              		.loc 1 477 0
 505              		@ sp needed
 506 0008 7047     		bx	lr
 507              	.L39:
 508 000a C046     		.align	2
 509              	.L38:
 510 000c 00000000 		.word	CapSense_noiseEnvelopeTbl
 511              		.cfi_endproc
 512              	.LFE41:
 513              		.size	CapSense_GetNoiseEnvelope, .-CapSense_GetNoiseEnvelope
 514              		.global	__aeabi_uidiv
 515              		.section	.text.CapSense_GetNormalizedDiffCountData,"ax",%progbits
 516              		.align	2
 517              		.global	CapSense_GetNormalizedDiffCountData
ARM GAS  C:\Users\JEPPES~1\AppData\Local\Temp\cc0EMcjB.s 			page 19


 518              		.code	16
 519              		.thumb_func
 520              		.type	CapSense_GetNormalizedDiffCountData, %function
 521              	CapSense_GetNormalizedDiffCountData:
 522              	.LFB42:
 478:.\Generated_Source\PSoC4/CapSense_SMS.c **** 
 479:.\Generated_Source\PSoC4/CapSense_SMS.c **** 
 480:.\Generated_Source\PSoC4/CapSense_SMS.c **** /*******************************************************************************
 481:.\Generated_Source\PSoC4/CapSense_SMS.c **** * Function Name: CapSense_GetNormalizedDiffCountData
 482:.\Generated_Source\PSoC4/CapSense_SMS.c **** ********************************************************************************
 483:.\Generated_Source\PSoC4/CapSense_SMS.c **** *
 484:.\Generated_Source\PSoC4/CapSense_SMS.c **** * Summary:
 485:.\Generated_Source\PSoC4/CapSense_SMS.c **** *  This API returns normalized difference count data.
 486:.\Generated_Source\PSoC4/CapSense_SMS.c **** *
 487:.\Generated_Source\PSoC4/CapSense_SMS.c **** * Parameters:
 488:.\Generated_Source\PSoC4/CapSense_SMS.c **** *  sensor:  Sensor number.
 489:.\Generated_Source\PSoC4/CapSense_SMS.c **** *
 490:.\Generated_Source\PSoC4/CapSense_SMS.c **** * Return:
 491:.\Generated_Source\PSoC4/CapSense_SMS.c **** *  This API returns a normalized count value of the sensor indicated by the
 492:.\Generated_Source\PSoC4/CapSense_SMS.c **** *  argument.
 493:.\Generated_Source\PSoC4/CapSense_SMS.c **** *
 494:.\Generated_Source\PSoC4/CapSense_SMS.c **** * Global Variables:
 495:.\Generated_Source\PSoC4/CapSense_SMS.c **** *  CapSense_sensorSignal[] - array with difference counts for sensors
 496:.\Generated_Source\PSoC4/CapSense_SMS.c **** *
 497:.\Generated_Source\PSoC4/CapSense_SMS.c **** * Side Effects:
 498:.\Generated_Source\PSoC4/CapSense_SMS.c **** *  None
 499:.\Generated_Source\PSoC4/CapSense_SMS.c **** *
 500:.\Generated_Source\PSoC4/CapSense_SMS.c **** *******************************************************************************/
 501:.\Generated_Source\PSoC4/CapSense_SMS.c **** uint16 CapSense_GetNormalizedDiffCountData(uint32 sensor)
 502:.\Generated_Source\PSoC4/CapSense_SMS.c **** {
 523              		.loc 1 502 0
 524              		.cfi_startproc
 525              	.LVL54:
 526 0000 08B5     		push	{r3, lr}
 527              		.cfi_def_cfa_offset 8
 528              		.cfi_offset 3, -8
 529              		.cfi_offset 14, -4
 530 0002 021C     		mov	r2, r0
 503:.\Generated_Source\PSoC4/CapSense_SMS.c ****     return (uint16)(((uint32)CapSense_sensorSignal[sensor] << 7u) / CapSense_kValueTbl[sensor]);
 531              		.loc 1 503 0
 532 0004 044B     		ldr	r3, .L41
 533 0006 1B5C     		ldrb	r3, [r3, r0]
 534 0008 D801     		lsl	r0, r3, #7
 535              	.LVL55:
 536 000a 044B     		ldr	r3, .L41+4
 537 000c 995C     		ldrb	r1, [r3, r2]
 538 000e FFF7FEFF 		bl	__aeabi_uidiv
 539              	.LVL56:
 540 0012 80B2     		uxth	r0, r0
 504:.\Generated_Source\PSoC4/CapSense_SMS.c **** }
 541              		.loc 1 504 0
 542              		@ sp needed
 543 0014 08BD     		pop	{r3, pc}
 544              	.L42:
 545 0016 C046     		.align	2
 546              	.L41:
 547 0018 00000000 		.word	CapSense_sensorSignal
ARM GAS  C:\Users\JEPPES~1\AppData\Local\Temp\cc0EMcjB.s 			page 20


 548 001c 00000000 		.word	CapSense_kValueTbl
 549              		.cfi_endproc
 550              	.LFE42:
 551              		.size	CapSense_GetNormalizedDiffCountData, .-CapSense_GetNormalizedDiffCountData
 552              		.global	CapSense_configPointers
 553              		.comm	CapSense_config,12,4
 554              		.global	CapSense_sensorSensitivity
 555              		.comm	CapSense_kValueTbl,5,4
 556              		.comm	CapSense_previousSampleTbl,10,4
 557              		.comm	CapSense_sampleMaxTbl,10,4
 558              		.comm	CapSense_sampleMinTbl,10,4
 559              		.comm	CapSense_signRegisterTbl,5,4
 560              		.comm	CapSense_runningDifferenceTbl,5,4
 561              		.comm	CapSense_noiseEnvelopeTbl,5,4
 562              		.global	CapSense_prescalerTable
 563              		.section	.rodata
 564              		.align	2
 565              		.set	.LANCHOR0,. + 0
 566              		.type	CapSense_configPointers, %object
 567              		.size	CapSense_configPointers, 92
 568              	CapSense_configPointers:
 569 0000 00000000 		.word	CapSense_modulationIDAC
 570 0004 00000000 		.word	CapSense_compensationIDAC
 571 0008 00000000 		.word	CapSense_sensorSensitivity
 572 000c 00000000 		.word	CapSense_senseClkDividerVal
 573 0010 00000000 		.word	CapSense_sampleClkDividerVal
 574 0014 00000000 		.word	CapSense_widgetNumber
 575 0018 00000000 		.word	CapSense_widgetResolution
 576 001c 00000000 		.word	CapSense_noiseEnvelopeTbl
 577 0020 00000000 		.word	CapSense_runningDifferenceTbl
 578 0024 00000000 		.word	CapSense_signRegisterTbl
 579 0028 00000000 		.word	CapSense_sampleMinTbl
 580 002c 00000000 		.word	CapSense_sampleMaxTbl
 581 0030 00000000 		.word	CapSense_previousSampleTbl
 582 0034 00000000 		.word	CapSense_kValueTbl
 583 0038 00000000 		.word	CapSense_scanSpeedTbl
 584 003c 00000000 		.word	CapSense_prescalerTable
 585 0040 00000000 		.word	CapSense_rawDataIndex
 586 0044 00000000 		.word	CapSense_numberOfSensors
 587 0048 00000000 		.word	CapSense_GetSensorRaw
 588 004c 00000000 		.word	CapSense_PreScan
 589 0050 00000000 		.word	CapSense_ReadSensorRaw
 590 0054 00000000 		.word	CapSense_GetBitValue
 591 0058 00000000 		.word	CapSense_SetBitValue
 592              		.type	CapSense_prescalerTable, %object
 593              		.size	CapSense_prescalerTable, 16
 594              	CapSense_prescalerTable:
 595 005c 01       		.byte	1
 596 005d 01       		.byte	1
 597 005e 01       		.byte	1
 598 005f 02       		.byte	2
 599 0060 02       		.byte	2
 600 0061 02       		.byte	2
 601 0062 02       		.byte	2
 602 0063 04       		.byte	4
 603 0064 04       		.byte	4
 604 0065 04       		.byte	4
ARM GAS  C:\Users\JEPPES~1\AppData\Local\Temp\cc0EMcjB.s 			page 21


 605 0066 04       		.byte	4
 606 0067 04       		.byte	4
 607 0068 04       		.byte	4
 608 0069 04       		.byte	4
 609 006a 04       		.byte	4
 610 006b 04       		.byte	4
 611              		.data
 612              		.align	2
 613              		.set	.LANCHOR1,. + 0
 614              		.type	CapSense_sensorSensitivity, %object
 615              		.size	CapSense_sensorSensitivity, 5
 616              	CapSense_sensorSensitivity:
 617 0000 02       		.byte	2
 618 0001 02       		.byte	2
 619 0002 02       		.byte	2
 620 0003 02       		.byte	2
 621 0004 02       		.byte	2
 622 0005 000000   		.text
 623              	.Letext0:
 624              		.file 2 ".\\Generated_Source\\PSoC4\\cytypes.h"
 625              		.file 3 ".\\Generated_Source\\PSoC4\\CapSense_PVT.h"
 626              		.file 4 ".\\Generated_Source\\PSoC4\\CapSense.h"
 627              		.file 5 ".\\Generated_Source\\PSoC4\\CapSense_CSHL.h"
 628              		.file 6 ".\\Generated_Source\\PSoC4\\CyLib.h"