ARM GAS  C:\Users\JEPPES~1\AppData\Local\Temp\ccg0iLgx.s 			page 1


   1              		.cpu cortex-m0
   2              		.fpu softvfp
   3              		.eabi_attribute 20, 1
   4              		.eabi_attribute 21, 1
   5              		.eabi_attribute 23, 3
   6              		.eabi_attribute 24, 1
   7              		.eabi_attribute 25, 1
   8              		.eabi_attribute 26, 1
   9              		.eabi_attribute 30, 1
  10              		.eabi_attribute 34, 0
  11              		.eabi_attribute 18, 4
  12              		.code	16
  13              		.file	"handler.c"
  14              		.text
  15              	.Ltext0:
  16              		.cfi_sections	.debug_frame
  17              		.section	.text.handler,"ax",%progbits
  18              		.align	2
  19              		.global	handler
  20              		.code	16
  21              		.thumb_func
  22              		.type	handler, %function
  23              	handler:
  24              	.LFB34:
  25              		.file 1 ".\\handler.c"
   1:.\handler.c   **** /* ========================================
   2:.\handler.c   ****  *
   3:.\handler.c   ****  * File: handler.c
   4:.\handler.c   ****  * Description: 
   5:.\handler.c   ****  *
   6:.\handler.c   ****  * University: AARHUS UNIVERSITY SCHOOL OF ENGINEERING
   7:.\handler.c   ****  * Project: F16 - E3PRJ3-02 Semesterprojekt 3 [240501U178]
   8:.\handler.c   ****  * Group: 1
   9:.\handler.c   ****  * 
  10:.\handler.c   ****  * Author: Jeppe Stærk
  11:.\handler.c   ****  * Matriculation number: 201271201
  12:.\handler.c   ****  *
  13:.\handler.c   ****  * Version: 1.0
  14:.\handler.c   ****  * Date: 13-05-2016
  15:.\handler.c   ****  *
  16:.\handler.c   ****  * ========================================
  17:.\handler.c   **** */
  18:.\handler.c   **** 
  19:.\handler.c   **** #include "handler.h"
  20:.\handler.c   **** 
  21:.\handler.c   **** uint8 xPos = 0;
  22:.\handler.c   **** uint8 xMax = 0;
  23:.\handler.c   **** uint8 yPos = 0;
  24:.\handler.c   **** uint8 yMax = 0;
  25:.\handler.c   **** uint8 zPos = 0;
  26:.\handler.c   **** uint8 zMax = 0;
  27:.\handler.c   **** 
  28:.\handler.c   **** 
  29:.\handler.c   **** void handler(uint8 cmd, uint8 txVal)
  30:.\handler.c   **** {
  26              		.loc 1 30 0
  27              		.cfi_startproc
ARM GAS  C:\Users\JEPPES~1\AppData\Local\Temp\ccg0iLgx.s 			page 2


  28              	.LVL0:
  29 0000 30B5     		push	{r4, r5, lr}
  30              		.cfi_def_cfa_offset 12
  31              		.cfi_offset 4, -12
  32              		.cfi_offset 5, -8
  33              		.cfi_offset 14, -4
  34 0002 83B0     		sub	sp, sp, #12
  35              		.cfi_def_cfa_offset 24
  31:.\handler.c   ****     uint8 rxVal = 0;
  36              		.loc 1 31 0
  37 0004 0025     		mov	r5, #0
  38 0006 6B46     		mov	r3, sp
  39 0008 DD71     		strb	r5, [r3, #7]
  32:.\handler.c   ****     
  33:.\handler.c   ****     switch (cmd)
  40              		.loc 1 33 0
  41 000a 7328     		cmp	r0, #115
  42 000c 00D9     		bls	.LCB17
  43 000e ECE0     		b	.L1	@long jump
  44              	.LCB17:
  45 0010 0C1C     		mov	r4, r1
  46 0012 011C     		mov	r1, r0
  47              	.LVL1:
  48 0014 8300     		lsl	r3, r0, #2
  49 0016 764A     		ldr	r2, .L41
  50 0018 D358     		ldr	r3, [r2, r3]
  51 001a 9F46     		mov	pc, r3
  52              		.section	.rodata
  53              		.align	2
  54              	.L4:
  55 0000 EA010000 		.word	.L1
  56 0004 1C000000 		.word	.L3
  57 0008 3E000000 		.word	.L5
  58 000c EA010000 		.word	.L1
  59 0010 EA010000 		.word	.L1
  60 0014 EA010000 		.word	.L1
  61 0018 EA010000 		.word	.L1
  62 001c EA010000 		.word	.L1
  63 0020 EA010000 		.word	.L1
  64 0024 EA010000 		.word	.L1
  65 0028 EA010000 		.word	.L1
  66 002c EA010000 		.word	.L1
  67 0030 EA010000 		.word	.L1
  68 0034 EA010000 		.word	.L1
  69 0038 EA010000 		.word	.L1
  70 003c EA010000 		.word	.L1
  71 0040 60000000 		.word	.L6
  72 0044 6A000000 		.word	.L7
  73 0048 74000000 		.word	.L8
  74 004c 7E000000 		.word	.L9
  75 0050 88000000 		.word	.L10
  76 0054 92000000 		.word	.L11
  77 0058 9C000000 		.word	.L12
  78 005c A6000000 		.word	.L13
  79 0060 B0000000 		.word	.L14
  80 0064 BA000000 		.word	.L15
  81 0068 EA010000 		.word	.L1
ARM GAS  C:\Users\JEPPES~1\AppData\Local\Temp\ccg0iLgx.s 			page 3


  82 006c EA010000 		.word	.L1
  83 0070 EA010000 		.word	.L1
  84 0074 EA010000 		.word	.L1
  85 0078 EA010000 		.word	.L1
  86 007c EA010000 		.word	.L1
  87 0080 C4000000 		.word	.L16
  88 0084 CE000000 		.word	.L17
  89 0088 D8000000 		.word	.L18
  90 008c E2000000 		.word	.L19
  91 0090 EC000000 		.word	.L20
  92 0094 EA010000 		.word	.L1
  93 0098 EA010000 		.word	.L1
  94 009c EA010000 		.word	.L1
  95 00a0 EA010000 		.word	.L1
  96 00a4 EA010000 		.word	.L1
  97 00a8 EA010000 		.word	.L1
  98 00ac EA010000 		.word	.L1
  99 00b0 EA010000 		.word	.L1
 100 00b4 EA010000 		.word	.L1
 101 00b8 EA010000 		.word	.L1
 102 00bc EA010000 		.word	.L1
 103 00c0 F6000000 		.word	.L21
 104 00c4 00010000 		.word	.L22
 105 00c8 0A010000 		.word	.L23
 106 00cc 14010000 		.word	.L24
 107 00d0 1E010000 		.word	.L25
 108 00d4 28010000 		.word	.L26
 109 00d8 34010000 		.word	.L27
 110 00dc 40010000 		.word	.L28
 111 00e0 4C010000 		.word	.L29
 112 00e4 58010000 		.word	.L30
 113 00e8 EA010000 		.word	.L1
 114 00ec EA010000 		.word	.L1
 115 00f0 EA010000 		.word	.L1
 116 00f4 EA010000 		.word	.L1
 117 00f8 EA010000 		.word	.L1
 118 00fc EA010000 		.word	.L1
 119 0100 64010000 		.word	.L31
 120 0104 6E010000 		.word	.L32
 121 0108 78010000 		.word	.L33
 122 010c 84010000 		.word	.L34
 123 0110 90010000 		.word	.L35
 124 0114 AA010000 		.word	.L36
 125 0118 EA010000 		.word	.L1
 126 011c EA010000 		.word	.L1
 127 0120 EA010000 		.word	.L1
 128 0124 EA010000 		.word	.L1
 129 0128 EA010000 		.word	.L1
 130 012c EA010000 		.word	.L1
 131 0130 EA010000 		.word	.L1
 132 0134 EA010000 		.word	.L1
 133 0138 EA010000 		.word	.L1
 134 013c EA010000 		.word	.L1
 135 0140 EA010000 		.word	.L1
 136 0144 EA010000 		.word	.L1
 137 0148 EA010000 		.word	.L1
 138 014c EA010000 		.word	.L1
ARM GAS  C:\Users\JEPPES~1\AppData\Local\Temp\ccg0iLgx.s 			page 4


 139 0150 EA010000 		.word	.L1
 140 0154 EA010000 		.word	.L1
 141 0158 EA010000 		.word	.L1
 142 015c EA010000 		.word	.L1
 143 0160 EA010000 		.word	.L1
 144 0164 EA010000 		.word	.L1
 145 0168 EA010000 		.word	.L1
 146 016c EA010000 		.word	.L1
 147 0170 EA010000 		.word	.L1
 148 0174 EA010000 		.word	.L1
 149 0178 EA010000 		.word	.L1
 150 017c EA010000 		.word	.L1
 151 0180 EA010000 		.word	.L1
 152 0184 EA010000 		.word	.L1
 153 0188 EA010000 		.word	.L1
 154 018c EA010000 		.word	.L1
 155 0190 EA010000 		.word	.L1
 156 0194 EA010000 		.word	.L1
 157 0198 EA010000 		.word	.L1
 158 019c EA010000 		.word	.L1
 159 01a0 EA010000 		.word	.L1
 160 01a4 EA010000 		.word	.L1
 161 01a8 EA010000 		.word	.L1
 162 01ac EA010000 		.word	.L1
 163 01b0 EA010000 		.word	.L1
 164 01b4 EA010000 		.word	.L1
 165 01b8 EA010000 		.word	.L1
 166 01bc EA010000 		.word	.L1
 167 01c0 B4010000 		.word	.L37
 168 01c4 C2010000 		.word	.L38
 169 01c8 D0010000 		.word	.L39
 170 01cc DE010000 		.word	.L40
 171              		.section	.text.handler
 172              	.L3:
  34:.\handler.c   ****     {
  35:.\handler.c   ****         case 0x01 :
  36:.\handler.c   ****             i2c_rx(PSoC_XY, getXPos, &xPos);
 173              		.loc 1 36 0
 174 001c 754C     		ldr	r4, .L41+4
 175 001e 0820     		mov	r0, #8
 176              	.LVL2:
 177 0020 1221     		mov	r1, #18
 178 0022 221C     		mov	r2, r4
 179 0024 FFF7FEFF 		bl	i2c_rx
 180              	.LVL3:
  37:.\handler.c   ****             i2c_rx(PSoC_XY, getYPos, &yPos);
 181              		.loc 1 37 0
 182 0028 621C     		add	r2, r4, #1
 183 002a 0820     		mov	r0, #8
 184 002c 1321     		mov	r1, #19
 185 002e FFF7FEFF 		bl	i2c_rx
 186              	.LVL4:
  38:.\handler.c   ****             i2c_rx(PSoC_Z, getZPos, &zPos);
 187              		.loc 1 38 0
 188 0032 A21C     		add	r2, r4, #2
 189 0034 0920     		mov	r0, #9
 190 0036 2121     		mov	r1, #33
ARM GAS  C:\Users\JEPPES~1\AppData\Local\Temp\ccg0iLgx.s 			page 5


 191 0038 FFF7FEFF 		bl	i2c_rx
 192              	.LVL5:
  39:.\handler.c   ****             break;
 193              		.loc 1 39 0
 194 003c D5E0     		b	.L1
 195              	.LVL6:
 196              	.L5:
  40:.\handler.c   ****         case 0x02 :
  41:.\handler.c   ****             i2c_rx(PSoC_XY, getXMax, &xMax);
 197              		.loc 1 41 0
 198 003e 6D4C     		ldr	r4, .L41+4
 199 0040 E21C     		add	r2, r4, #3
 200 0042 0820     		mov	r0, #8
 201              	.LVL7:
 202 0044 1421     		mov	r1, #20
 203 0046 FFF7FEFF 		bl	i2c_rx
 204              	.LVL8:
  42:.\handler.c   ****             i2c_rx(PSoC_XY, getYMax, &yMax);
 205              		.loc 1 42 0
 206 004a 221D     		add	r2, r4, #4
 207 004c 0820     		mov	r0, #8
 208 004e 1521     		mov	r1, #21
 209 0050 FFF7FEFF 		bl	i2c_rx
 210              	.LVL9:
  43:.\handler.c   ****             i2c_rx(PSoC_Z, getZMax, &zMax);
 211              		.loc 1 43 0
 212 0054 621D     		add	r2, r4, #5
 213 0056 0920     		mov	r0, #9
 214 0058 2221     		mov	r1, #34
 215 005a FFF7FEFF 		bl	i2c_rx
 216              	.LVL10:
  44:.\handler.c   ****             break;
 217              		.loc 1 44 0
 218 005e C4E0     		b	.L1
 219              	.LVL11:
 220              	.L6:
  45:.\handler.c   ****         case setXPos : 
  46:.\handler.c   ****             i2c_tx(PSoC_XY, cmd, txVal);
 221              		.loc 1 46 0
 222 0060 0820     		mov	r0, #8
 223              	.LVL12:
 224 0062 221C     		mov	r2, r4
 225 0064 FFF7FEFF 		bl	i2c_tx
 226              	.LVL13:
  47:.\handler.c   ****             break;
 227              		.loc 1 47 0
 228 0068 BFE0     		b	.L1
 229              	.LVL14:
 230              	.L7:
  48:.\handler.c   ****         case setYPos : 
  49:.\handler.c   ****             i2c_tx(PSoC_XY, cmd, txVal);
 231              		.loc 1 49 0
 232 006a 0820     		mov	r0, #8
 233              	.LVL15:
 234 006c 221C     		mov	r2, r4
 235 006e FFF7FEFF 		bl	i2c_tx
 236              	.LVL16:
ARM GAS  C:\Users\JEPPES~1\AppData\Local\Temp\ccg0iLgx.s 			page 6


  50:.\handler.c   ****             break;
 237              		.loc 1 50 0
 238 0072 BAE0     		b	.L1
 239              	.LVL17:
 240              	.L8:
  51:.\handler.c   ****         case getXPos : 
  52:.\handler.c   ****             spi_tx(xPos);
 241              		.loc 1 52 0
 242 0074 5F4B     		ldr	r3, .L41+4
 243 0076 1878     		ldrb	r0, [r3]
 244              	.LVL18:
 245 0078 FFF7FEFF 		bl	spi_tx
 246              	.LVL19:
  53:.\handler.c   ****             break;
 247              		.loc 1 53 0
 248 007c B5E0     		b	.L1
 249              	.LVL20:
 250              	.L9:
  54:.\handler.c   ****         case getYPos : 
  55:.\handler.c   ****             spi_tx(yPos);
 251              		.loc 1 55 0
 252 007e 5D4B     		ldr	r3, .L41+4
 253 0080 5878     		ldrb	r0, [r3, #1]
 254              	.LVL21:
 255 0082 FFF7FEFF 		bl	spi_tx
 256              	.LVL22:
  56:.\handler.c   ****             break;
 257              		.loc 1 56 0
 258 0086 B0E0     		b	.L1
 259              	.LVL23:
 260              	.L10:
  57:.\handler.c   ****         case getXMax : 
  58:.\handler.c   ****             spi_tx(xMax);
 261              		.loc 1 58 0
 262 0088 5A4B     		ldr	r3, .L41+4
 263 008a D878     		ldrb	r0, [r3, #3]
 264              	.LVL24:
 265 008c FFF7FEFF 		bl	spi_tx
 266              	.LVL25:
  59:.\handler.c   ****             break;
 267              		.loc 1 59 0
 268 0090 ABE0     		b	.L1
 269              	.LVL26:
 270              	.L11:
  60:.\handler.c   ****         case getYMax : 
  61:.\handler.c   ****             spi_tx(yMax);
 271              		.loc 1 61 0
 272 0092 584B     		ldr	r3, .L41+4
 273 0094 1879     		ldrb	r0, [r3, #4]
 274              	.LVL27:
 275 0096 FFF7FEFF 		bl	spi_tx
 276              	.LVL28:
  62:.\handler.c   ****             break;
 277              		.loc 1 62 0
 278 009a A6E0     		b	.L1
 279              	.LVL29:
 280              	.L12:
ARM GAS  C:\Users\JEPPES~1\AppData\Local\Temp\ccg0iLgx.s 			page 7


  63:.\handler.c   ****         case cmdStopX : 
  64:.\handler.c   ****             i2c_tx(PSoC_XY, cmd, txVal);
 281              		.loc 1 64 0
 282 009c 0820     		mov	r0, #8
 283              	.LVL30:
 284 009e 221C     		mov	r2, r4
 285 00a0 FFF7FEFF 		bl	i2c_tx
 286              	.LVL31:
  65:.\handler.c   ****             break;
 287              		.loc 1 65 0
 288 00a4 A1E0     		b	.L1
 289              	.LVL32:
 290              	.L13:
  66:.\handler.c   ****         case cmdStopY : 
  67:.\handler.c   ****             i2c_tx(PSoC_XY, cmd, txVal);
 291              		.loc 1 67 0
 292 00a6 0820     		mov	r0, #8
 293              	.LVL33:
 294 00a8 221C     		mov	r2, r4
 295 00aa FFF7FEFF 		bl	i2c_tx
 296              	.LVL34:
  68:.\handler.c   ****             break;
 297              		.loc 1 68 0
 298 00ae 9CE0     		b	.L1
 299              	.LVL35:
 300              	.L14:
  69:.\handler.c   ****         case cmdCalibrateX : 
  70:.\handler.c   ****             i2c_tx(PSoC_XY, cmd, txVal);
 301              		.loc 1 70 0
 302 00b0 0820     		mov	r0, #8
 303              	.LVL36:
 304 00b2 221C     		mov	r2, r4
 305 00b4 FFF7FEFF 		bl	i2c_tx
 306              	.LVL37:
  71:.\handler.c   ****             break;
 307              		.loc 1 71 0
 308 00b8 97E0     		b	.L1
 309              	.LVL38:
 310              	.L15:
  72:.\handler.c   ****         case cmdCalibrateY : 
  73:.\handler.c   ****             i2c_tx(PSoC_XY, cmd, txVal);
 311              		.loc 1 73 0
 312 00ba 0820     		mov	r0, #8
 313              	.LVL39:
 314 00bc 221C     		mov	r2, r4
 315 00be FFF7FEFF 		bl	i2c_tx
 316              	.LVL40:
  74:.\handler.c   ****             break;
 317              		.loc 1 74 0
 318 00c2 92E0     		b	.L1
 319              	.LVL41:
 320              	.L16:
  75:.\handler.c   ****         case setZPos : 
  76:.\handler.c   ****             i2c_tx(PSoC_Z, cmd, txVal);
 321              		.loc 1 76 0
 322 00c4 0920     		mov	r0, #9
 323              	.LVL42:
ARM GAS  C:\Users\JEPPES~1\AppData\Local\Temp\ccg0iLgx.s 			page 8


 324 00c6 221C     		mov	r2, r4
 325 00c8 FFF7FEFF 		bl	i2c_tx
 326              	.LVL43:
  77:.\handler.c   ****             break;
 327              		.loc 1 77 0
 328 00cc 8DE0     		b	.L1
 329              	.LVL44:
 330              	.L17:
  78:.\handler.c   ****         case getZPos : 
  79:.\handler.c   ****             spi_tx(zPos);
 331              		.loc 1 79 0
 332 00ce 494B     		ldr	r3, .L41+4
 333 00d0 9878     		ldrb	r0, [r3, #2]
 334              	.LVL45:
 335 00d2 FFF7FEFF 		bl	spi_tx
 336              	.LVL46:
  80:.\handler.c   ****             break;
 337              		.loc 1 80 0
 338 00d6 88E0     		b	.L1
 339              	.LVL47:
 340              	.L18:
  81:.\handler.c   ****         case getZMax : 
  82:.\handler.c   ****             spi_tx(zMax);
 341              		.loc 1 82 0
 342 00d8 464B     		ldr	r3, .L41+4
 343 00da 5879     		ldrb	r0, [r3, #5]
 344              	.LVL48:
 345 00dc FFF7FEFF 		bl	spi_tx
 346              	.LVL49:
  83:.\handler.c   ****             break;
 347              		.loc 1 83 0
 348 00e0 83E0     		b	.L1
 349              	.LVL50:
 350              	.L19:
  84:.\handler.c   ****         case cmdStopZ : 
  85:.\handler.c   ****             i2c_tx(PSoC_Z, cmd, txVal);
 351              		.loc 1 85 0
 352 00e2 0920     		mov	r0, #9
 353              	.LVL51:
 354 00e4 221C     		mov	r2, r4
 355 00e6 FFF7FEFF 		bl	i2c_tx
 356              	.LVL52:
  86:.\handler.c   ****             break;
 357              		.loc 1 86 0
 358 00ea 7EE0     		b	.L1
 359              	.LVL53:
 360              	.L20:
  87:.\handler.c   ****         case cmdCalibrateZ : 
  88:.\handler.c   ****             i2c_tx(PSoC_Z, cmd, txVal);
 361              		.loc 1 88 0
 362 00ec 0920     		mov	r0, #9
 363              	.LVL54:
 364 00ee 221C     		mov	r2, r4
 365 00f0 FFF7FEFF 		bl	i2c_tx
 366              	.LVL55:
  89:.\handler.c   ****             break;
 367              		.loc 1 89 0
ARM GAS  C:\Users\JEPPES~1\AppData\Local\Temp\ccg0iLgx.s 			page 9


 368 00f4 79E0     		b	.L1
 369              	.LVL56:
 370              	.L21:
  90:.\handler.c   ****         case setRed : 
  91:.\handler.c   ****             i2c_tx(PSoC_Sensor, cmd, txVal);
 371              		.loc 1 91 0
 372 00f6 1020     		mov	r0, #16
 373              	.LVL57:
 374 00f8 221C     		mov	r2, r4
 375 00fa FFF7FEFF 		bl	i2c_tx
 376              	.LVL58:
  92:.\handler.c   ****             break;
 377              		.loc 1 92 0
 378 00fe 74E0     		b	.L1
 379              	.LVL59:
 380              	.L22:
  93:.\handler.c   ****         case setGreen : 
  94:.\handler.c   ****             i2c_tx(PSoC_Sensor, cmd, txVal);
 381              		.loc 1 94 0
 382 0100 1020     		mov	r0, #16
 383              	.LVL60:
 384 0102 221C     		mov	r2, r4
 385 0104 FFF7FEFF 		bl	i2c_tx
 386              	.LVL61:
  95:.\handler.c   ****             break;
 387              		.loc 1 95 0
 388 0108 6FE0     		b	.L1
 389              	.LVL62:
 390              	.L23:
  96:.\handler.c   ****         case setBlue : 
  97:.\handler.c   ****             i2c_tx(PSoC_Sensor, cmd, txVal);
 391              		.loc 1 97 0
 392 010a 1020     		mov	r0, #16
 393              	.LVL63:
 394 010c 221C     		mov	r2, r4
 395 010e FFF7FEFF 		bl	i2c_tx
 396              	.LVL64:
  98:.\handler.c   ****             break;
 397              		.loc 1 98 0
 398 0112 6AE0     		b	.L1
 399              	.LVL65:
 400              	.L24:
  99:.\handler.c   ****         case setLumen : 
 100:.\handler.c   ****             i2c_tx(PSoC_Sensor, cmd, txVal);
 401              		.loc 1 100 0
 402 0114 1020     		mov	r0, #16
 403              	.LVL66:
 404 0116 221C     		mov	r2, r4
 405 0118 FFF7FEFF 		bl	i2c_tx
 406              	.LVL67:
 101:.\handler.c   ****             break;
 407              		.loc 1 101 0
 408 011c 65E0     		b	.L1
 409              	.LVL68:
 410              	.L25:
 102:.\handler.c   ****         case setPower : 
 103:.\handler.c   ****             i2c_tx(PSoC_Sensor, cmd, txVal);
ARM GAS  C:\Users\JEPPES~1\AppData\Local\Temp\ccg0iLgx.s 			page 10


 411              		.loc 1 103 0
 412 011e 1020     		mov	r0, #16
 413              	.LVL69:
 414 0120 221C     		mov	r2, r4
 415 0122 FFF7FEFF 		bl	i2c_tx
 416              	.LVL70:
 104:.\handler.c   ****             break;
 417              		.loc 1 104 0
 418 0126 60E0     		b	.L1
 419              	.LVL71:
 420              	.L26:
 105:.\handler.c   ****         case getRed : 
 106:.\handler.c   ****             i2c_rx(PSoC_Sensor, cmd, &rxVal);
 421              		.loc 1 106 0
 422 0128 1020     		mov	r0, #16
 423              	.LVL72:
 424 012a 6B46     		mov	r3, sp
 425 012c DA1D     		add	r2, r3, #7
 426 012e FFF7FEFF 		bl	i2c_rx
 427              	.LVL73:
 107:.\handler.c   ****             break;
 428              		.loc 1 107 0
 429 0132 5AE0     		b	.L1
 430              	.LVL74:
 431              	.L27:
 108:.\handler.c   ****         case getGreen : 
 109:.\handler.c   ****             i2c_rx(PSoC_Sensor, cmd, &rxVal);
 432              		.loc 1 109 0
 433 0134 1020     		mov	r0, #16
 434              	.LVL75:
 435 0136 6B46     		mov	r3, sp
 436 0138 DA1D     		add	r2, r3, #7
 437 013a FFF7FEFF 		bl	i2c_rx
 438              	.LVL76:
 110:.\handler.c   ****             break;
 439              		.loc 1 110 0
 440 013e 54E0     		b	.L1
 441              	.LVL77:
 442              	.L28:
 111:.\handler.c   ****         case getBlue : 
 112:.\handler.c   ****             i2c_rx(PSoC_Sensor, cmd, &rxVal);
 443              		.loc 1 112 0
 444 0140 1020     		mov	r0, #16
 445              	.LVL78:
 446 0142 6B46     		mov	r3, sp
 447 0144 DA1D     		add	r2, r3, #7
 448 0146 FFF7FEFF 		bl	i2c_rx
 449              	.LVL79:
 113:.\handler.c   ****             break;
 450              		.loc 1 113 0
 451 014a 4EE0     		b	.L1
 452              	.LVL80:
 453              	.L29:
 114:.\handler.c   ****         case getLumen : 
 115:.\handler.c   ****             i2c_rx(PSoC_Sensor, cmd, &rxVal);
 454              		.loc 1 115 0
 455 014c 1020     		mov	r0, #16
ARM GAS  C:\Users\JEPPES~1\AppData\Local\Temp\ccg0iLgx.s 			page 11


 456              	.LVL81:
 457 014e 6B46     		mov	r3, sp
 458 0150 DA1D     		add	r2, r3, #7
 459 0152 FFF7FEFF 		bl	i2c_rx
 460              	.LVL82:
 116:.\handler.c   ****             break;
 461              		.loc 1 116 0
 462 0156 48E0     		b	.L1
 463              	.LVL83:
 464              	.L30:
 117:.\handler.c   ****         case getPower : 
 118:.\handler.c   ****             i2c_rx(PSoC_Sensor, cmd, &rxVal);
 465              		.loc 1 118 0
 466 0158 1020     		mov	r0, #16
 467              	.LVL84:
 468 015a 6B46     		mov	r3, sp
 469 015c DA1D     		add	r2, r3, #7
 470 015e FFF7FEFF 		bl	i2c_rx
 471              	.LVL85:
 119:.\handler.c   ****             break;
 472              		.loc 1 119 0
 473 0162 42E0     		b	.L1
 474              	.LVL86:
 475              	.L31:
 120:.\handler.c   ****         case setDistance : 
 121:.\handler.c   ****             i2c_tx(PSoC_Sensor, cmd, txVal);
 476              		.loc 1 121 0
 477 0164 1020     		mov	r0, #16
 478              	.LVL87:
 479 0166 221C     		mov	r2, r4
 480 0168 FFF7FEFF 		bl	i2c_tx
 481              	.LVL88:
 122:.\handler.c   ****             break;
 482              		.loc 1 122 0
 483 016c 3DE0     		b	.L1
 484              	.LVL89:
 485              	.L32:
 123:.\handler.c   ****         case setMovement : 
 124:.\handler.c   ****             i2c_tx(PSoC_Sensor, cmd, txVal);
 486              		.loc 1 124 0
 487 016e 1020     		mov	r0, #16
 488              	.LVL90:
 489 0170 221C     		mov	r2, r4
 490 0172 FFF7FEFF 		bl	i2c_tx
 491              	.LVL91:
 125:.\handler.c   ****             break;
 492              		.loc 1 125 0
 493 0176 38E0     		b	.L1
 494              	.LVL92:
 495              	.L33:
 126:.\handler.c   ****         case getDistance : 
 127:.\handler.c   ****             i2c_rx(PSoC_Sensor, cmd, &rxVal);
 496              		.loc 1 127 0
 497 0178 1020     		mov	r0, #16
 498              	.LVL93:
 499 017a 6B46     		mov	r3, sp
 500 017c DA1D     		add	r2, r3, #7
ARM GAS  C:\Users\JEPPES~1\AppData\Local\Temp\ccg0iLgx.s 			page 12


 501 017e FFF7FEFF 		bl	i2c_rx
 502              	.LVL94:
 128:.\handler.c   ****             break;
 503              		.loc 1 128 0
 504 0182 32E0     		b	.L1
 505              	.LVL95:
 506              	.L34:
 129:.\handler.c   ****         case getMovement : 
 130:.\handler.c   ****             i2c_rx(PSoC_Sensor, cmd, &rxVal);
 507              		.loc 1 130 0
 508 0184 1020     		mov	r0, #16
 509              	.LVL96:
 510 0186 6B46     		mov	r3, sp
 511 0188 DA1D     		add	r2, r3, #7
 512 018a FFF7FEFF 		bl	i2c_rx
 513              	.LVL97:
 131:.\handler.c   ****             break;
 514              		.loc 1 131 0
 515 018e 2CE0     		b	.L1
 516              	.LVL98:
 517              	.L35:
 132:.\handler.c   ****         case cmdDistanceAlert : 
 133:.\handler.c   ****             handler(cmdStopX, txVal);
 518              		.loc 1 133 0
 519 0190 1620     		mov	r0, #22
 520              	.LVL99:
 521 0192 211C     		mov	r1, r4
 522 0194 FFF7FEFF 		bl	handler
 523              	.LVL100:
 134:.\handler.c   ****             handler(cmdStopY, txVal);
 524              		.loc 1 134 0
 525 0198 1720     		mov	r0, #23
 526 019a 211C     		mov	r1, r4
 527 019c FFF7FEFF 		bl	handler
 528              	.LVL101:
 135:.\handler.c   ****             handler(cmdStopZ, txVal);
 529              		.loc 1 135 0
 530 01a0 2320     		mov	r0, #35
 531 01a2 211C     		mov	r1, r4
 532 01a4 FFF7FEFF 		bl	handler
 533              	.LVL102:
 136:.\handler.c   ****             break;
 534              		.loc 1 136 0
 535 01a8 1FE0     		b	.L1
 536              	.LVL103:
 537              	.L36:
 137:.\handler.c   ****         case cmdMovementAlert : 
 138:.\handler.c   ****             handler(setPower, txVal);
 538              		.loc 1 138 0
 539 01aa 3420     		mov	r0, #52
 540              	.LVL104:
 541 01ac 211C     		mov	r1, r4
 542 01ae FFF7FEFF 		bl	handler
 543              	.LVL105:
 139:.\handler.c   ****             break;
 544              		.loc 1 139 0
 545 01b2 1AE0     		b	.L1
ARM GAS  C:\Users\JEPPES~1\AppData\Local\Temp\ccg0iLgx.s 			page 13


 546              	.LVL106:
 547              	.L37:
 140:.\handler.c   ****         case setMasterLedOff :
 141:.\handler.c   ****             setLed(0,0,0,0);
 548              		.loc 1 141 0
 549 01b4 0020     		mov	r0, #0
 550              	.LVL107:
 551 01b6 0021     		mov	r1, #0
 552 01b8 0022     		mov	r2, #0
 553 01ba 0023     		mov	r3, #0
 554 01bc FFF7FEFF 		bl	setLed
 555              	.LVL108:
 142:.\handler.c   ****             break;
 556              		.loc 1 142 0
 557 01c0 13E0     		b	.L1
 558              	.LVL109:
 559              	.L38:
 143:.\handler.c   ****         case setMasterLedRed :
 144:.\handler.c   ****             setLed(1,0,0,txVal);
 560              		.loc 1 144 0
 561 01c2 0120     		mov	r0, #1
 562              	.LVL110:
 563 01c4 0021     		mov	r1, #0
 564 01c6 0022     		mov	r2, #0
 565 01c8 231C     		mov	r3, r4
 566 01ca FFF7FEFF 		bl	setLed
 567              	.LVL111:
 145:.\handler.c   ****             break;
 568              		.loc 1 145 0
 569 01ce 0CE0     		b	.L1
 570              	.LVL112:
 571              	.L39:
 146:.\handler.c   ****         case setMasterLedGreen :
 147:.\handler.c   ****             setLed(0,1,0,txVal);
 572              		.loc 1 147 0
 573 01d0 0020     		mov	r0, #0
 574              	.LVL113:
 575 01d2 0121     		mov	r1, #1
 576 01d4 0022     		mov	r2, #0
 577 01d6 231C     		mov	r3, r4
 578 01d8 FFF7FEFF 		bl	setLed
 579              	.LVL114:
 148:.\handler.c   ****             break;
 580              		.loc 1 148 0
 581 01dc 05E0     		b	.L1
 582              	.LVL115:
 583              	.L40:
 149:.\handler.c   ****         case setMasterLedBlue :
 150:.\handler.c   ****             setLed(0,0,1,txVal);
 584              		.loc 1 150 0
 585 01de 0020     		mov	r0, #0
 586              	.LVL116:
 587 01e0 0021     		mov	r1, #0
 588 01e2 0122     		mov	r2, #1
 589 01e4 231C     		mov	r3, r4
 590 01e6 FFF7FEFF 		bl	setLed
 591              	.LVL117:
ARM GAS  C:\Users\JEPPES~1\AppData\Local\Temp\ccg0iLgx.s 			page 14


 592              	.L1:
 151:.\handler.c   ****             break;            
 152:.\handler.c   ****     }
 153:.\handler.c   **** }
 593              		.loc 1 153 0
 594 01ea 03B0     		add	sp, sp, #12
 595              		@ sp needed
 596 01ec 30BD     		pop	{r4, r5, pc}
 597              	.L42:
 598 01ee C046     		.align	2
 599              	.L41:
 600 01f0 00000000 		.word	.L4
 601 01f4 00000000 		.word	.LANCHOR0
 602              		.cfi_endproc
 603              	.LFE34:
 604              		.size	handler, .-handler
 605              		.global	zMax
 606              		.global	zPos
 607              		.global	yMax
 608              		.global	yPos
 609              		.global	xMax
 610              		.global	xPos
 611              		.bss
 612              		.set	.LANCHOR0,. + 0
 613              		.type	xPos, %object
 614              		.size	xPos, 1
 615              	xPos:
 616 0000 00       		.space	1
 617              		.type	yPos, %object
 618              		.size	yPos, 1
 619              	yPos:
 620 0001 00       		.space	1
 621              		.type	zPos, %object
 622              		.size	zPos, 1
 623              	zPos:
 624 0002 00       		.space	1
 625              		.type	xMax, %object
 626              		.size	xMax, 1
 627              	xMax:
 628 0003 00       		.space	1
 629              		.type	yMax, %object
 630              		.size	yMax, 1
 631              	yMax:
 632 0004 00       		.space	1
 633              		.type	zMax, %object
 634              		.size	zMax, 1
 635              	zMax:
 636 0005 00       		.space	1
 637              		.text
 638              	.Letext0:
 639              		.file 2 ".\\i2c.h"
 640              		.file 3 ".\\spi.h"
 641              		.file 4 "Generated_Source\\PSoC4/cytypes.h"
 642              		.file 5 ".\\led.h"