ARM GAS  C:\Users\JEPPES~1\AppData\Local\Temp\ccWrAQPY.s 			page 1


   1              		.cpu cortex-m0
   2              		.fpu softvfp
   3              		.eabi_attribute 20, 1
   4              		.eabi_attribute 21, 1
   5              		.eabi_attribute 23, 3
   6              		.eabi_attribute 24, 1
   7              		.eabi_attribute 25, 1
   8              		.eabi_attribute 26, 1
   9              		.eabi_attribute 30, 1
  10              		.eabi_attribute 34, 0
  11              		.eabi_attribute 18, 4
  12              		.code	16
  13              		.file	"i2c.c"
  14              		.text
  15              	.Ltext0:
  16              		.cfi_sections	.debug_frame
  17              		.section	.text.i2c_init,"ax",%progbits
  18              		.align	2
  19              		.global	i2c_init
  20              		.code	16
  21              		.thumb_func
  22              		.type	i2c_init, %function
  23              	i2c_init:
  24              	.LFB34:
  25              		.file 1 ".\\i2c.c"
   1:.\i2c.c       **** /* ========================================
   2:.\i2c.c       ****  *
   3:.\i2c.c       ****  * File: i2c.c
   4:.\i2c.c       ****  * Description: 
   5:.\i2c.c       ****  *
   6:.\i2c.c       ****  * University: AARHUS UNIVERSITY SCHOOL OF ENGINEERING
   7:.\i2c.c       ****  * Project: F16 - E3PRJ3-02 Semesterprojekt 3 [240501U178]
   8:.\i2c.c       ****  * Group: 1
   9:.\i2c.c       ****  * 
  10:.\i2c.c       ****  * Author: Jeppe Stærk
  11:.\i2c.c       ****  * Matriculation number: 201271201
  12:.\i2c.c       ****  *
  13:.\i2c.c       ****  * Version: 1.0
  14:.\i2c.c       ****  * Date: 13-05-2016
  15:.\i2c.c       ****  *
  16:.\i2c.c       ****  * ========================================
  17:.\i2c.c       **** */
  18:.\i2c.c       **** 
  19:.\i2c.c       **** #include "i2c.h"
  20:.\i2c.c       **** 
  21:.\i2c.c       **** uint8 i2c_slaveBuffer[I2C_BUFFER_SIZE];
  22:.\i2c.c       **** 
  23:.\i2c.c       **** void i2c_init()
  24:.\i2c.c       **** {
  26              		.loc 1 24 0
  27              		.cfi_startproc
  28 0000 08B5     		push	{r3, lr}
  29              		.cfi_def_cfa_offset 8
  30              		.cfi_offset 3, -8
  31              		.cfi_offset 14, -4
  25:.\i2c.c       ****     I2CM_scl_SetDriveMode(I2CM_scl_DM_RES_UP);
  32              		.loc 1 25 0
ARM GAS  C:\Users\JEPPES~1\AppData\Local\Temp\ccWrAQPY.s 			page 2


  33 0002 0220     		mov	r0, #2
  34 0004 FFF7FEFF 		bl	I2CM_scl_SetDriveMode
  35              	.LVL0:
  26:.\i2c.c       ****     I2CM_sda_SetDriveMode(I2CM_sda_DM_RES_UP);
  36              		.loc 1 26 0
  37 0008 0220     		mov	r0, #2
  38 000a FFF7FEFF 		bl	I2CM_sda_SetDriveMode
  39              	.LVL1:
  27:.\i2c.c       ****     
  28:.\i2c.c       ****     I2CM_I2CSlaveInitWriteBuf(i2c_slaveBuffer, I2C_BUFFER_SIZE);
  40              		.loc 1 28 0
  41 000e 0548     		ldr	r0, .L2
  42 0010 0421     		mov	r1, #4
  43 0012 FFF7FEFF 		bl	I2CM_I2CSlaveInitWriteBuf
  44              	.LVL2:
  29:.\i2c.c       ****     I2CM_I2CSlaveClearWriteBuf();
  45              		.loc 1 29 0
  46 0016 FFF7FEFF 		bl	I2CM_I2CSlaveClearWriteBuf
  47              	.LVL3:
  30:.\i2c.c       ****     I2CM_I2CSlaveClearWriteStatus();
  48              		.loc 1 30 0
  49 001a FFF7FEFF 		bl	I2CM_I2CSlaveClearWriteStatus
  50              	.LVL4:
  31:.\i2c.c       ****     
  32:.\i2c.c       ****     I2CM_Start();
  51              		.loc 1 32 0
  52 001e FFF7FEFF 		bl	I2CM_Start
  53              	.LVL5:
  33:.\i2c.c       **** }
  54              		.loc 1 33 0
  55              		@ sp needed
  56 0022 08BD     		pop	{r3, pc}
  57              	.L3:
  58              		.align	2
  59              	.L2:
  60 0024 00000000 		.word	i2c_slaveBuffer
  61              		.cfi_endproc
  62              	.LFE34:
  63              		.size	i2c_init, .-i2c_init
  64              		.section	.text.i2c_tx,"ax",%progbits
  65              		.align	2
  66              		.global	i2c_tx
  67              		.code	16
  68              		.thumb_func
  69              		.type	i2c_tx, %function
  70              	i2c_tx:
  71              	.LFB35:
  34:.\i2c.c       **** 
  35:.\i2c.c       **** void i2c_tx(uint8 i2cTxAddr, uint8 i2cTxCmd, uint8 i2cTxVal)
  36:.\i2c.c       **** {
  72              		.loc 1 36 0
  73              		.cfi_startproc
  74              	.LVL6:
  75 0000 10B5     		push	{r4, lr}
  76              		.cfi_def_cfa_offset 8
  77              		.cfi_offset 4, -8
  78              		.cfi_offset 14, -4
ARM GAS  C:\Users\JEPPES~1\AppData\Local\Temp\ccWrAQPY.s 			page 3


  79 0002 82B0     		sub	sp, sp, #8
  80              		.cfi_def_cfa_offset 16
  37:.\i2c.c       ****     uint8 i2cTxData[I2C_PACKET_SIZE];
  38:.\i2c.c       **** 
  39:.\i2c.c       ****     i2cTxData[I2C_PACKET_SOP_POS] = I2C_PACKET_SOP;
  81              		.loc 1 39 0
  82 0004 01AB     		add	r3, sp, #4
  83 0006 0124     		mov	r4, #1
  84 0008 1C70     		strb	r4, [r3]
  40:.\i2c.c       ****     i2cTxData[I2C_PACKET_CMD_POS] = i2cTxCmd;
  85              		.loc 1 40 0
  86 000a 5970     		strb	r1, [r3, #1]
  41:.\i2c.c       ****     i2cTxData[I2C_PACKET_VAL_POS] = i2cTxVal;
  87              		.loc 1 41 0
  88 000c 9A70     		strb	r2, [r3, #2]
  42:.\i2c.c       ****     i2cTxData[I2C_PACKET_EOP_POS] = I2C_PACKET_EOP;
  89              		.loc 1 42 0
  90 000e 1722     		mov	r2, #23
  91              	.LVL7:
  92 0010 DA70     		strb	r2, [r3, #3]
  43:.\i2c.c       ****     
  44:.\i2c.c       **** //    queueLed(0,0,1, 250);
  45:.\i2c.c       ****     (void) I2CM_I2CMasterWriteBuf(i2cTxAddr, i2cTxData, I2C_PACKET_SIZE, I2CM_I2C_MODE_COMPLETE_XFE
  93              		.loc 1 45 0
  94 0012 191C     		mov	r1, r3
  95              	.LVL8:
  96 0014 133A     		sub	r2, r2, #19
  97 0016 0023     		mov	r3, #0
  98              	.LVL9:
  99 0018 FFF7FEFF 		bl	I2CM_I2CMasterWriteBuf
 100              	.LVL10:
 101              	.L5:
  46:.\i2c.c       ****     while (0u == (I2CM_I2CMasterStatus() & I2CM_I2C_MSTAT_WR_CMPLT))
 102              		.loc 1 46 0 discriminator 1
 103 001c FFF7FEFF 		bl	I2CM_I2CMasterStatus
 104              	.LVL11:
 105 0020 8307     		lsl	r3, r0, #30
 106 0022 FBD5     		bpl	.L5
  47:.\i2c.c       ****     {
  48:.\i2c.c       ****     }
  49:.\i2c.c       ****     if (0u == (I2CM_I2C_MSTAT_ERR_XFER & I2CM_I2CMasterStatus()))
 107              		.loc 1 49 0
 108 0024 FFF7FEFF 		bl	I2CM_I2CMasterStatus
 109              	.LVL12:
 110 0028 8305     		lsl	r3, r0, #22
 111 002a 0AD4     		bmi	.L6
  50:.\i2c.c       ****     {
  51:.\i2c.c       ****         if (I2CM_I2CMasterGetWriteBufSize() == I2C_BUFFER_SIZE)
 112              		.loc 1 51 0
 113 002c FFF7FEFF 		bl	I2CM_I2CMasterGetWriteBufSize
 114              	.LVL13:
 115 0030 0428     		cmp	r0, #4
 116 0032 0CD1     		bne	.L7
  52:.\i2c.c       ****         {
  53:.\i2c.c       ****             setLed(0,1,0,255);
 117              		.loc 1 53 0
 118 0034 0020     		mov	r0, #0
ARM GAS  C:\Users\JEPPES~1\AppData\Local\Temp\ccWrAQPY.s 			page 4


 119 0036 0121     		mov	r1, #1
 120 0038 0022     		mov	r2, #0
 121 003a FF23     		mov	r3, #255
 122 003c FFF7FEFF 		bl	setLed
 123              	.LVL14:
 124 0040 05E0     		b	.L7
 125              	.L6:
  54:.\i2c.c       ****         }
  55:.\i2c.c       ****     }
  56:.\i2c.c       ****     else
  57:.\i2c.c       ****     {
  58:.\i2c.c       ****         setLed(1,0,0,255);
 126              		.loc 1 58 0
 127 0042 0120     		mov	r0, #1
 128 0044 0021     		mov	r1, #0
 129 0046 0022     		mov	r2, #0
 130 0048 FF23     		mov	r3, #255
 131 004a FFF7FEFF 		bl	setLed
 132              	.LVL15:
 133              	.L7:
  59:.\i2c.c       ****     }
  60:.\i2c.c       ****     (void) I2CM_I2CMasterClearStatus();
 134              		.loc 1 60 0
 135 004e FFF7FEFF 		bl	I2CM_I2CMasterClearStatus
 136              	.LVL16:
  61:.\i2c.c       ****     setLed(0,0,0,255);
 137              		.loc 1 61 0
 138 0052 0020     		mov	r0, #0
 139 0054 0021     		mov	r1, #0
 140 0056 0022     		mov	r2, #0
 141 0058 FF23     		mov	r3, #255
 142 005a FFF7FEFF 		bl	setLed
 143              	.LVL17:
  62:.\i2c.c       **** }
 144              		.loc 1 62 0
 145 005e 02B0     		add	sp, sp, #8
 146              		@ sp needed
 147 0060 10BD     		pop	{r4, pc}
 148              		.cfi_endproc
 149              	.LFE35:
 150              		.size	i2c_tx, .-i2c_tx
 151 0062 C046     		.section	.text.i2c_rx,"ax",%progbits
 152              		.align	2
 153              		.global	i2c_rx
 154              		.code	16
 155              		.thumb_func
 156              		.type	i2c_rx, %function
 157              	i2c_rx:
 158              	.LFB36:
  63:.\i2c.c       **** void i2c_rx(uint8 i2cRxAddr, uint8 i2cRxCmd, uint8* i2cRxVal)
  64:.\i2c.c       **** {
 159              		.loc 1 64 0
 160              		.cfi_startproc
 161              	.LVL18:
 162 0000 30B5     		push	{r4, r5, lr}
 163              		.cfi_def_cfa_offset 12
 164              		.cfi_offset 4, -12
ARM GAS  C:\Users\JEPPES~1\AppData\Local\Temp\ccWrAQPY.s 			page 5


 165              		.cfi_offset 5, -8
 166              		.cfi_offset 14, -4
 167 0002 83B0     		sub	sp, sp, #12
 168              		.cfi_def_cfa_offset 24
 169 0004 041C     		mov	r4, r0
 170 0006 151C     		mov	r5, r2
  65:.\i2c.c       ****     uint8 i2cRxData[I2C_PACKET_SIZE];
  66:.\i2c.c       **** 
  67:.\i2c.c       ****     i2c_tx(i2cRxAddr, i2cRxCmd, 0xaau);
 171              		.loc 1 67 0
 172 0008 AA22     		mov	r2, #170
 173              	.LVL19:
 174 000a FFF7FEFF 		bl	i2c_tx
 175              	.LVL20:
  68:.\i2c.c       ****     
  69:.\i2c.c       ****     (void) I2CM_I2CMasterReadBuf(i2cRxAddr, i2cRxData, I2C_PACKET_SIZE, I2CM_I2C_MODE_COMPLETE_XFER
 176              		.loc 1 69 0
 177 000e 201C     		mov	r0, r4
 178 0010 01A9     		add	r1, sp, #4
 179 0012 0422     		mov	r2, #4
 180 0014 0023     		mov	r3, #0
 181 0016 FFF7FEFF 		bl	I2CM_I2CMasterReadBuf
 182              	.LVL21:
 183              	.L9:
  70:.\i2c.c       ****      while (0u == (I2CM_I2CMasterStatus() & I2CM_I2C_MSTAT_RD_CMPLT))
 184              		.loc 1 70 0 discriminator 1
 185 001a FFF7FEFF 		bl	I2CM_I2CMasterStatus
 186              	.LVL22:
 187 001e C307     		lsl	r3, r0, #31
 188 0020 FBD5     		bpl	.L9
  71:.\i2c.c       ****     {
  72:.\i2c.c       ****     }
  73:.\i2c.c       ****     if (0u == (I2CM_I2C_MSTAT_ERR_XFER & I2CM_I2CMasterStatus()))
 189              		.loc 1 73 0
 190 0022 FFF7FEFF 		bl	I2CM_I2CMasterStatus
 191              	.LVL23:
 192 0026 8305     		lsl	r3, r0, #22
 193 0028 15D4     		bmi	.L10
  74:.\i2c.c       ****     {
  75:.\i2c.c       ****         if ((I2CM_I2CMasterGetReadBufSize() == I2C_BUFFER_SIZE))
 194              		.loc 1 75 0
 195 002a FFF7FEFF 		bl	I2CM_I2CMasterGetReadBufSize
 196              	.LVL24:
 197 002e 0428     		cmp	r0, #4
 198 0030 17D1     		bne	.L11
  76:.\i2c.c       ****         {
  77:.\i2c.c       ****             if((i2cRxData[I2C_PACKET_SOP_POS] == I2C_PACKET_SOP) && (i2cRxData[I2C_PACKET_EOP_POS] 
 199              		.loc 1 77 0
 200 0032 01AB     		add	r3, sp, #4
 201 0034 1B78     		ldrb	r3, [r3]
 202 0036 012B     		cmp	r3, #1
 203 0038 13D1     		bne	.L11
 204              		.loc 1 77 0 is_stmt 0 discriminator 1
 205 003a 01AB     		add	r3, sp, #4
 206 003c DB78     		ldrb	r3, [r3, #3]
 207 003e 172B     		cmp	r3, #23
 208 0040 0FD1     		bne	.L11
ARM GAS  C:\Users\JEPPES~1\AppData\Local\Temp\ccWrAQPY.s 			page 6


 209              	.LVL25:
  78:.\i2c.c       ****             {
  79:.\i2c.c       ****                 i2cRxCmd = i2cRxData[1];
  80:.\i2c.c       ****                 *i2cRxVal = i2cRxData[2];
 210              		.loc 1 80 0 is_stmt 1
 211 0042 01AB     		add	r3, sp, #4
 212 0044 9B78     		ldrb	r3, [r3, #2]
 213 0046 2B70     		strb	r3, [r5]
 214              	.LVL26:
  81:.\i2c.c       ****                 setLed(0,1,0,255);
 215              		.loc 1 81 0
 216 0048 0020     		mov	r0, #0
 217 004a 0121     		mov	r1, #1
 218 004c 0022     		mov	r2, #0
 219 004e FF23     		mov	r3, #255
 220 0050 FFF7FEFF 		bl	setLed
 221              	.LVL27:
 222 0054 05E0     		b	.L11
 223              	.LVL28:
 224              	.L10:
  82:.\i2c.c       ****             }
  83:.\i2c.c       ****         }
  84:.\i2c.c       ****     }
  85:.\i2c.c       ****     else
  86:.\i2c.c       ****     {
  87:.\i2c.c       ****         setLed(1,0,0,255);
 225              		.loc 1 87 0
 226 0056 0120     		mov	r0, #1
 227 0058 0021     		mov	r1, #0
 228 005a 0022     		mov	r2, #0
 229 005c FF23     		mov	r3, #255
 230 005e FFF7FEFF 		bl	setLed
 231              	.LVL29:
 232              	.L11:
  88:.\i2c.c       ****     }
  89:.\i2c.c       ****     (void) I2CM_I2CMasterClearStatus(); 
 233              		.loc 1 89 0
 234 0062 FFF7FEFF 		bl	I2CM_I2CMasterClearStatus
 235              	.LVL30:
  90:.\i2c.c       ****     setLed(0,0,0,255);
 236              		.loc 1 90 0
 237 0066 0020     		mov	r0, #0
 238 0068 0021     		mov	r1, #0
 239 006a 0022     		mov	r2, #0
 240 006c FF23     		mov	r3, #255
 241 006e FFF7FEFF 		bl	setLed
 242              	.LVL31:
  91:.\i2c.c       **** }
 243              		.loc 1 91 0
 244 0072 03B0     		add	sp, sp, #12
 245              		@ sp needed
 246              	.LVL32:
 247 0074 30BD     		pop	{r4, r5, pc}
 248              		.cfi_endproc
 249              	.LFE36:
 250              		.size	i2c_rx, .-i2c_rx
 251 0076 C046     		.section	.text.i2c_slave,"ax",%progbits
ARM GAS  C:\Users\JEPPES~1\AppData\Local\Temp\ccWrAQPY.s 			page 7


 252              		.align	2
 253              		.global	i2c_slave
 254              		.code	16
 255              		.thumb_func
 256              		.type	i2c_slave, %function
 257              	i2c_slave:
 258              	.LFB37:
  92:.\i2c.c       **** 
  93:.\i2c.c       **** void i2c_slave()
  94:.\i2c.c       **** {
 259              		.loc 1 94 0
 260              		.cfi_startproc
 261 0000 00B5     		push	{lr}
 262              		.cfi_def_cfa_offset 4
 263              		.cfi_offset 14, -4
 264 0002 83B0     		sub	sp, sp, #12
 265              		.cfi_def_cfa_offset 16
  95:.\i2c.c       ****     if (0u != (I2CM_I2CSlaveStatus() & I2CM_I2C_SSTAT_WR_CMPLT))
 266              		.loc 1 95 0
 267 0004 FFF7FEFF 		bl	I2CM_I2CSlaveStatus
 268              	.LVL33:
 269 0008 C306     		lsl	r3, r0, #27
 270 000a 14D5     		bpl	.L12
  96:.\i2c.c       ****     {
  97:.\i2c.c       ****         if (I2C_PACKET_SIZE == I2CM_I2CSlaveGetWriteBufSize())
 271              		.loc 1 97 0
 272 000c FFF7FEFF 		bl	I2CM_I2CSlaveGetWriteBufSize
 273              	.LVL34:
 274 0010 0428     		cmp	r0, #4
 275 0012 0CD1     		bne	.L14
  98:.\i2c.c       ****         {
  99:.\i2c.c       ****             if ((i2c_slaveBuffer[I2C_PACKET_SOP_POS] == I2C_PACKET_SOP) && (i2c_slaveBuffer[I2C_PAC
 276              		.loc 1 99 0
 277 0014 094B     		ldr	r3, .L15
 278 0016 1B78     		ldrb	r3, [r3]
 279 0018 012B     		cmp	r3, #1
 280 001a 08D1     		bne	.L14
 281              		.loc 1 99 0 is_stmt 0 discriminator 1
 282 001c 074B     		ldr	r3, .L15
 283 001e DB78     		ldrb	r3, [r3, #3]
 284 0020 172B     		cmp	r3, #23
 285 0022 04D1     		bne	.L14
 286              	.LBB2:
 100:.\i2c.c       ****             {
 101:.\i2c.c       ****                 struct Data i2cRxData;
 102:.\i2c.c       ****                 i2cRxData.val_ = i2c_slaveBuffer[2];
 287              		.loc 1 102 0 is_stmt 1
 288 0024 054B     		ldr	r3, .L15
 289 0026 9978     		ldrb	r1, [r3, #2]
 103:.\i2c.c       ****                 i2cRxData.cmd_ = i2c_slaveBuffer[1];
 290              		.loc 1 103 0
 291 0028 5878     		ldrb	r0, [r3, #1]
 104:.\i2c.c       ****     
 105:.\i2c.c       ****                 pushQueue(i2cRxData);
 292              		.loc 1 105 0
 293 002a FFF7FEFF 		bl	pushQueue
 294              	.LVL35:
ARM GAS  C:\Users\JEPPES~1\AppData\Local\Temp\ccWrAQPY.s 			page 8


 295              	.L14:
 296              	.LBE2:
 106:.\i2c.c       ****             }
 107:.\i2c.c       ****         }
 108:.\i2c.c       **** 
 109:.\i2c.c       ****         I2CM_I2CSlaveClearWriteBuf();
 297              		.loc 1 109 0
 298 002e FFF7FEFF 		bl	I2CM_I2CSlaveClearWriteBuf
 299              	.LVL36:
 110:.\i2c.c       ****         (void) I2CM_I2CSlaveClearWriteStatus();
 300              		.loc 1 110 0
 301 0032 FFF7FEFF 		bl	I2CM_I2CSlaveClearWriteStatus
 302              	.LVL37:
 303              	.L12:
 111:.\i2c.c       ****     }
 112:.\i2c.c       **** }
 304              		.loc 1 112 0
 305 0036 03B0     		add	sp, sp, #12
 306              		@ sp needed
 307 0038 00BD     		pop	{pc}
 308              	.L16:
 309 003a C046     		.align	2
 310              	.L15:
 311 003c 00000000 		.word	i2c_slaveBuffer
 312              		.cfi_endproc
 313              	.LFE37:
 314              		.size	i2c_slave, .-i2c_slave
 315              		.comm	i2c_slaveBuffer,4,4
 316              		.comm	rxValZ,1,1
 317              		.comm	rxValY,1,1
 318              		.comm	rxValX,1,1
 319              		.comm	backOfQueuePtr,4,4
 320              		.comm	frontOfQueuePtr,4,4
 321              		.text
 322              	.Letext0:
 323              		.file 2 "Generated_Source\\PSoC4/cytypes.h"
 324              		.file 3 ".\\queue.h"
 325              		.file 4 ".\\handler.h"
 326              		.file 5 "Generated_Source\\PSoC4/I2CM_scl.h"
 327              		.file 6 "Generated_Source\\PSoC4/I2CM_sda.h"
 328              		.file 7 "Generated_Source\\PSoC4/I2CM_I2C.h"
 329              		.file 8 "Generated_Source\\PSoC4/I2CM.h"
 330              		.file 9 ".\\led.h"