ARM GAS  C:\Users\JEPPES~1\AppData\Local\Temp\cc97M3eW.s 			page 1


   1              		.cpu cortex-m0
   2              		.fpu softvfp
   3              		.eabi_attribute 20, 1
   4              		.eabi_attribute 21, 1
   5              		.eabi_attribute 23, 3
   6              		.eabi_attribute 24, 1
   7              		.eabi_attribute 25, 1
   8              		.eabi_attribute 26, 1
   9              		.eabi_attribute 30, 1
  10              		.eabi_attribute 34, 0
  11              		.eabi_attribute 18, 4
  12              		.code	16
  13              		.file	"I2C_LCD_1.c"
  14              		.text
  15              	.Ltext0:
  16              		.cfi_sections	.debug_frame
  17              		.section	.text.I2C_LCD_1_WrDataToBuff,"ax",%progbits
  18              		.align	2
  19              		.code	16
  20              		.thumb_func
  21              		.type	I2C_LCD_1_WrDataToBuff, %function
  22              	I2C_LCD_1_WrDataToBuff:
  23              	.LFB6:
  24              		.file 1 ".\\Generated_Source\\PSoC4\\I2C_LCD_1.c"
   1:.\Generated_Source\PSoC4/I2C_LCD_1.c **** /*******************************************************************************
   2:.\Generated_Source\PSoC4/I2C_LCD_1.c **** * File Name: I2C_LCD_1.c
   3:.\Generated_Source\PSoC4/I2C_LCD_1.c **** * Version 1.20
   4:.\Generated_Source\PSoC4/I2C_LCD_1.c **** *
   5:.\Generated_Source\PSoC4/I2C_LCD_1.c **** * Description:
   6:.\Generated_Source\PSoC4/I2C_LCD_1.c **** *  This file provides source code for the I2C LCD component's API.
   7:.\Generated_Source\PSoC4/I2C_LCD_1.c **** *
   8:.\Generated_Source\PSoC4/I2C_LCD_1.c **** * Note:
   9:.\Generated_Source\PSoC4/I2C_LCD_1.c **** *
  10:.\Generated_Source\PSoC4/I2C_LCD_1.c **** ********************************************************************************
  11:.\Generated_Source\PSoC4/I2C_LCD_1.c **** * Copyright 2013-2014, Cypress Semiconductor Corporation.  All rights reserved.
  12:.\Generated_Source\PSoC4/I2C_LCD_1.c **** * You may use this file only in accordance with the license, terms, conditions,
  13:.\Generated_Source\PSoC4/I2C_LCD_1.c **** * disclaimers, and limitations in the end user license agreement accompanying
  14:.\Generated_Source\PSoC4/I2C_LCD_1.c **** * the software package with which this file was provided.
  15:.\Generated_Source\PSoC4/I2C_LCD_1.c **** *******************************************************************************/
  16:.\Generated_Source\PSoC4/I2C_LCD_1.c **** 
  17:.\Generated_Source\PSoC4/I2C_LCD_1.c **** #include "I2C_LCD_1.h"
  18:.\Generated_Source\PSoC4/I2C_LCD_1.c **** 
  19:.\Generated_Source\PSoC4/I2C_LCD_1.c **** 
  20:.\Generated_Source\PSoC4/I2C_LCD_1.c **** /* Internal function ptototypes */
  21:.\Generated_Source\PSoC4/I2C_LCD_1.c **** static void I2C_LCD_1_WrDataToBuff(uint8 dByte) CYREENTRANT;
  22:.\Generated_Source\PSoC4/I2C_LCD_1.c **** static void I2C_LCD_1_WrCntrlPatt(uint8 cmdIndex) CYREENTRANT;
  23:.\Generated_Source\PSoC4/I2C_LCD_1.c **** static void I2C_LCD_1_SendSequence(void) CYREENTRANT;
  24:.\Generated_Source\PSoC4/I2C_LCD_1.c **** 
  25:.\Generated_Source\PSoC4/I2C_LCD_1.c **** #if (I2C_LCD_1_COMMAND_FORMAT == I2C_LCD_1_NXP_PCF2119X)
  26:.\Generated_Source\PSoC4/I2C_LCD_1.c ****     static void I2C_LCD_1_SendCmd(uint8 cmd) CYREENTRANT;
  27:.\Generated_Source\PSoC4/I2C_LCD_1.c **** #endif /* I2C_LCD_1_COMMAND_FORMAT == I2C_LCD_1_NXP_PCF2119X */
  28:.\Generated_Source\PSoC4/I2C_LCD_1.c **** 
  29:.\Generated_Source\PSoC4/I2C_LCD_1.c **** uint8 I2C_LCD_1_initVar = 0u;
  30:.\Generated_Source\PSoC4/I2C_LCD_1.c **** 
  31:.\Generated_Source\PSoC4/I2C_LCD_1.c **** /* Buffer that holds data to be send to LCD slave */
  32:.\Generated_Source\PSoC4/I2C_LCD_1.c **** static uint8 I2C_LCD_1_buff[I2C_LCD_1_BUFF_SIZE];
  33:.\Generated_Source\PSoC4/I2C_LCD_1.c **** 
ARM GAS  C:\Users\JEPPES~1\AppData\Local\Temp\cc97M3eW.s 			page 2


  34:.\Generated_Source\PSoC4/I2C_LCD_1.c **** /* Need to have I2C_LCD_1_buffIndex of different size to avoid MISRA
  35:.\Generated_Source\PSoC4/I2C_LCD_1.c **** * warning when SCB based I2C Master is used. 
  36:.\Generated_Source\PSoC4/I2C_LCD_1.c **** */
  37:.\Generated_Source\PSoC4/I2C_LCD_1.c **** #if(I2C_LCD_1_IS_SCB_MASTER_USED)
  38:.\Generated_Source\PSoC4/I2C_LCD_1.c ****     /* Variable used for buffer indexing */
  39:.\Generated_Source\PSoC4/I2C_LCD_1.c ****     static uint32 I2C_LCD_1_buffIndex = 0u;
  40:.\Generated_Source\PSoC4/I2C_LCD_1.c ****     /* Variable stores the I2C address */
  41:.\Generated_Source\PSoC4/I2C_LCD_1.c ****     static uint32 I2C_LCD_1_address = I2C_LCD_1_DEFAULT_I2C_ADDRESS;
  42:.\Generated_Source\PSoC4/I2C_LCD_1.c **** #else
  43:.\Generated_Source\PSoC4/I2C_LCD_1.c ****     /* Variable used for buffer indexing */
  44:.\Generated_Source\PSoC4/I2C_LCD_1.c ****     static uint8 I2C_LCD_1_buffIndex = 0u;
  45:.\Generated_Source\PSoC4/I2C_LCD_1.c ****     /* Variable stores the I2C address */
  46:.\Generated_Source\PSoC4/I2C_LCD_1.c ****     static uint8 I2C_LCD_1_address = I2C_LCD_1_DEFAULT_I2C_ADDRESS;
  47:.\Generated_Source\PSoC4/I2C_LCD_1.c **** #endif /* (I2C_LCD_1_IS_SCB_MASTER_USED) */
  48:.\Generated_Source\PSoC4/I2C_LCD_1.c **** 
  49:.\Generated_Source\PSoC4/I2C_LCD_1.c **** /********************
  50:.\Generated_Source\PSoC4/I2C_LCD_1.c **** * Generated Code
  51:.\Generated_Source\PSoC4/I2C_LCD_1.c **** ********************/
  52:.\Generated_Source\PSoC4/I2C_LCD_1.c **** /* Array with command patterns */
  53:.\Generated_Source\PSoC4/I2C_LCD_1.c **** static const uint8 CYCODE I2C_LCD_1_cmdPatt[16u][3u] =
  54:.\Generated_Source\PSoC4/I2C_LCD_1.c **** {
  55:.\Generated_Source\PSoC4/I2C_LCD_1.c ****     /* Command pattern for writing data */
  56:.\Generated_Source\PSoC4/I2C_LCD_1.c ****     {0x01u, 0x40u, 0x00u},
  57:.\Generated_Source\PSoC4/I2C_LCD_1.c ****     /* Display on, cursor off */
  58:.\Generated_Source\PSoC4/I2C_LCD_1.c ****     {0x02u, 0x00u, 0x0Cu},
  59:.\Generated_Source\PSoC4/I2C_LCD_1.c ****     /* Display and cursor off */
  60:.\Generated_Source\PSoC4/I2C_LCD_1.c ****     {0x02u, 0x00u, 0x08u},
  61:.\Generated_Source\PSoC4/I2C_LCD_1.c ****     /* Set cursor position */
  62:.\Generated_Source\PSoC4/I2C_LCD_1.c ****     {0x01u, 0x00u, 0x80u},
  63:.\Generated_Source\PSoC4/I2C_LCD_1.c ****     /* Cursor home */
  64:.\Generated_Source\PSoC4/I2C_LCD_1.c ****     {0x02u, 0x00u, 0x02u},
  65:.\Generated_Source\PSoC4/I2C_LCD_1.c ****     /* Reset cursor position */
  66:.\Generated_Source\PSoC4/I2C_LCD_1.c ****     {0x02u, 0x00u, 0x03u},
  67:.\Generated_Source\PSoC4/I2C_LCD_1.c ****     /* Move cursor left one place */
  68:.\Generated_Source\PSoC4/I2C_LCD_1.c ****     {0x02u, 0x00u, 0x10u},
  69:.\Generated_Source\PSoC4/I2C_LCD_1.c ****     /* Move cursor right one place */
  70:.\Generated_Source\PSoC4/I2C_LCD_1.c ****     {0x02u, 0x00u, 0x14u},
  71:.\Generated_Source\PSoC4/I2C_LCD_1.c ****     /* Underline cursor on */
  72:.\Generated_Source\PSoC4/I2C_LCD_1.c ****     {0x02u, 0x00u, 0x0Eu},
  73:.\Generated_Source\PSoC4/I2C_LCD_1.c ****     /* Display - on, cursor - off, set cursor wink */
  74:.\Generated_Source\PSoC4/I2C_LCD_1.c ****     {0x02u, 0x00u, 0x0Du},
  75:.\Generated_Source\PSoC4/I2C_LCD_1.c ****     /* Display - on, cursor - off, set cursor blink */
  76:.\Generated_Source\PSoC4/I2C_LCD_1.c ****     {0x02u, 0x00u, 0x0Fu},
  77:.\Generated_Source\PSoC4/I2C_LCD_1.c ****     /* Clear screen */
  78:.\Generated_Source\PSoC4/I2C_LCD_1.c ****     {0x02u, 0x00u, 0x01u},
  79:.\Generated_Source\PSoC4/I2C_LCD_1.c ****     /* Load custom character */
  80:.\Generated_Source\PSoC4/I2C_LCD_1.c ****     {0x02u, 0x00u, 0x40u},
  81:.\Generated_Source\PSoC4/I2C_LCD_1.c ****     /* Set display for 2 lines and 16 characters */
  82:.\Generated_Source\PSoC4/I2C_LCD_1.c ****     {0x02u, 0x00u, 0x24u},
  83:.\Generated_Source\PSoC4/I2C_LCD_1.c ****     /* Move cursor/shift display right (cursor position auto increment) */
  84:.\Generated_Source\PSoC4/I2C_LCD_1.c ****     {0x02u, 0x00u, 0x06u},
  85:.\Generated_Source\PSoC4/I2C_LCD_1.c ****     /* Move cursor/shift display right (cursor position auto decrement) */
  86:.\Generated_Source\PSoC4/I2C_LCD_1.c ****     {0x02u, 0x00u, 0x04u}
  87:.\Generated_Source\PSoC4/I2C_LCD_1.c **** };
  88:.\Generated_Source\PSoC4/I2C_LCD_1.c **** 
  89:.\Generated_Source\PSoC4/I2C_LCD_1.c **** /********************
  90:.\Generated_Source\PSoC4/I2C_LCD_1.c **** * Generated Code 
ARM GAS  C:\Users\JEPPES~1\AppData\Local\Temp\cc97M3eW.s 			page 3


  91:.\Generated_Source\PSoC4/I2C_LCD_1.c **** ********************/
  92:.\Generated_Source\PSoC4/I2C_LCD_1.c **** /* Optional: Array with custom character set */
  93:.\Generated_Source\PSoC4/I2C_LCD_1.c **** 
  94:.\Generated_Source\PSoC4/I2C_LCD_1.c **** 
  95:.\Generated_Source\PSoC4/I2C_LCD_1.c **** 
  96:.\Generated_Source\PSoC4/I2C_LCD_1.c **** /*******************************************************************************
  97:.\Generated_Source\PSoC4/I2C_LCD_1.c **** * Function Name: I2C_LCD_1_Init
  98:.\Generated_Source\PSoC4/I2C_LCD_1.c **** ********************************************************************************
  99:.\Generated_Source\PSoC4/I2C_LCD_1.c **** *
 100:.\Generated_Source\PSoC4/I2C_LCD_1.c **** * Summary:
 101:.\Generated_Source\PSoC4/I2C_LCD_1.c **** *  Performs initialization required for the component's normal work.
 102:.\Generated_Source\PSoC4/I2C_LCD_1.c **** *  I2C_LCD_Init() also loads the custom character set if it was defined in the
 103:.\Generated_Source\PSoC4/I2C_LCD_1.c **** *  Configure dialog.
 104:.\Generated_Source\PSoC4/I2C_LCD_1.c **** *
 105:.\Generated_Source\PSoC4/I2C_LCD_1.c **** * Parameters:
 106:.\Generated_Source\PSoC4/I2C_LCD_1.c **** *  None
 107:.\Generated_Source\PSoC4/I2C_LCD_1.c **** *
 108:.\Generated_Source\PSoC4/I2C_LCD_1.c **** * Return:
 109:.\Generated_Source\PSoC4/I2C_LCD_1.c **** *  None
 110:.\Generated_Source\PSoC4/I2C_LCD_1.c **** *
 111:.\Generated_Source\PSoC4/I2C_LCD_1.c **** * Reentrant:
 112:.\Generated_Source\PSoC4/I2C_LCD_1.c **** *  No
 113:.\Generated_Source\PSoC4/I2C_LCD_1.c **** *
 114:.\Generated_Source\PSoC4/I2C_LCD_1.c **** *******************************************************************************/
 115:.\Generated_Source\PSoC4/I2C_LCD_1.c **** void I2C_LCD_1_Init(void) 
 116:.\Generated_Source\PSoC4/I2C_LCD_1.c **** {
 117:.\Generated_Source\PSoC4/I2C_LCD_1.c ****     /* Following part of code is only applicable for NXP LCDs */
 118:.\Generated_Source\PSoC4/I2C_LCD_1.c ****     #if (I2C_LCD_1_COMMAND_FORMAT == I2C_LCD_1_NXP_PCF2119X)
 119:.\Generated_Source\PSoC4/I2C_LCD_1.c ****         /* Select Extended Instruction set, 2x16 display */
 120:.\Generated_Source\PSoC4/I2C_LCD_1.c ****         I2C_LCD_1_SendCmd(I2C_LCD_1_SET_EXTENDED_FUNC);
 121:.\Generated_Source\PSoC4/I2C_LCD_1.c ****         /* Split screen configuration  */
 122:.\Generated_Source\PSoC4/I2C_LCD_1.c ****         I2C_LCD_1_SendCmd(I2C_LCD_1_SPLIT_SCREEN);
 123:.\Generated_Source\PSoC4/I2C_LCD_1.c ****         /* LCD Module format: left to right column, and top to bottom rows  */
 124:.\Generated_Source\PSoC4/I2C_LCD_1.c ****         I2C_LCD_1_SendCmd(I2C_LCD_1_DISP_CONF);
 125:.\Generated_Source\PSoC4/I2C_LCD_1.c ****         /* Icon mode not supported. Disable all icon enable settings */
 126:.\Generated_Source\PSoC4/I2C_LCD_1.c ****         I2C_LCD_1_SendCmd(I2C_LCD_1_ICON_CTL);
 127:.\Generated_Source\PSoC4/I2C_LCD_1.c ****         /* Set LCD bias voltage to 4.38 V since LCD module datasheet recommends 4.4 V */
 128:.\Generated_Source\PSoC4/I2C_LCD_1.c ****         I2C_LCD_1_SendCmd(I2C_LCD_1_VLCD_SET);
 129:.\Generated_Source\PSoC4/I2C_LCD_1.c ****         /* Select Standard Instruction set, 2x16 display */
 130:.\Generated_Source\PSoC4/I2C_LCD_1.c ****         I2C_LCD_1_SendCmd(I2C_LCD_1_FUNCTION_SET_STANDARD);
 131:.\Generated_Source\PSoC4/I2C_LCD_1.c ****     #endif /* (I2C_LCD_1_COMMAND_FORMAT == I2C_LCD_1_NXP_PCF2119X) */
 132:.\Generated_Source\PSoC4/I2C_LCD_1.c ****     
 133:.\Generated_Source\PSoC4/I2C_LCD_1.c ****     /* Configure LCD for 2 lines and 16 characters */
 134:.\Generated_Source\PSoC4/I2C_LCD_1.c ****     I2C_LCD_1_WriteControl(I2C_LCD_1_DISPLAY_2_LINES_5x10);
 135:.\Generated_Source\PSoC4/I2C_LCD_1.c ****     /* Turn on both display and cursor */
 136:.\Generated_Source\PSoC4/I2C_LCD_1.c ****     I2C_LCD_1_WriteControl(I2C_LCD_1_DISPLAY_CURSOR_ON);
 137:.\Generated_Source\PSoC4/I2C_LCD_1.c ****     /* Turn on cursor auto incrementing */
 138:.\Generated_Source\PSoC4/I2C_LCD_1.c ****     I2C_LCD_1_WriteControl(I2C_LCD_1_CURSOR_AUTO_INCR_ON);
 139:.\Generated_Source\PSoC4/I2C_LCD_1.c ****     /* Turn off cursor underlining */
 140:.\Generated_Source\PSoC4/I2C_LCD_1.c ****     I2C_LCD_1_WriteControl(I2C_LCD_1_DISPLAY_ON_CURSOR_OFF);
 141:.\Generated_Source\PSoC4/I2C_LCD_1.c ****     /* Clear the Display */
 142:.\Generated_Source\PSoC4/I2C_LCD_1.c ****     I2C_LCD_1_ClearDisplay();
 143:.\Generated_Source\PSoC4/I2C_LCD_1.c ****     
 144:.\Generated_Source\PSoC4/I2C_LCD_1.c ****     /* Load custom character set */
 145:.\Generated_Source\PSoC4/I2C_LCD_1.c ****     #if(I2C_LCD_1_CUSTOM_CHAR_SET != I2C_LCD_1_NONE)
 146:.\Generated_Source\PSoC4/I2C_LCD_1.c ****         I2C_LCD_1_LoadCustomFonts(I2C_LCD_1_customFonts);
 147:.\Generated_Source\PSoC4/I2C_LCD_1.c ****     #endif /* I2C_LCD_1_CUSTOM_CHAR_SET != I2C_LCD_1_NONE */
ARM GAS  C:\Users\JEPPES~1\AppData\Local\Temp\cc97M3eW.s 			page 4


 148:.\Generated_Source\PSoC4/I2C_LCD_1.c **** }
 149:.\Generated_Source\PSoC4/I2C_LCD_1.c **** 
 150:.\Generated_Source\PSoC4/I2C_LCD_1.c **** 
 151:.\Generated_Source\PSoC4/I2C_LCD_1.c **** /*******************************************************************************
 152:.\Generated_Source\PSoC4/I2C_LCD_1.c **** * Function Name: I2C_LCD_1_Enable
 153:.\Generated_Source\PSoC4/I2C_LCD_1.c **** ********************************************************************************
 154:.\Generated_Source\PSoC4/I2C_LCD_1.c **** *
 155:.\Generated_Source\PSoC4/I2C_LCD_1.c **** * Summary:
 156:.\Generated_Source\PSoC4/I2C_LCD_1.c **** *  Turns on the display.
 157:.\Generated_Source\PSoC4/I2C_LCD_1.c **** *
 158:.\Generated_Source\PSoC4/I2C_LCD_1.c **** * Parameters:
 159:.\Generated_Source\PSoC4/I2C_LCD_1.c **** *  None
 160:.\Generated_Source\PSoC4/I2C_LCD_1.c **** *
 161:.\Generated_Source\PSoC4/I2C_LCD_1.c **** * Return:
 162:.\Generated_Source\PSoC4/I2C_LCD_1.c **** *  None
 163:.\Generated_Source\PSoC4/I2C_LCD_1.c **** *
 164:.\Generated_Source\PSoC4/I2C_LCD_1.c **** * Reentrant:
 165:.\Generated_Source\PSoC4/I2C_LCD_1.c **** *  No
 166:.\Generated_Source\PSoC4/I2C_LCD_1.c **** *
 167:.\Generated_Source\PSoC4/I2C_LCD_1.c **** * Theory:
 168:.\Generated_Source\PSoC4/I2C_LCD_1.c **** *  This function has no effect when it called first time as
 169:.\Generated_Source\PSoC4/I2C_LCD_1.c **** *  I2C_LCD_1_Init() turns on the LCD.
 170:.\Generated_Source\PSoC4/I2C_LCD_1.c **** *
 171:.\Generated_Source\PSoC4/I2C_LCD_1.c **** *******************************************************************************/
 172:.\Generated_Source\PSoC4/I2C_LCD_1.c **** void I2C_LCD_1_Enable(void) 
 173:.\Generated_Source\PSoC4/I2C_LCD_1.c **** {
 174:.\Generated_Source\PSoC4/I2C_LCD_1.c ****     I2C_LCD_1_DisplayOn();
 175:.\Generated_Source\PSoC4/I2C_LCD_1.c **** }
 176:.\Generated_Source\PSoC4/I2C_LCD_1.c **** 
 177:.\Generated_Source\PSoC4/I2C_LCD_1.c **** 
 178:.\Generated_Source\PSoC4/I2C_LCD_1.c **** /*******************************************************************************
 179:.\Generated_Source\PSoC4/I2C_LCD_1.c **** * Function Name: I2C_LCD_1_Start
 180:.\Generated_Source\PSoC4/I2C_LCD_1.c **** ********************************************************************************
 181:.\Generated_Source\PSoC4/I2C_LCD_1.c **** *
 182:.\Generated_Source\PSoC4/I2C_LCD_1.c **** * Summary:
 183:.\Generated_Source\PSoC4/I2C_LCD_1.c **** *  This function initializes the LCD hardware module as follows:
 184:.\Generated_Source\PSoC4/I2C_LCD_1.c **** *       Initialize the I2C bus if it hasn't already been
 185:.\Generated_Source\PSoC4/I2C_LCD_1.c **** *       Clears the display;
 186:.\Generated_Source\PSoC4/I2C_LCD_1.c **** *       Enables auto cursor increment;
 187:.\Generated_Source\PSoC4/I2C_LCD_1.c **** *       Resets the cursor to start position;
 188:.\Generated_Source\PSoC4/I2C_LCD_1.c **** *       It also loads a custom character set to LCD if it was defined in the
 189:.\Generated_Source\PSoC4/I2C_LCD_1.c **** *  customizer's GUI.
 190:.\Generated_Source\PSoC4/I2C_LCD_1.c **** *
 191:.\Generated_Source\PSoC4/I2C_LCD_1.c **** * Parameters:
 192:.\Generated_Source\PSoC4/I2C_LCD_1.c **** *  I2C_LCD_1_initVar - global variable.
 193:.\Generated_Source\PSoC4/I2C_LCD_1.c **** *
 194:.\Generated_Source\PSoC4/I2C_LCD_1.c **** * Return:
 195:.\Generated_Source\PSoC4/I2C_LCD_1.c **** *  I2C_LCD_1_initVar - global variable.
 196:.\Generated_Source\PSoC4/I2C_LCD_1.c **** *
 197:.\Generated_Source\PSoC4/I2C_LCD_1.c **** * Reentrant:
 198:.\Generated_Source\PSoC4/I2C_LCD_1.c **** *  No
 199:.\Generated_Source\PSoC4/I2C_LCD_1.c **** *
 200:.\Generated_Source\PSoC4/I2C_LCD_1.c **** *******************************************************************************/
 201:.\Generated_Source\PSoC4/I2C_LCD_1.c **** void I2C_LCD_1_Start(void) 
 202:.\Generated_Source\PSoC4/I2C_LCD_1.c **** {
 203:.\Generated_Source\PSoC4/I2C_LCD_1.c ****     /* If not initialized then perform initialization */
 204:.\Generated_Source\PSoC4/I2C_LCD_1.c ****     if(I2C_LCD_1_initVar == 0u)
ARM GAS  C:\Users\JEPPES~1\AppData\Local\Temp\cc97M3eW.s 			page 5


 205:.\Generated_Source\PSoC4/I2C_LCD_1.c ****     {
 206:.\Generated_Source\PSoC4/I2C_LCD_1.c ****         I2C_LCD_1_Init();
 207:.\Generated_Source\PSoC4/I2C_LCD_1.c ****         I2C_LCD_1_initVar = 1u;
 208:.\Generated_Source\PSoC4/I2C_LCD_1.c ****     }
 209:.\Generated_Source\PSoC4/I2C_LCD_1.c **** 
 210:.\Generated_Source\PSoC4/I2C_LCD_1.c ****     /* Turn on the LCD */
 211:.\Generated_Source\PSoC4/I2C_LCD_1.c ****     I2C_LCD_1_Enable();
 212:.\Generated_Source\PSoC4/I2C_LCD_1.c **** }
 213:.\Generated_Source\PSoC4/I2C_LCD_1.c **** 
 214:.\Generated_Source\PSoC4/I2C_LCD_1.c **** 
 215:.\Generated_Source\PSoC4/I2C_LCD_1.c **** /*******************************************************************************
 216:.\Generated_Source\PSoC4/I2C_LCD_1.c **** * Function Name: I2C_LCD_1_Stop
 217:.\Generated_Source\PSoC4/I2C_LCD_1.c **** ********************************************************************************
 218:.\Generated_Source\PSoC4/I2C_LCD_1.c **** *
 219:.\Generated_Source\PSoC4/I2C_LCD_1.c **** * Summary:
 220:.\Generated_Source\PSoC4/I2C_LCD_1.c **** *  Turns off the display of the LCD screen but does not stop the I2C Master
 221:.\Generated_Source\PSoC4/I2C_LCD_1.c **** *  component.
 222:.\Generated_Source\PSoC4/I2C_LCD_1.c **** *
 223:.\Generated_Source\PSoC4/I2C_LCD_1.c **** * Parameters:
 224:.\Generated_Source\PSoC4/I2C_LCD_1.c **** *  None
 225:.\Generated_Source\PSoC4/I2C_LCD_1.c **** *
 226:.\Generated_Source\PSoC4/I2C_LCD_1.c **** * Return:
 227:.\Generated_Source\PSoC4/I2C_LCD_1.c **** *  None
 228:.\Generated_Source\PSoC4/I2C_LCD_1.c **** *
 229:.\Generated_Source\PSoC4/I2C_LCD_1.c **** * Reentrant:
 230:.\Generated_Source\PSoC4/I2C_LCD_1.c **** *  No
 231:.\Generated_Source\PSoC4/I2C_LCD_1.c **** *
 232:.\Generated_Source\PSoC4/I2C_LCD_1.c **** *******************************************************************************/
 233:.\Generated_Source\PSoC4/I2C_LCD_1.c **** void I2C_LCD_1_Stop(void) 
 234:.\Generated_Source\PSoC4/I2C_LCD_1.c **** {
 235:.\Generated_Source\PSoC4/I2C_LCD_1.c ****     I2C_LCD_1_DisplayOff();
 236:.\Generated_Source\PSoC4/I2C_LCD_1.c **** }
 237:.\Generated_Source\PSoC4/I2C_LCD_1.c **** 
 238:.\Generated_Source\PSoC4/I2C_LCD_1.c **** 
 239:.\Generated_Source\PSoC4/I2C_LCD_1.c **** /*******************************************************************************
 240:.\Generated_Source\PSoC4/I2C_LCD_1.c **** *  Function Name: I2C_LCD_1_Position
 241:.\Generated_Source\PSoC4/I2C_LCD_1.c **** ********************************************************************************
 242:.\Generated_Source\PSoC4/I2C_LCD_1.c **** *
 243:.\Generated_Source\PSoC4/I2C_LCD_1.c **** * Summary:
 244:.\Generated_Source\PSoC4/I2C_LCD_1.c **** *  Moves the cursor to the location specified by arguments row and column.
 245:.\Generated_Source\PSoC4/I2C_LCD_1.c **** *
 246:.\Generated_Source\PSoC4/I2C_LCD_1.c **** * Parameters:
 247:.\Generated_Source\PSoC4/I2C_LCD_1.c **** *  row:     The row number at which to position the cursor. Minimum value is
 248:.\Generated_Source\PSoC4/I2C_LCD_1.c **** *           zero.
 249:.\Generated_Source\PSoC4/I2C_LCD_1.c **** *  column:  The column number at which to position the cursor. Minimum value is
 250:.\Generated_Source\PSoC4/I2C_LCD_1.c **** *           zero.
 251:.\Generated_Source\PSoC4/I2C_LCD_1.c **** *
 252:.\Generated_Source\PSoC4/I2C_LCD_1.c **** * Return:
 253:.\Generated_Source\PSoC4/I2C_LCD_1.c **** *  None
 254:.\Generated_Source\PSoC4/I2C_LCD_1.c **** *
 255:.\Generated_Source\PSoC4/I2C_LCD_1.c **** * Reentrant:
 256:.\Generated_Source\PSoC4/I2C_LCD_1.c **** *  No
 257:.\Generated_Source\PSoC4/I2C_LCD_1.c **** *
 258:.\Generated_Source\PSoC4/I2C_LCD_1.c **** *******************************************************************************/
 259:.\Generated_Source\PSoC4/I2C_LCD_1.c **** void I2C_LCD_1_Position(uint8 row, uint8 column) 
 260:.\Generated_Source\PSoC4/I2C_LCD_1.c **** {
 261:.\Generated_Source\PSoC4/I2C_LCD_1.c ****     /* Write command pattern for "Set cursor position" to buffer */
ARM GAS  C:\Users\JEPPES~1\AppData\Local\Temp\cc97M3eW.s 			page 6


 262:.\Generated_Source\PSoC4/I2C_LCD_1.c ****     I2C_LCD_1_WrCntrlPatt(I2C_LCD_1_DDRAM_0_IDX);
 263:.\Generated_Source\PSoC4/I2C_LCD_1.c **** 
 264:.\Generated_Source\PSoC4/I2C_LCD_1.c ****     #if(I2C_LCD_1_LENGTH_2_BYTES == I2C_LCD_1_DDRAM_0_DATA_LEN)
 265:.\Generated_Source\PSoC4/I2C_LCD_1.c ****         /* In case when there two bytes of data for "Set cursor position" it is
 266:.\Generated_Source\PSoC4/I2C_LCD_1.c ****         * required to send both row and column. The numeration of rows and 
 267:.\Generated_Source\PSoC4/I2C_LCD_1.c ****         * columns starts from '1' so the row and column should be incremented.
 268:.\Generated_Source\PSoC4/I2C_LCD_1.c ****         */
 269:.\Generated_Source\PSoC4/I2C_LCD_1.c ****         I2C_LCD_1_WrDataToBuff(column + 1u);
 270:.\Generated_Source\PSoC4/I2C_LCD_1.c ****         I2C_LCD_1_WrDataToBuff(row + 1u);
 271:.\Generated_Source\PSoC4/I2C_LCD_1.c ****     #else
 272:.\Generated_Source\PSoC4/I2C_LCD_1.c ****         /* Position is sent as one byte so it is required to calculate the position */
 273:.\Generated_Source\PSoC4/I2C_LCD_1.c ****         switch (row)
 274:.\Generated_Source\PSoC4/I2C_LCD_1.c ****         {
 275:.\Generated_Source\PSoC4/I2C_LCD_1.c ****             case (uint8) 0u:
 276:.\Generated_Source\PSoC4/I2C_LCD_1.c ****                 /* To avoid MISRA warnig */
 277:.\Generated_Source\PSoC4/I2C_LCD_1.c ****                 #if (I2C_LCD_1_COMMAND_FORMAT == I2C_LCD_1_NXP_PCF2119X)
 278:.\Generated_Source\PSoC4/I2C_LCD_1.c ****                     I2C_LCD_1_WrDataToBuff(I2C_LCD_1_ROW_0_START + column);
 279:.\Generated_Source\PSoC4/I2C_LCD_1.c ****                 #else
 280:.\Generated_Source\PSoC4/I2C_LCD_1.c ****                     I2C_LCD_1_WrDataToBuff(column);
 281:.\Generated_Source\PSoC4/I2C_LCD_1.c ****                 #endif /* (I2C_LCD_1_COMMAND_FORMAT == I2C_LCD_1_NXP_PCF2119X) */
 282:.\Generated_Source\PSoC4/I2C_LCD_1.c ****                 
 283:.\Generated_Source\PSoC4/I2C_LCD_1.c ****                 break;
 284:.\Generated_Source\PSoC4/I2C_LCD_1.c ****             
 285:.\Generated_Source\PSoC4/I2C_LCD_1.c ****             case (uint8) 1u:
 286:.\Generated_Source\PSoC4/I2C_LCD_1.c ****                 I2C_LCD_1_WrDataToBuff(I2C_LCD_1_ROW_1_START + column);
 287:.\Generated_Source\PSoC4/I2C_LCD_1.c ****                 break;
 288:.\Generated_Source\PSoC4/I2C_LCD_1.c ****             
 289:.\Generated_Source\PSoC4/I2C_LCD_1.c ****             case (uint8) 2u:
 290:.\Generated_Source\PSoC4/I2C_LCD_1.c ****                 I2C_LCD_1_WrDataToBuff(I2C_LCD_1_ROW_2_START + column);
 291:.\Generated_Source\PSoC4/I2C_LCD_1.c ****                 break;
 292:.\Generated_Source\PSoC4/I2C_LCD_1.c ****             
 293:.\Generated_Source\PSoC4/I2C_LCD_1.c ****             case (uint8) 3u:
 294:.\Generated_Source\PSoC4/I2C_LCD_1.c ****                 I2C_LCD_1_WrDataToBuff(I2C_LCD_1_ROW_3_START + column);
 295:.\Generated_Source\PSoC4/I2C_LCD_1.c ****                 break;
 296:.\Generated_Source\PSoC4/I2C_LCD_1.c ****             
 297:.\Generated_Source\PSoC4/I2C_LCD_1.c ****             default:
 298:.\Generated_Source\PSoC4/I2C_LCD_1.c ****                 /* if default case is hit, invalid row argument was passed.*/
 299:.\Generated_Source\PSoC4/I2C_LCD_1.c ****                 break;
 300:.\Generated_Source\PSoC4/I2C_LCD_1.c ****         }        
 301:.\Generated_Source\PSoC4/I2C_LCD_1.c ****     #endif /* (I2C_LCD_1_LENGTH_2_BYTES == I2C_LCD_1_SET_POS_DATA_LEN) */
 302:.\Generated_Source\PSoC4/I2C_LCD_1.c **** 
 303:.\Generated_Source\PSoC4/I2C_LCD_1.c ****     /* Send data to LCD and wait when transaction complete */
 304:.\Generated_Source\PSoC4/I2C_LCD_1.c ****     I2C_LCD_1_SendSequence();
 305:.\Generated_Source\PSoC4/I2C_LCD_1.c **** }
 306:.\Generated_Source\PSoC4/I2C_LCD_1.c **** 
 307:.\Generated_Source\PSoC4/I2C_LCD_1.c **** 
 308:.\Generated_Source\PSoC4/I2C_LCD_1.c **** /*******************************************************************************
 309:.\Generated_Source\PSoC4/I2C_LCD_1.c **** *  Function Name: I2C_LCD_1_WriteData
 310:.\Generated_Source\PSoC4/I2C_LCD_1.c **** ********************************************************************************
 311:.\Generated_Source\PSoC4/I2C_LCD_1.c **** *
 312:.\Generated_Source\PSoC4/I2C_LCD_1.c **** * Summary:
 313:.\Generated_Source\PSoC4/I2C_LCD_1.c **** *  Writes data to the LCD RAM in the current position. Upon write completion,
 314:.\Generated_Source\PSoC4/I2C_LCD_1.c **** *  the position is incremented or decremented depending on the entry mode
 315:.\Generated_Source\PSoC4/I2C_LCD_1.c **** *  specified.
 316:.\Generated_Source\PSoC4/I2C_LCD_1.c **** *
 317:.\Generated_Source\PSoC4/I2C_LCD_1.c **** * Parameters:
 318:.\Generated_Source\PSoC4/I2C_LCD_1.c **** *  dByte:  The byte to be written to the LCD module.
ARM GAS  C:\Users\JEPPES~1\AppData\Local\Temp\cc97M3eW.s 			page 7


 319:.\Generated_Source\PSoC4/I2C_LCD_1.c **** *
 320:.\Generated_Source\PSoC4/I2C_LCD_1.c **** * Return:
 321:.\Generated_Source\PSoC4/I2C_LCD_1.c **** *  None.
 322:.\Generated_Source\PSoC4/I2C_LCD_1.c **** *
 323:.\Generated_Source\PSoC4/I2C_LCD_1.c **** * Reentrant:
 324:.\Generated_Source\PSoC4/I2C_LCD_1.c **** *  No
 325:.\Generated_Source\PSoC4/I2C_LCD_1.c **** *
 326:.\Generated_Source\PSoC4/I2C_LCD_1.c **** *******************************************************************************/
 327:.\Generated_Source\PSoC4/I2C_LCD_1.c **** void I2C_LCD_1_WriteData(uint8 dByte) 
 328:.\Generated_Source\PSoC4/I2C_LCD_1.c **** {
 329:.\Generated_Source\PSoC4/I2C_LCD_1.c ****     /* Send required control byte value to address data register */
 330:.\Generated_Source\PSoC4/I2C_LCD_1.c ****     I2C_LCD_1_WrCntrlPatt(I2C_LCD_1_WRITE_DATA_IDX);
 331:.\Generated_Source\PSoC4/I2C_LCD_1.c **** 
 332:.\Generated_Source\PSoC4/I2C_LCD_1.c ****     /* Add byte of data to buffer */
 333:.\Generated_Source\PSoC4/I2C_LCD_1.c ****     I2C_LCD_1_WrDataToBuff(dByte);
 334:.\Generated_Source\PSoC4/I2C_LCD_1.c **** 
 335:.\Generated_Source\PSoC4/I2C_LCD_1.c ****     /* Send data to LCD and wait when transaction complete */
 336:.\Generated_Source\PSoC4/I2C_LCD_1.c ****     I2C_LCD_1_SendSequence();
 337:.\Generated_Source\PSoC4/I2C_LCD_1.c **** }
 338:.\Generated_Source\PSoC4/I2C_LCD_1.c **** 
 339:.\Generated_Source\PSoC4/I2C_LCD_1.c **** 
 340:.\Generated_Source\PSoC4/I2C_LCD_1.c **** /*******************************************************************************
 341:.\Generated_Source\PSoC4/I2C_LCD_1.c **** *  Function Name: I2C_LCD_1_WrDataToBuff
 342:.\Generated_Source\PSoC4/I2C_LCD_1.c **** ********************************************************************************
 343:.\Generated_Source\PSoC4/I2C_LCD_1.c **** *
 344:.\Generated_Source\PSoC4/I2C_LCD_1.c **** * Summary:
 345:.\Generated_Source\PSoC4/I2C_LCD_1.c **** *  Writes a byte of data to the display buffer.
 346:.\Generated_Source\PSoC4/I2C_LCD_1.c **** *
 347:.\Generated_Source\PSoC4/I2C_LCD_1.c **** * Parameters:
 348:.\Generated_Source\PSoC4/I2C_LCD_1.c **** *  nibble:  the byte containing nibble in least significant nibble to be written
 349:.\Generated_Source\PSoC4/I2C_LCD_1.c **** *           to the LCD module.
 350:.\Generated_Source\PSoC4/I2C_LCD_1.c **** *
 351:.\Generated_Source\PSoC4/I2C_LCD_1.c **** * Return:
 352:.\Generated_Source\PSoC4/I2C_LCD_1.c **** *  None
 353:.\Generated_Source\PSoC4/I2C_LCD_1.c **** *
 354:.\Generated_Source\PSoC4/I2C_LCD_1.c **** * Reentrant:
 355:.\Generated_Source\PSoC4/I2C_LCD_1.c **** *  No
 356:.\Generated_Source\PSoC4/I2C_LCD_1.c **** *
 357:.\Generated_Source\PSoC4/I2C_LCD_1.c **** *******************************************************************************/
 358:.\Generated_Source\PSoC4/I2C_LCD_1.c **** static void I2C_LCD_1_WrDataToBuff(uint8 dByte) CYREENTRANT
 359:.\Generated_Source\PSoC4/I2C_LCD_1.c **** {
  25              		.loc 1 359 0
  26              		.cfi_startproc
  27              	.LVL0:
 360:.\Generated_Source\PSoC4/I2C_LCD_1.c ****     /* Put one byte of data to buffer at location of I2C_LCD_1_buffIndex */
 361:.\Generated_Source\PSoC4/I2C_LCD_1.c ****     I2C_LCD_1_buff[I2C_LCD_1_buffIndex] = dByte;
  28              		.loc 1 361 0
  29 0000 034A     		ldr	r2, .L2
  30 0002 1368     		ldr	r3, [r2]
  31 0004 D118     		add	r1, r2, r3
  32 0006 0871     		strb	r0, [r1, #4]
 362:.\Generated_Source\PSoC4/I2C_LCD_1.c ****     /* Increment I2C_LCD_1_buffIndex to point to next free position */
 363:.\Generated_Source\PSoC4/I2C_LCD_1.c ****     I2C_LCD_1_buffIndex++;
  33              		.loc 1 363 0
  34 0008 0133     		add	r3, r3, #1
  35 000a 1360     		str	r3, [r2]
 364:.\Generated_Source\PSoC4/I2C_LCD_1.c **** }
ARM GAS  C:\Users\JEPPES~1\AppData\Local\Temp\cc97M3eW.s 			page 8


  36              		.loc 1 364 0
  37              		@ sp needed
  38 000c 7047     		bx	lr
  39              	.L3:
  40 000e C046     		.align	2
  41              	.L2:
  42 0010 00000000 		.word	.LANCHOR0
  43              		.cfi_endproc
  44              	.LFE6:
  45              		.size	I2C_LCD_1_WrDataToBuff, .-I2C_LCD_1_WrDataToBuff
  46              		.section	.text.I2C_LCD_1_WrCntrlPatt,"ax",%progbits
  47              		.align	2
  48              		.code	16
  49              		.thumb_func
  50              		.type	I2C_LCD_1_WrCntrlPatt, %function
  51              	I2C_LCD_1_WrCntrlPatt:
  52              	.LFB8:
 365:.\Generated_Source\PSoC4/I2C_LCD_1.c **** 
 366:.\Generated_Source\PSoC4/I2C_LCD_1.c **** 
 367:.\Generated_Source\PSoC4/I2C_LCD_1.c **** /*******************************************************************************
 368:.\Generated_Source\PSoC4/I2C_LCD_1.c **** *  Function Name: I2C_LCD_1_WriteControl
 369:.\Generated_Source\PSoC4/I2C_LCD_1.c **** ********************************************************************************
 370:.\Generated_Source\PSoC4/I2C_LCD_1.c **** *
 371:.\Generated_Source\PSoC4/I2C_LCD_1.c **** * Summary:
 372:.\Generated_Source\PSoC4/I2C_LCD_1.c **** *  Writes a command byte to the LCD module. Different LCD models can have their
 373:.\Generated_Source\PSoC4/I2C_LCD_1.c **** *  own commands. Review the specific LCD datasheet for commands valid for that
 374:.\Generated_Source\PSoC4/I2C_LCD_1.c **** *  model.
 375:.\Generated_Source\PSoC4/I2C_LCD_1.c **** *
 376:.\Generated_Source\PSoC4/I2C_LCD_1.c **** * Parameters:
 377:.\Generated_Source\PSoC4/I2C_LCD_1.c **** *  cByte:   An 8-bit value representing the command to be loaded into the command
 378:.\Generated_Source\PSoC4/I2C_LCD_1.c **** *  register of the LCD module. Valid command parameters are specified in the
 379:.\Generated_Source\PSoC4/I2C_LCD_1.c **** *  table below:
 380:.\Generated_Source\PSoC4/I2C_LCD_1.c **** *   I2C_LCD_1_CLEAR_DISPLAY          Clear display.
 381:.\Generated_Source\PSoC4/I2C_LCD_1.c **** *   I2C_LCD_1_CURSOR_HOME            Return cursor and LCD to home
 382:.\Generated_Source\PSoC4/I2C_LCD_1.c **** *                                           position.
 383:.\Generated_Source\PSoC4/I2C_LCD_1.c **** *   I2C_LCD_1_SET_CURSOR_POSITION    Set position of cursor.
 384:.\Generated_Source\PSoC4/I2C_LCD_1.c **** *   I2C_LCD_1_DISPLAY_CURSOR_OFF     Disable display and cursor.
 385:.\Generated_Source\PSoC4/I2C_LCD_1.c **** *   I2C_LCD_1_DISPLAY_CURSOR_ON      Enable display and cursor.
 386:.\Generated_Source\PSoC4/I2C_LCD_1.c **** *   I2C_LCD_1_DISPLAY_ON_CURSOR_OFF
 387:.\Generated_Source\PSoC4/I2C_LCD_1.c **** *   I2C_LCD_1_DISPLAY_ON             Enable display, cursor off.
 388:.\Generated_Source\PSoC4/I2C_LCD_1.c **** *   I2C_LCD_1_CURSOR_BLINKING_ON     Enable display, cursor on, set
 389:.\Generated_Source\PSoC4/I2C_LCD_1.c **** *                                           cursor blink.
 390:.\Generated_Source\PSoC4/I2C_LCD_1.c **** *   I2C_LCD_1_CURSOR_BLINKING_OFF    Enable display, cursor on, cursor
 391:.\Generated_Source\PSoC4/I2C_LCD_1.c **** *                                           blinking off.
 392:.\Generated_Source\PSoC4/I2C_LCD_1.c **** *   I2C_LCD_1_SET_CGRAM_ADDR         Set position to the specific
 393:.\Generated_Source\PSoC4/I2C_LCD_1.c **** *                                           address in CGRAM (used for loading
 394:.\Generated_Source\PSoC4/I2C_LCD_1.c **** *                                           custom characters).
 395:.\Generated_Source\PSoC4/I2C_LCD_1.c **** *   I2C_LCD_1_CURSOR_AUTO_INCR_ON    Enable auto increment of cursor
 396:.\Generated_Source\PSoC4/I2C_LCD_1.c **** *                                           position.
 397:.\Generated_Source\PSoC4/I2C_LCD_1.c **** *   I2C_LCD_1_DISPLAY_2_LINES_16     Set display to be 2 lines 16
 398:.\Generated_Source\PSoC4/I2C_LCD_1.c **** *                                           characters.
 399:.\Generated_Source\PSoC4/I2C_LCD_1.c **** *
 400:.\Generated_Source\PSoC4/I2C_LCD_1.c **** * Return:
 401:.\Generated_Source\PSoC4/I2C_LCD_1.c **** *  None
 402:.\Generated_Source\PSoC4/I2C_LCD_1.c **** *
 403:.\Generated_Source\PSoC4/I2C_LCD_1.c **** * Reentrant:
 404:.\Generated_Source\PSoC4/I2C_LCD_1.c **** *  No
ARM GAS  C:\Users\JEPPES~1\AppData\Local\Temp\cc97M3eW.s 			page 9


 405:.\Generated_Source\PSoC4/I2C_LCD_1.c **** *
 406:.\Generated_Source\PSoC4/I2C_LCD_1.c **** *******************************************************************************/
 407:.\Generated_Source\PSoC4/I2C_LCD_1.c **** void I2C_LCD_1_WriteControl(uint8 cByte) 
 408:.\Generated_Source\PSoC4/I2C_LCD_1.c **** {
 409:.\Generated_Source\PSoC4/I2C_LCD_1.c ****     uint8 cmdIndx = 0u;
 410:.\Generated_Source\PSoC4/I2C_LCD_1.c ****     
 411:.\Generated_Source\PSoC4/I2C_LCD_1.c ****     while(cmdIndx < I2C_LCD_1_NUM_COMMANDS)
 412:.\Generated_Source\PSoC4/I2C_LCD_1.c ****     {   
 413:.\Generated_Source\PSoC4/I2C_LCD_1.c ****         if (cByte == I2C_LCD_1_cmdPatt[cmdIndx][I2C_LCD_1_COMMAND_BYTE_INDEX])
 414:.\Generated_Source\PSoC4/I2C_LCD_1.c ****         {
 415:.\Generated_Source\PSoC4/I2C_LCD_1.c ****             /* Fill control pattern based on found index */
 416:.\Generated_Source\PSoC4/I2C_LCD_1.c ****             I2C_LCD_1_WrCntrlPatt(cmdIndx);
 417:.\Generated_Source\PSoC4/I2C_LCD_1.c **** 
 418:.\Generated_Source\PSoC4/I2C_LCD_1.c ****             /* Send data to LCD and wait when transaction complete */
 419:.\Generated_Source\PSoC4/I2C_LCD_1.c ****             I2C_LCD_1_SendSequence();
 420:.\Generated_Source\PSoC4/I2C_LCD_1.c **** 
 421:.\Generated_Source\PSoC4/I2C_LCD_1.c ****             /* Following commands require 1.5 ms delay to execute */
 422:.\Generated_Source\PSoC4/I2C_LCD_1.c ****             switch(cByte)
 423:.\Generated_Source\PSoC4/I2C_LCD_1.c ****             {
 424:.\Generated_Source\PSoC4/I2C_LCD_1.c ****                 case I2C_LCD_1_CLEAR_DISPLAY :
 425:.\Generated_Source\PSoC4/I2C_LCD_1.c ****                 case I2C_LCD_1_CURSOR_HOME :
 426:.\Generated_Source\PSoC4/I2C_LCD_1.c ****                 case I2C_LCD_1_DISPLAY_CURSOR_ON :
 427:.\Generated_Source\PSoC4/I2C_LCD_1.c ****                 case I2C_LCD_1_DISPLAY_CURSOR_OFF :
 428:.\Generated_Source\PSoC4/I2C_LCD_1.c ****                     CyDelayUs(I2C_LCD_1_CMOMMAND_DELAY);
 429:.\Generated_Source\PSoC4/I2C_LCD_1.c ****                     break;
 430:.\Generated_Source\PSoC4/I2C_LCD_1.c ****                 default:
 431:.\Generated_Source\PSoC4/I2C_LCD_1.c ****                     break;
 432:.\Generated_Source\PSoC4/I2C_LCD_1.c ****             }
 433:.\Generated_Source\PSoC4/I2C_LCD_1.c ****             /* Command index was found - break while() loop */
 434:.\Generated_Source\PSoC4/I2C_LCD_1.c ****             break;
 435:.\Generated_Source\PSoC4/I2C_LCD_1.c ****         }
 436:.\Generated_Source\PSoC4/I2C_LCD_1.c ****         /* Increment command pattern index */
 437:.\Generated_Source\PSoC4/I2C_LCD_1.c ****         cmdIndx++;
 438:.\Generated_Source\PSoC4/I2C_LCD_1.c ****     } 
 439:.\Generated_Source\PSoC4/I2C_LCD_1.c **** }
 440:.\Generated_Source\PSoC4/I2C_LCD_1.c **** 
 441:.\Generated_Source\PSoC4/I2C_LCD_1.c **** 
 442:.\Generated_Source\PSoC4/I2C_LCD_1.c **** /*******************************************************************************
 443:.\Generated_Source\PSoC4/I2C_LCD_1.c **** *  Function Name: I2C_LCD_1_WrCntrlPatt
 444:.\Generated_Source\PSoC4/I2C_LCD_1.c **** ********************************************************************************
 445:.\Generated_Source\PSoC4/I2C_LCD_1.c **** *
 446:.\Generated_Source\PSoC4/I2C_LCD_1.c **** * Summary:
 447:.\Generated_Source\PSoC4/I2C_LCD_1.c **** *  Writes a control pattern to the buffer that will be later send to the LCD
 448:.\Generated_Source\PSoC4/I2C_LCD_1.c **** *  module.
 449:.\Generated_Source\PSoC4/I2C_LCD_1.c **** *
 450:.\Generated_Source\PSoC4/I2C_LCD_1.c **** * Parameters:
 451:.\Generated_Source\PSoC4/I2C_LCD_1.c **** *  cmdIndex: Index of the command pattern in the look-up array.
 452:.\Generated_Source\PSoC4/I2C_LCD_1.c **** *
 453:.\Generated_Source\PSoC4/I2C_LCD_1.c **** * Return:
 454:.\Generated_Source\PSoC4/I2C_LCD_1.c **** *  None
 455:.\Generated_Source\PSoC4/I2C_LCD_1.c **** *
 456:.\Generated_Source\PSoC4/I2C_LCD_1.c **** * Reentrant:
 457:.\Generated_Source\PSoC4/I2C_LCD_1.c **** *  No
 458:.\Generated_Source\PSoC4/I2C_LCD_1.c **** *
 459:.\Generated_Source\PSoC4/I2C_LCD_1.c **** *******************************************************************************/
 460:.\Generated_Source\PSoC4/I2C_LCD_1.c **** static void I2C_LCD_1_WrCntrlPatt(uint8 cmdIndex) CYREENTRANT
 461:.\Generated_Source\PSoC4/I2C_LCD_1.c **** {
ARM GAS  C:\Users\JEPPES~1\AppData\Local\Temp\cc97M3eW.s 			page 10


  53              		.loc 1 461 0
  54              		.cfi_startproc
  55              	.LVL1:
 462:.\Generated_Source\PSoC4/I2C_LCD_1.c ****     /* Need to have index 'i' of different size to avoid MISRA
 463:.\Generated_Source\PSoC4/I2C_LCD_1.c ****     * warning when SCB based I2C Master is used. 
 464:.\Generated_Source\PSoC4/I2C_LCD_1.c ****     */
 465:.\Generated_Source\PSoC4/I2C_LCD_1.c ****     #if(I2C_LCD_1_IS_SCB_MASTER_USED)
 466:.\Generated_Source\PSoC4/I2C_LCD_1.c ****         uint32 i;
 467:.\Generated_Source\PSoC4/I2C_LCD_1.c ****     #else
 468:.\Generated_Source\PSoC4/I2C_LCD_1.c ****         uint8 i;
 469:.\Generated_Source\PSoC4/I2C_LCD_1.c ****     #endif /* (I2C_LCD_1_IS_SCB_MASTER_USED) */
 470:.\Generated_Source\PSoC4/I2C_LCD_1.c **** 
 471:.\Generated_Source\PSoC4/I2C_LCD_1.c ****     /* Fill buffer with command pattern */
 472:.\Generated_Source\PSoC4/I2C_LCD_1.c ****     for(i = 1u; i <= I2C_LCD_1_cmdPatt[cmdIndex][0u]; i++)
  56              		.loc 1 472 0
  57 0000 0123     		mov	r3, #1
  58 0002 08E0     		b	.L5
  59              	.LVL2:
  60              	.L6:
 473:.\Generated_Source\PSoC4/I2C_LCD_1.c ****     {
 474:.\Generated_Source\PSoC4/I2C_LCD_1.c ****         I2C_LCD_1_buff[i - 1u] =  I2C_LCD_1_cmdPatt[cmdIndex][i];
  61              		.loc 1 474 0 discriminator 3
  62 0004 4200     		lsl	r2, r0, #1
  63 0006 1218     		add	r2, r2, r0
  64 0008 D218     		add	r2, r2, r3
  65 000a 0849     		ldr	r1, .L7
  66 000c 515C     		ldrb	r1, [r2, r1]
  67 000e 084A     		ldr	r2, .L7+4
  68 0010 D218     		add	r2, r2, r3
  69 0012 D170     		strb	r1, [r2, #3]
 472:.\Generated_Source\PSoC4/I2C_LCD_1.c ****     {
  70              		.loc 1 472 0 discriminator 3
  71 0014 0133     		add	r3, r3, #1
  72              	.LVL3:
  73              	.L5:
 472:.\Generated_Source\PSoC4/I2C_LCD_1.c ****     {
  74              		.loc 1 472 0 is_stmt 0 discriminator 1
  75 0016 4200     		lsl	r2, r0, #1
  76 0018 1218     		add	r2, r2, r0
  77 001a 0449     		ldr	r1, .L7
  78 001c 525C     		ldrb	r2, [r2, r1]
  79 001e 9A42     		cmp	r2, r3
  80 0020 F0D2     		bcs	.L6
 475:.\Generated_Source\PSoC4/I2C_LCD_1.c ****     }
 476:.\Generated_Source\PSoC4/I2C_LCD_1.c **** 
 477:.\Generated_Source\PSoC4/I2C_LCD_1.c ****     /* Set index to point on next free position in buffer */
 478:.\Generated_Source\PSoC4/I2C_LCD_1.c ****     I2C_LCD_1_buffIndex = i - 1u;
  81              		.loc 1 478 0 is_stmt 1
  82 0022 013B     		sub	r3, r3, #1
  83              	.LVL4:
  84 0024 024A     		ldr	r2, .L7+4
  85 0026 1360     		str	r3, [r2]
 479:.\Generated_Source\PSoC4/I2C_LCD_1.c **** }
  86              		.loc 1 479 0
  87              		@ sp needed
  88 0028 7047     		bx	lr
  89              	.L8:
ARM GAS  C:\Users\JEPPES~1\AppData\Local\Temp\cc97M3eW.s 			page 11


  90 002a C046     		.align	2
  91              	.L7:
  92 002c 00000000 		.word	.LANCHOR1
  93 0030 00000000 		.word	.LANCHOR0
  94              		.cfi_endproc
  95              	.LFE8:
  96              		.size	I2C_LCD_1_WrCntrlPatt, .-I2C_LCD_1_WrCntrlPatt
  97              		.section	.text.I2C_LCD_1_SendSequence,"ax",%progbits
  98              		.align	2
  99              		.code	16
 100              		.thumb_func
 101              		.type	I2C_LCD_1_SendSequence, %function
 102              	I2C_LCD_1_SendSequence:
 103              	.LFB9:
 480:.\Generated_Source\PSoC4/I2C_LCD_1.c **** 
 481:.\Generated_Source\PSoC4/I2C_LCD_1.c **** 
 482:.\Generated_Source\PSoC4/I2C_LCD_1.c **** /*******************************************************************************
 483:.\Generated_Source\PSoC4/I2C_LCD_1.c **** *  Function Name: I2C_LCD_1_SendSequence
 484:.\Generated_Source\PSoC4/I2C_LCD_1.c **** ********************************************************************************
 485:.\Generated_Source\PSoC4/I2C_LCD_1.c **** *
 486:.\Generated_Source\PSoC4/I2C_LCD_1.c **** * Summary:
 487:.\Generated_Source\PSoC4/I2C_LCD_1.c **** *  Sends the content of the buffer to the LCD module and waits while transaction
 488:.\Generated_Source\PSoC4/I2C_LCD_1.c **** *  completes. In the end resets index to point to the start of the buffer.
 489:.\Generated_Source\PSoC4/I2C_LCD_1.c **** *
 490:.\Generated_Source\PSoC4/I2C_LCD_1.c **** * Parameters:
 491:.\Generated_Source\PSoC4/I2C_LCD_1.c **** *  None
 492:.\Generated_Source\PSoC4/I2C_LCD_1.c **** *
 493:.\Generated_Source\PSoC4/I2C_LCD_1.c **** * Return:
 494:.\Generated_Source\PSoC4/I2C_LCD_1.c **** *  None
 495:.\Generated_Source\PSoC4/I2C_LCD_1.c **** *
 496:.\Generated_Source\PSoC4/I2C_LCD_1.c **** * Reentrant:
 497:.\Generated_Source\PSoC4/I2C_LCD_1.c **** *  No
 498:.\Generated_Source\PSoC4/I2C_LCD_1.c **** *
 499:.\Generated_Source\PSoC4/I2C_LCD_1.c **** *******************************************************************************/
 500:.\Generated_Source\PSoC4/I2C_LCD_1.c **** static void I2C_LCD_1_SendSequence(void) CYREENTRANT
 501:.\Generated_Source\PSoC4/I2C_LCD_1.c **** {
 104              		.loc 1 501 0
 105              		.cfi_startproc
 106 0000 08B5     		push	{r3, lr}
 107              		.cfi_def_cfa_offset 8
 108              		.cfi_offset 3, -8
 109              		.cfi_offset 14, -4
 502:.\Generated_Source\PSoC4/I2C_LCD_1.c ****     /* Send command pattern to LCD */
 503:.\Generated_Source\PSoC4/I2C_LCD_1.c ****     (void) I2C_LCD_1_MasterWriteBuf(I2C_LCD_1_address,
 110              		.loc 1 503 0
 111 0002 084B     		ldr	r3, .L11
 112 0004 1868     		ldr	r0, [r3]
 113 0006 084B     		ldr	r3, .L11+4
 114 0008 191D     		add	r1, r3, #4
 115 000a 1A68     		ldr	r2, [r3]
 116 000c 0023     		mov	r3, #0
 117 000e FFF7FEFF 		bl	I2C_1_I2CMasterWriteBuf
 118              	.LVL5:
 119              	.L10:
 504:.\Generated_Source\PSoC4/I2C_LCD_1.c ****                                            I2C_LCD_1_buff,
 505:.\Generated_Source\PSoC4/I2C_LCD_1.c ****                                            I2C_LCD_1_buffIndex,
 506:.\Generated_Source\PSoC4/I2C_LCD_1.c ****                                            I2C_LCD_1_MODE_COMPLETE_XFER);
ARM GAS  C:\Users\JEPPES~1\AppData\Local\Temp\cc97M3eW.s 			page 12


 507:.\Generated_Source\PSoC4/I2C_LCD_1.c **** 
 508:.\Generated_Source\PSoC4/I2C_LCD_1.c ****     while(0u == (I2C_LCD_1_MasterReadStatus() & I2C_LCD_1_WRITE_COMPLETE))
 120              		.loc 1 508 0 discriminator 1
 121 0012 FFF7FEFF 		bl	I2C_1_I2CMasterStatus
 122              	.LVL6:
 123 0016 8307     		lsl	r3, r0, #30
 124 0018 FBD5     		bpl	.L10
 509:.\Generated_Source\PSoC4/I2C_LCD_1.c ****     {
 510:.\Generated_Source\PSoC4/I2C_LCD_1.c ****         /* Wait until I2C Master finishes transaction */
 511:.\Generated_Source\PSoC4/I2C_LCD_1.c ****     }
 512:.\Generated_Source\PSoC4/I2C_LCD_1.c **** 
 513:.\Generated_Source\PSoC4/I2C_LCD_1.c ****     /* Reset buffer index */
 514:.\Generated_Source\PSoC4/I2C_LCD_1.c ****     I2C_LCD_1_buffIndex = 0u;
 125              		.loc 1 514 0
 126 001a 0022     		mov	r2, #0
 127 001c 024B     		ldr	r3, .L11+4
 128 001e 1A60     		str	r2, [r3]
 515:.\Generated_Source\PSoC4/I2C_LCD_1.c **** }
 129              		.loc 1 515 0
 130              		@ sp needed
 131 0020 08BD     		pop	{r3, pc}
 132              	.L12:
 133 0022 C046     		.align	2
 134              	.L11:
 135 0024 00000000 		.word	.LANCHOR2
 136 0028 00000000 		.word	.LANCHOR0
 137              		.cfi_endproc
 138              	.LFE9:
 139              		.size	I2C_LCD_1_SendSequence, .-I2C_LCD_1_SendSequence
 140              		.section	.text.I2C_LCD_1_SendCmd,"ax",%progbits
 141              		.align	2
 142              		.code	16
 143              		.thumb_func
 144              		.type	I2C_LCD_1_SendCmd, %function
 145              	I2C_LCD_1_SendCmd:
 146              	.LFB18:
 516:.\Generated_Source\PSoC4/I2C_LCD_1.c **** 
 517:.\Generated_Source\PSoC4/I2C_LCD_1.c **** 
 518:.\Generated_Source\PSoC4/I2C_LCD_1.c **** /*******************************************************************************
 519:.\Generated_Source\PSoC4/I2C_LCD_1.c **** * Function Name: I2C_LCD_1_HandleCustomCommand
 520:.\Generated_Source\PSoC4/I2C_LCD_1.c **** ********************************************************************************
 521:.\Generated_Source\PSoC4/I2C_LCD_1.c **** *
 522:.\Generated_Source\PSoC4/I2C_LCD_1.c **** * Summary:
 523:.\Generated_Source\PSoC4/I2C_LCD_1.c **** *  This command adds a support of sending custom commands with parameters.
 524:.\Generated_Source\PSoC4/I2C_LCD_1.c **** *
 525:.\Generated_Source\PSoC4/I2C_LCD_1.c **** * Parameters:
 526:.\Generated_Source\PSoC4/I2C_LCD_1.c **** *  uint8 cmdId: Command code.
 527:.\Generated_Source\PSoC4/I2C_LCD_1.c **** *  uint8 dataLength: The length of data to be send for this command.
 528:.\Generated_Source\PSoC4/I2C_LCD_1.c **** *  uint8 cmdData[]: The data to be send to I2C LCD.
 529:.\Generated_Source\PSoC4/I2C_LCD_1.c **** *
 530:.\Generated_Source\PSoC4/I2C_LCD_1.c **** * Return:
 531:.\Generated_Source\PSoC4/I2C_LCD_1.c **** *  None
 532:.\Generated_Source\PSoC4/I2C_LCD_1.c **** *
 533:.\Generated_Source\PSoC4/I2C_LCD_1.c **** * Reentrant:
 534:.\Generated_Source\PSoC4/I2C_LCD_1.c **** *  No
 535:.\Generated_Source\PSoC4/I2C_LCD_1.c **** *
 536:.\Generated_Source\PSoC4/I2C_LCD_1.c **** *******************************************************************************/
ARM GAS  C:\Users\JEPPES~1\AppData\Local\Temp\cc97M3eW.s 			page 13


 537:.\Generated_Source\PSoC4/I2C_LCD_1.c **** void I2C_LCD_1_HandleCustomCommand(uint8 cmdId, uint8 dataLength, uint8 const cmdData[])
 538:.\Generated_Source\PSoC4/I2C_LCD_1.c ****                                                         
 539:.\Generated_Source\PSoC4/I2C_LCD_1.c **** {
 540:.\Generated_Source\PSoC4/I2C_LCD_1.c ****     uint8 i;
 541:.\Generated_Source\PSoC4/I2C_LCD_1.c ****     uint8 ch;
 542:.\Generated_Source\PSoC4/I2C_LCD_1.c ****     uint8 cmdIndx = 0u;
 543:.\Generated_Source\PSoC4/I2C_LCD_1.c ****     
 544:.\Generated_Source\PSoC4/I2C_LCD_1.c ****     while(cmdIndx < I2C_LCD_1_NUM_COMMANDS)
 545:.\Generated_Source\PSoC4/I2C_LCD_1.c ****     {   
 546:.\Generated_Source\PSoC4/I2C_LCD_1.c ****         if (cmdId == I2C_LCD_1_cmdPatt[cmdIndx][I2C_LCD_1_COMMAND_BYTE_INDEX])
 547:.\Generated_Source\PSoC4/I2C_LCD_1.c ****         {
 548:.\Generated_Source\PSoC4/I2C_LCD_1.c ****              /* Write control pattern for specific command */
 549:.\Generated_Source\PSoC4/I2C_LCD_1.c ****             I2C_LCD_1_WrCntrlPatt(cmdIndx);
 550:.\Generated_Source\PSoC4/I2C_LCD_1.c **** 
 551:.\Generated_Source\PSoC4/I2C_LCD_1.c ****             for(i = 0u; i < dataLength; i++)
 552:.\Generated_Source\PSoC4/I2C_LCD_1.c ****             {
 553:.\Generated_Source\PSoC4/I2C_LCD_1.c ****                 /* Get next byte from array of data */
 554:.\Generated_Source\PSoC4/I2C_LCD_1.c ****                 ch = cmdData[i];
 555:.\Generated_Source\PSoC4/I2C_LCD_1.c **** 
 556:.\Generated_Source\PSoC4/I2C_LCD_1.c ****                 /* Add current byte to buffer */
 557:.\Generated_Source\PSoC4/I2C_LCD_1.c ****                 I2C_LCD_1_WrDataToBuff((uint8) ch);
 558:.\Generated_Source\PSoC4/I2C_LCD_1.c ****             }
 559:.\Generated_Source\PSoC4/I2C_LCD_1.c **** 
 560:.\Generated_Source\PSoC4/I2C_LCD_1.c ****             /* Send data to LCD and wait when transaction completes */
 561:.\Generated_Source\PSoC4/I2C_LCD_1.c ****             I2C_LCD_1_SendSequence();
 562:.\Generated_Source\PSoC4/I2C_LCD_1.c ****             /* The command index was found - break while() loop */
 563:.\Generated_Source\PSoC4/I2C_LCD_1.c ****             break;
 564:.\Generated_Source\PSoC4/I2C_LCD_1.c ****         }
 565:.\Generated_Source\PSoC4/I2C_LCD_1.c ****         /* Increment command pattern index */
 566:.\Generated_Source\PSoC4/I2C_LCD_1.c ****         cmdIndx++;
 567:.\Generated_Source\PSoC4/I2C_LCD_1.c ****     } 
 568:.\Generated_Source\PSoC4/I2C_LCD_1.c **** }
 569:.\Generated_Source\PSoC4/I2C_LCD_1.c **** 
 570:.\Generated_Source\PSoC4/I2C_LCD_1.c **** 
 571:.\Generated_Source\PSoC4/I2C_LCD_1.c **** /*******************************************************************************
 572:.\Generated_Source\PSoC4/I2C_LCD_1.c **** * Function Name: I2C_LCD_1_HandleOneByteCommand
 573:.\Generated_Source\PSoC4/I2C_LCD_1.c **** ********************************************************************************
 574:.\Generated_Source\PSoC4/I2C_LCD_1.c **** *
 575:.\Generated_Source\PSoC4/I2C_LCD_1.c **** * Summary:
 576:.\Generated_Source\PSoC4/I2C_LCD_1.c **** *  This command adds a support of sending custom commands with 1 byte parameter.
 577:.\Generated_Source\PSoC4/I2C_LCD_1.c **** *
 578:.\Generated_Source\PSoC4/I2C_LCD_1.c **** * Parameters:
 579:.\Generated_Source\PSoC4/I2C_LCD_1.c **** *  uint8 cmdId: Command code.
 580:.\Generated_Source\PSoC4/I2C_LCD_1.c **** *  uint8 cmdByte: One byte of data to be send to I2C LCD.
 581:.\Generated_Source\PSoC4/I2C_LCD_1.c **** *
 582:.\Generated_Source\PSoC4/I2C_LCD_1.c **** * Return:
 583:.\Generated_Source\PSoC4/I2C_LCD_1.c **** *  None
 584:.\Generated_Source\PSoC4/I2C_LCD_1.c **** *
 585:.\Generated_Source\PSoC4/I2C_LCD_1.c **** * Reentrant:
 586:.\Generated_Source\PSoC4/I2C_LCD_1.c **** *  No
 587:.\Generated_Source\PSoC4/I2C_LCD_1.c **** *
 588:.\Generated_Source\PSoC4/I2C_LCD_1.c **** *******************************************************************************/
 589:.\Generated_Source\PSoC4/I2C_LCD_1.c **** void I2C_LCD_1_HandleOneByteCommand(uint8 cmdId, uint8 cmdByte)
 590:.\Generated_Source\PSoC4/I2C_LCD_1.c ****                                                         
 591:.\Generated_Source\PSoC4/I2C_LCD_1.c **** {
 592:.\Generated_Source\PSoC4/I2C_LCD_1.c ****     uint8 oneByteArray[I2C_LCD_1_ONE_BYTE_LEN];
 593:.\Generated_Source\PSoC4/I2C_LCD_1.c ****     
ARM GAS  C:\Users\JEPPES~1\AppData\Local\Temp\cc97M3eW.s 			page 14


 594:.\Generated_Source\PSoC4/I2C_LCD_1.c ****     oneByteArray[0u] = cmdByte;
 595:.\Generated_Source\PSoC4/I2C_LCD_1.c ****     
 596:.\Generated_Source\PSoC4/I2C_LCD_1.c ****     I2C_LCD_1_HandleCustomCommand(cmdId, I2C_LCD_1_ONE_BYTE_LEN, oneByteArray);
 597:.\Generated_Source\PSoC4/I2C_LCD_1.c **** }
 598:.\Generated_Source\PSoC4/I2C_LCD_1.c **** 
 599:.\Generated_Source\PSoC4/I2C_LCD_1.c **** 
 600:.\Generated_Source\PSoC4/I2C_LCD_1.c **** /*******************************************************************************
 601:.\Generated_Source\PSoC4/I2C_LCD_1.c **** * Function Name: I2C_LCD_1_PrintString
 602:.\Generated_Source\PSoC4/I2C_LCD_1.c **** ********************************************************************************
 603:.\Generated_Source\PSoC4/I2C_LCD_1.c **** *
 604:.\Generated_Source\PSoC4/I2C_LCD_1.c **** * Summary:
 605:.\Generated_Source\PSoC4/I2C_LCD_1.c **** *  Write a null-terminated string of characters to the screen beginning at the
 606:.\Generated_Source\PSoC4/I2C_LCD_1.c **** *  current cursor location.
 607:.\Generated_Source\PSoC4/I2C_LCD_1.c **** *
 608:.\Generated_Source\PSoC4/I2C_LCD_1.c **** * Parameters:
 609:.\Generated_Source\PSoC4/I2C_LCD_1.c **** *  string:  Null-terminated array of ASCII characters to be displayed on the LCD
 610:.\Generated_Source\PSoC4/I2C_LCD_1.c **** *           module's screen.
 611:.\Generated_Source\PSoC4/I2C_LCD_1.c **** *
 612:.\Generated_Source\PSoC4/I2C_LCD_1.c **** * Return:
 613:.\Generated_Source\PSoC4/I2C_LCD_1.c **** *  None
 614:.\Generated_Source\PSoC4/I2C_LCD_1.c **** *
 615:.\Generated_Source\PSoC4/I2C_LCD_1.c **** * Reentrant:
 616:.\Generated_Source\PSoC4/I2C_LCD_1.c **** *  No
 617:.\Generated_Source\PSoC4/I2C_LCD_1.c **** *
 618:.\Generated_Source\PSoC4/I2C_LCD_1.c **** *******************************************************************************/
 619:.\Generated_Source\PSoC4/I2C_LCD_1.c **** void I2C_LCD_1_PrintString(char8 const string[]) 
 620:.\Generated_Source\PSoC4/I2C_LCD_1.c **** {
 621:.\Generated_Source\PSoC4/I2C_LCD_1.c ****     uint8 chIdx = 1u;
 622:.\Generated_Source\PSoC4/I2C_LCD_1.c ****     char8 current = *string;
 623:.\Generated_Source\PSoC4/I2C_LCD_1.c **** 
 624:.\Generated_Source\PSoC4/I2C_LCD_1.c ****     /* Send required control byte value to address data register */
 625:.\Generated_Source\PSoC4/I2C_LCD_1.c ****     I2C_LCD_1_WrCntrlPatt(I2C_LCD_1_WRITE_DATA_IDX);
 626:.\Generated_Source\PSoC4/I2C_LCD_1.c **** 
 627:.\Generated_Source\PSoC4/I2C_LCD_1.c ****     /* Until null is reached, put next character into buffer */
 628:.\Generated_Source\PSoC4/I2C_LCD_1.c ****     while((char8) '\0' != current)
 629:.\Generated_Source\PSoC4/I2C_LCD_1.c ****     {
 630:.\Generated_Source\PSoC4/I2C_LCD_1.c ****         /* Add current byte to buffer */
 631:.\Generated_Source\PSoC4/I2C_LCD_1.c ****         #if (I2C_LCD_1_COMMAND_FORMAT == I2C_LCD_1_NXP_PCF2119X)
 632:.\Generated_Source\PSoC4/I2C_LCD_1.c ****             /* In case of NXP PCF2119x, LCD modules use character set "S"
 633:.\Generated_Source\PSoC4/I2C_LCD_1.c ****             * (see LCD's module datasheet) that has English letters located in
 634:.\Generated_Source\PSoC4/I2C_LCD_1.c ****             * "extended" area (ASCII code > 128) so it is required to handle
 635:.\Generated_Source\PSoC4/I2C_LCD_1.c ****             * that. But the first eight generated character are exceptions.
 636:.\Generated_Source\PSoC4/I2C_LCD_1.c ****             */
 637:.\Generated_Source\PSoC4/I2C_LCD_1.c ****             if(((char8)(I2C_LCD_1_CUSTOM_CHAR_NUM)) > current)
 638:.\Generated_Source\PSoC4/I2C_LCD_1.c ****             {
 639:.\Generated_Source\PSoC4/I2C_LCD_1.c ****                 I2C_LCD_1_WrDataToBuff((uint8) current);
 640:.\Generated_Source\PSoC4/I2C_LCD_1.c ****             }
 641:.\Generated_Source\PSoC4/I2C_LCD_1.c ****             else
 642:.\Generated_Source\PSoC4/I2C_LCD_1.c ****             {
 643:.\Generated_Source\PSoC4/I2C_LCD_1.c ****                 I2C_LCD_1_WrDataToBuff(((uint8) current) ^ I2C_LCD_1_CHARACTER_SET_S_MASK);
 644:.\Generated_Source\PSoC4/I2C_LCD_1.c ****             }
 645:.\Generated_Source\PSoC4/I2C_LCD_1.c ****         #else
 646:.\Generated_Source\PSoC4/I2C_LCD_1.c ****             I2C_LCD_1_WrDataToBuff((uint8) current);
 647:.\Generated_Source\PSoC4/I2C_LCD_1.c ****         #endif /* ((I2C_LCD_1_COMMAND_FORMAT == I2C_LCD_1_NXP_PCF2119X) && \
 648:.\Generated_Source\PSoC4/I2C_LCD_1.c ****                * (I2C_LCD_1_CUSTOM_CHAR_SET != I2C_LCD_1_NONE))
 649:.\Generated_Source\PSoC4/I2C_LCD_1.c ****                */
 650:.\Generated_Source\PSoC4/I2C_LCD_1.c **** 
ARM GAS  C:\Users\JEPPES~1\AppData\Local\Temp\cc97M3eW.s 			page 15


 651:.\Generated_Source\PSoC4/I2C_LCD_1.c ****         /* Get next byte from string */
 652:.\Generated_Source\PSoC4/I2C_LCD_1.c ****         current = string[chIdx];
 653:.\Generated_Source\PSoC4/I2C_LCD_1.c ****         chIdx++;
 654:.\Generated_Source\PSoC4/I2C_LCD_1.c ****     }
 655:.\Generated_Source\PSoC4/I2C_LCD_1.c **** 
 656:.\Generated_Source\PSoC4/I2C_LCD_1.c ****     /* Send data to LCD and wait when transaction completes */
 657:.\Generated_Source\PSoC4/I2C_LCD_1.c ****     I2C_LCD_1_SendSequence();
 658:.\Generated_Source\PSoC4/I2C_LCD_1.c **** }
 659:.\Generated_Source\PSoC4/I2C_LCD_1.c **** 
 660:.\Generated_Source\PSoC4/I2C_LCD_1.c **** 
 661:.\Generated_Source\PSoC4/I2C_LCD_1.c **** /*******************************************************************************
 662:.\Generated_Source\PSoC4/I2C_LCD_1.c **** *  Function Name: I2C_LCD_1_PutChar
 663:.\Generated_Source\PSoC4/I2C_LCD_1.c **** ********************************************************************************
 664:.\Generated_Source\PSoC4/I2C_LCD_1.c **** *
 665:.\Generated_Source\PSoC4/I2C_LCD_1.c **** * Summary:
 666:.\Generated_Source\PSoC4/I2C_LCD_1.c **** *  Writes an individual character to the screen at the current cursor location.
 667:.\Generated_Source\PSoC4/I2C_LCD_1.c **** *  Used to display custom characters through their named values.
 668:.\Generated_Source\PSoC4/I2C_LCD_1.c **** *  (I2C_LCD_CUSTOM_0 through I2C_LCD_CUSTOM_7).
 669:.\Generated_Source\PSoC4/I2C_LCD_1.c **** *
 670:.\Generated_Source\PSoC4/I2C_LCD_1.c **** * Parameters:
 671:.\Generated_Source\PSoC4/I2C_LCD_1.c **** *  character:  An ASCII character to be displayed on the LCD module's screen.
 672:.\Generated_Source\PSoC4/I2C_LCD_1.c **** *
 673:.\Generated_Source\PSoC4/I2C_LCD_1.c **** * Return:
 674:.\Generated_Source\PSoC4/I2C_LCD_1.c **** *  None
 675:.\Generated_Source\PSoC4/I2C_LCD_1.c **** *
 676:.\Generated_Source\PSoC4/I2C_LCD_1.c **** * Reentrant:
 677:.\Generated_Source\PSoC4/I2C_LCD_1.c **** *  No
 678:.\Generated_Source\PSoC4/I2C_LCD_1.c **** *
 679:.\Generated_Source\PSoC4/I2C_LCD_1.c **** *******************************************************************************/
 680:.\Generated_Source\PSoC4/I2C_LCD_1.c **** void I2C_LCD_1_PutChar(char8 character) 
 681:.\Generated_Source\PSoC4/I2C_LCD_1.c **** {
 682:.\Generated_Source\PSoC4/I2C_LCD_1.c ****     /* Send one byte of data with I2C_LCD_WriteData() */
 683:.\Generated_Source\PSoC4/I2C_LCD_1.c ****     #if (I2C_LCD_1_COMMAND_FORMAT == I2C_LCD_1_NXP_PCF2119X)
 684:.\Generated_Source\PSoC4/I2C_LCD_1.c ****         /* In case of NXP PCF2119x, the LCD modules use character set "S"
 685:.\Generated_Source\PSoC4/I2C_LCD_1.c ****         * (see LCD's module datasheet) that has English letters located in
 686:.\Generated_Source\PSoC4/I2C_LCD_1.c ****         * "extended" area (ASCII code > 128) so it is required to handle
 687:.\Generated_Source\PSoC4/I2C_LCD_1.c ****         * that. But the first eight generated character are exceptions.
 688:.\Generated_Source\PSoC4/I2C_LCD_1.c ****         */
 689:.\Generated_Source\PSoC4/I2C_LCD_1.c ****         if(((char8) (I2C_LCD_1_CUSTOM_CHAR_NUM)) >  character)
 690:.\Generated_Source\PSoC4/I2C_LCD_1.c ****         {
 691:.\Generated_Source\PSoC4/I2C_LCD_1.c ****             I2C_LCD_1_WriteData((uint8) character);
 692:.\Generated_Source\PSoC4/I2C_LCD_1.c ****         }
 693:.\Generated_Source\PSoC4/I2C_LCD_1.c ****         else
 694:.\Generated_Source\PSoC4/I2C_LCD_1.c ****         {
 695:.\Generated_Source\PSoC4/I2C_LCD_1.c ****             I2C_LCD_1_WriteData(((uint8) character) ^ I2C_LCD_1_CHARACTER_SET_S_MASK);
 696:.\Generated_Source\PSoC4/I2C_LCD_1.c ****         }
 697:.\Generated_Source\PSoC4/I2C_LCD_1.c ****     #else
 698:.\Generated_Source\PSoC4/I2C_LCD_1.c ****         I2C_LCD_1_WriteData((uint8) character);
 699:.\Generated_Source\PSoC4/I2C_LCD_1.c ****     #endif /* (I2C_LCD_1_COMMAND_FORMAT == I2C_LCD_1_NXP_PCF2119X) */
 700:.\Generated_Source\PSoC4/I2C_LCD_1.c **** }
 701:.\Generated_Source\PSoC4/I2C_LCD_1.c **** 
 702:.\Generated_Source\PSoC4/I2C_LCD_1.c **** 
 703:.\Generated_Source\PSoC4/I2C_LCD_1.c **** /*******************************************************************************
 704:.\Generated_Source\PSoC4/I2C_LCD_1.c **** *  Function Name: I2C_LCD_1_PrintInt8
 705:.\Generated_Source\PSoC4/I2C_LCD_1.c **** ********************************************************************************
 706:.\Generated_Source\PSoC4/I2C_LCD_1.c **** *
 707:.\Generated_Source\PSoC4/I2C_LCD_1.c **** * Summary:
ARM GAS  C:\Users\JEPPES~1\AppData\Local\Temp\cc97M3eW.s 			page 16


 708:.\Generated_Source\PSoC4/I2C_LCD_1.c **** *  Print a byte as two ASCII characters.
 709:.\Generated_Source\PSoC4/I2C_LCD_1.c **** *
 710:.\Generated_Source\PSoC4/I2C_LCD_1.c **** * Parameters:
 711:.\Generated_Source\PSoC4/I2C_LCD_1.c **** *  value: The byte to be printed out as ASCII characters.
 712:.\Generated_Source\PSoC4/I2C_LCD_1.c **** *
 713:.\Generated_Source\PSoC4/I2C_LCD_1.c **** * Return:
 714:.\Generated_Source\PSoC4/I2C_LCD_1.c **** *  None
 715:.\Generated_Source\PSoC4/I2C_LCD_1.c **** *
 716:.\Generated_Source\PSoC4/I2C_LCD_1.c **** * Reentrant:
 717:.\Generated_Source\PSoC4/I2C_LCD_1.c **** *  No
 718:.\Generated_Source\PSoC4/I2C_LCD_1.c **** *
 719:.\Generated_Source\PSoC4/I2C_LCD_1.c **** *******************************************************************************/
 720:.\Generated_Source\PSoC4/I2C_LCD_1.c **** void I2C_LCD_1_PrintInt8(uint8 value) 
 721:.\Generated_Source\PSoC4/I2C_LCD_1.c **** {
 722:.\Generated_Source\PSoC4/I2C_LCD_1.c ****     static char8 const CYCODE I2C_LCD_1_hex[16u] = "0123456789ABCDEF";
 723:.\Generated_Source\PSoC4/I2C_LCD_1.c **** 
 724:.\Generated_Source\PSoC4/I2C_LCD_1.c ****     /* Send required control byte value to address data register */
 725:.\Generated_Source\PSoC4/I2C_LCD_1.c ****     I2C_LCD_1_WrCntrlPatt(I2C_LCD_1_WRITE_DATA_IDX);
 726:.\Generated_Source\PSoC4/I2C_LCD_1.c **** 
 727:.\Generated_Source\PSoC4/I2C_LCD_1.c ****     /* Add current byte to buffer */
 728:.\Generated_Source\PSoC4/I2C_LCD_1.c ****     #if (I2C_LCD_1_COMMAND_FORMAT == I2C_LCD_1_NXP_PCF2119X)
 729:.\Generated_Source\PSoC4/I2C_LCD_1.c ****         /* In case of NXP PCF2119x, LCD modules use character set "S"
 730:.\Generated_Source\PSoC4/I2C_LCD_1.c ****         * (see LCD's module datasheet) that has English letters located in
 731:.\Generated_Source\PSoC4/I2C_LCD_1.c ****         * "extended" area (ASCII code > 128) so it is required to handle
 732:.\Generated_Source\PSoC4/I2C_LCD_1.c ****         * that.
 733:.\Generated_Source\PSoC4/I2C_LCD_1.c ****         */
 734:.\Generated_Source\PSoC4/I2C_LCD_1.c ****         I2C_LCD_1_WrDataToBuff(((uint8) I2C_LCD_1_hex[value >> I2C_LCD_1_BYTE_UPPER_NIBBLE_SHIFT])
 735:.\Generated_Source\PSoC4/I2C_LCD_1.c ****                                                ^ I2C_LCD_1_CHARACTER_SET_S_MASK );
 736:.\Generated_Source\PSoC4/I2C_LCD_1.c ****         I2C_LCD_1_WrDataToBuff(((uint8) I2C_LCD_1_hex[value & I2C_LCD_1_BYTE_LOWER_NIBBLE_MASK]) ^
 737:.\Generated_Source\PSoC4/I2C_LCD_1.c ****                                                I2C_LCD_1_CHARACTER_SET_S_MASK);
 738:.\Generated_Source\PSoC4/I2C_LCD_1.c ****     #else
 739:.\Generated_Source\PSoC4/I2C_LCD_1.c ****         I2C_LCD_1_WrDataToBuff((uint8) I2C_LCD_1_hex[value >> I2C_LCD_1_BYTE_UPPER_NIBBLE_SHIFT]);
 740:.\Generated_Source\PSoC4/I2C_LCD_1.c ****         I2C_LCD_1_WrDataToBuff((uint8) I2C_LCD_1_hex[value & I2C_LCD_1_BYTE_LOWER_NIBBLE_MASK]);
 741:.\Generated_Source\PSoC4/I2C_LCD_1.c ****     #endif /* (I2C_LCD_1_COMMAND_FORMAT == I2C_LCD_1_NXP_PCF2119X) */
 742:.\Generated_Source\PSoC4/I2C_LCD_1.c **** 
 743:.\Generated_Source\PSoC4/I2C_LCD_1.c ****     /* Send data to LCD and wait when transaction complete */
 744:.\Generated_Source\PSoC4/I2C_LCD_1.c ****     I2C_LCD_1_SendSequence();
 745:.\Generated_Source\PSoC4/I2C_LCD_1.c **** }
 746:.\Generated_Source\PSoC4/I2C_LCD_1.c **** 
 747:.\Generated_Source\PSoC4/I2C_LCD_1.c **** 
 748:.\Generated_Source\PSoC4/I2C_LCD_1.c **** /*******************************************************************************
 749:.\Generated_Source\PSoC4/I2C_LCD_1.c **** *  Function Name: I2C_LCD_1_PrintInt16
 750:.\Generated_Source\PSoC4/I2C_LCD_1.c **** ********************************************************************************
 751:.\Generated_Source\PSoC4/I2C_LCD_1.c **** *
 752:.\Generated_Source\PSoC4/I2C_LCD_1.c **** * Summary:
 753:.\Generated_Source\PSoC4/I2C_LCD_1.c **** *  Print a uint16 as four ASCII characters.
 754:.\Generated_Source\PSoC4/I2C_LCD_1.c **** *
 755:.\Generated_Source\PSoC4/I2C_LCD_1.c **** * Parameters:
 756:.\Generated_Source\PSoC4/I2C_LCD_1.c **** *  value:   The uint16 to be printed out as ASCII characters.
 757:.\Generated_Source\PSoC4/I2C_LCD_1.c **** *
 758:.\Generated_Source\PSoC4/I2C_LCD_1.c **** * Return:
 759:.\Generated_Source\PSoC4/I2C_LCD_1.c **** *  None
 760:.\Generated_Source\PSoC4/I2C_LCD_1.c **** *
 761:.\Generated_Source\PSoC4/I2C_LCD_1.c **** * Reentrant:
 762:.\Generated_Source\PSoC4/I2C_LCD_1.c **** *  No
 763:.\Generated_Source\PSoC4/I2C_LCD_1.c **** *
 764:.\Generated_Source\PSoC4/I2C_LCD_1.c **** *******************************************************************************/
ARM GAS  C:\Users\JEPPES~1\AppData\Local\Temp\cc97M3eW.s 			page 17


 765:.\Generated_Source\PSoC4/I2C_LCD_1.c **** void I2C_LCD_1_PrintInt16(uint16 value) 
 766:.\Generated_Source\PSoC4/I2C_LCD_1.c **** {
 767:.\Generated_Source\PSoC4/I2C_LCD_1.c ****     I2C_LCD_1_PrintInt8((uint8)(value >> I2C_LCD_1_U16_UPPER_BYTE_SHIFT));
 768:.\Generated_Source\PSoC4/I2C_LCD_1.c ****     I2C_LCD_1_PrintInt8((uint8)(value & I2C_LCD_1_U16_LOWER_BYTE_MASK));
 769:.\Generated_Source\PSoC4/I2C_LCD_1.c **** }
 770:.\Generated_Source\PSoC4/I2C_LCD_1.c **** 
 771:.\Generated_Source\PSoC4/I2C_LCD_1.c **** 
 772:.\Generated_Source\PSoC4/I2C_LCD_1.c **** /*******************************************************************************
 773:.\Generated_Source\PSoC4/I2C_LCD_1.c **** *  Function Name: I2C_LCD_1_PrintNumber
 774:.\Generated_Source\PSoC4/I2C_LCD_1.c **** ********************************************************************************
 775:.\Generated_Source\PSoC4/I2C_LCD_1.c **** *
 776:.\Generated_Source\PSoC4/I2C_LCD_1.c **** * Summary:
 777:.\Generated_Source\PSoC4/I2C_LCD_1.c **** *  Print a uint16 value as a left-justified decimal value.
 778:.\Generated_Source\PSoC4/I2C_LCD_1.c **** *
 779:.\Generated_Source\PSoC4/I2C_LCD_1.c **** * Parameters:
 780:.\Generated_Source\PSoC4/I2C_LCD_1.c **** *  value:  The byte to be printed out as ASCII characters.
 781:.\Generated_Source\PSoC4/I2C_LCD_1.c **** *
 782:.\Generated_Source\PSoC4/I2C_LCD_1.c **** * Return:
 783:.\Generated_Source\PSoC4/I2C_LCD_1.c **** *  None
 784:.\Generated_Source\PSoC4/I2C_LCD_1.c **** *
 785:.\Generated_Source\PSoC4/I2C_LCD_1.c **** * Reentrant:
 786:.\Generated_Source\PSoC4/I2C_LCD_1.c **** *  No
 787:.\Generated_Source\PSoC4/I2C_LCD_1.c **** *
 788:.\Generated_Source\PSoC4/I2C_LCD_1.c **** *******************************************************************************/
 789:.\Generated_Source\PSoC4/I2C_LCD_1.c **** void I2C_LCD_1_PrintNumber(uint16 value) 
 790:.\Generated_Source\PSoC4/I2C_LCD_1.c **** {
 791:.\Generated_Source\PSoC4/I2C_LCD_1.c ****     char8 number[I2C_LCD_1_NUMBER_OF_REMAINDERS];
 792:.\Generated_Source\PSoC4/I2C_LCD_1.c ****     char8 temp[I2C_LCD_1_NUMBER_OF_REMAINDERS];
 793:.\Generated_Source\PSoC4/I2C_LCD_1.c **** 
 794:.\Generated_Source\PSoC4/I2C_LCD_1.c ****     uint8 digIndex = 0u;
 795:.\Generated_Source\PSoC4/I2C_LCD_1.c ****     uint8 numDigits;
 796:.\Generated_Source\PSoC4/I2C_LCD_1.c **** 
 797:.\Generated_Source\PSoC4/I2C_LCD_1.c ****     /* Load these in reverse order */
 798:.\Generated_Source\PSoC4/I2C_LCD_1.c ****     while(value >= I2C_LCD_1_TEN)
 799:.\Generated_Source\PSoC4/I2C_LCD_1.c ****     {
 800:.\Generated_Source\PSoC4/I2C_LCD_1.c ****         temp[digIndex] = (value % I2C_LCD_1_TEN) + '0';
 801:.\Generated_Source\PSoC4/I2C_LCD_1.c ****         value /= I2C_LCD_1_TEN;
 802:.\Generated_Source\PSoC4/I2C_LCD_1.c ****         digIndex++;
 803:.\Generated_Source\PSoC4/I2C_LCD_1.c ****     }
 804:.\Generated_Source\PSoC4/I2C_LCD_1.c **** 
 805:.\Generated_Source\PSoC4/I2C_LCD_1.c ****     temp[digIndex] = (value % I2C_LCD_1_TEN) + '0';
 806:.\Generated_Source\PSoC4/I2C_LCD_1.c ****     numDigits = digIndex;
 807:.\Generated_Source\PSoC4/I2C_LCD_1.c **** 
 808:.\Generated_Source\PSoC4/I2C_LCD_1.c ****     /* While index is greater than or equal to zero copy number
 809:.\Generated_Source\PSoC4/I2C_LCD_1.c ****     * from temporary array to number[].
 810:.\Generated_Source\PSoC4/I2C_LCD_1.c ****     */
 811:.\Generated_Source\PSoC4/I2C_LCD_1.c ****     while (digIndex != 0u)
 812:.\Generated_Source\PSoC4/I2C_LCD_1.c ****     {
 813:.\Generated_Source\PSoC4/I2C_LCD_1.c ****         number[numDigits - digIndex] = temp[digIndex];
 814:.\Generated_Source\PSoC4/I2C_LCD_1.c ****         digIndex--;
 815:.\Generated_Source\PSoC4/I2C_LCD_1.c ****     }
 816:.\Generated_Source\PSoC4/I2C_LCD_1.c **** 
 817:.\Generated_Source\PSoC4/I2C_LCD_1.c ****     /* Copy last digit */
 818:.\Generated_Source\PSoC4/I2C_LCD_1.c ****     number[numDigits] = temp[0u];
 819:.\Generated_Source\PSoC4/I2C_LCD_1.c **** 
 820:.\Generated_Source\PSoC4/I2C_LCD_1.c ****     /* Null Termination */
 821:.\Generated_Source\PSoC4/I2C_LCD_1.c ****     number[numDigits + 1u] = (char8) '\0';
ARM GAS  C:\Users\JEPPES~1\AppData\Local\Temp\cc97M3eW.s 			page 18


 822:.\Generated_Source\PSoC4/I2C_LCD_1.c **** 
 823:.\Generated_Source\PSoC4/I2C_LCD_1.c ****     /* Print out number */
 824:.\Generated_Source\PSoC4/I2C_LCD_1.c ****     I2C_LCD_1_PrintString(&number[0u]);
 825:.\Generated_Source\PSoC4/I2C_LCD_1.c **** }
 826:.\Generated_Source\PSoC4/I2C_LCD_1.c **** 
 827:.\Generated_Source\PSoC4/I2C_LCD_1.c **** 
 828:.\Generated_Source\PSoC4/I2C_LCD_1.c **** /*******************************************************************************
 829:.\Generated_Source\PSoC4/I2C_LCD_1.c **** * Function Name: I2C_LCD_1_SetAddr
 830:.\Generated_Source\PSoC4/I2C_LCD_1.c **** ********************************************************************************
 831:.\Generated_Source\PSoC4/I2C_LCD_1.c **** *
 832:.\Generated_Source\PSoC4/I2C_LCD_1.c **** * Summary:
 833:.\Generated_Source\PSoC4/I2C_LCD_1.c **** *  This function allows the user to change the default I2C address of the LCD.
 834:.\Generated_Source\PSoC4/I2C_LCD_1.c **** *  This function is not used for designs with a single LCD. Systems that have 2
 835:.\Generated_Source\PSoC4/I2C_LCD_1.c **** *  or more LCDs on a single I2C bus, use this function to select which LCD to
 836:.\Generated_Source\PSoC4/I2C_LCD_1.c **** *  communicate. A uint8 variable I2C_LCD_1_address, will be will be set
 837:.\Generated_Source\PSoC4/I2C_LCD_1.c **** *  to the "address" parameter and be used for all further communication until
 838:.\Generated_Source\PSoC4/I2C_LCD_1.c **** *  it is changed to a new address.
 839:.\Generated_Source\PSoC4/I2C_LCD_1.c **** *
 840:.\Generated_Source\PSoC4/I2C_LCD_1.c **** * Parameters:
 841:.\Generated_Source\PSoC4/I2C_LCD_1.c **** *  None
 842:.\Generated_Source\PSoC4/I2C_LCD_1.c **** *
 843:.\Generated_Source\PSoC4/I2C_LCD_1.c **** * Return:
 844:.\Generated_Source\PSoC4/I2C_LCD_1.c **** *  None
 845:.\Generated_Source\PSoC4/I2C_LCD_1.c **** *
 846:.\Generated_Source\PSoC4/I2C_LCD_1.c **** * Reentrant:
 847:.\Generated_Source\PSoC4/I2C_LCD_1.c **** *  No
 848:.\Generated_Source\PSoC4/I2C_LCD_1.c **** *
 849:.\Generated_Source\PSoC4/I2C_LCD_1.c **** *******************************************************************************/
 850:.\Generated_Source\PSoC4/I2C_LCD_1.c **** void I2C_LCD_1_SetAddr(uint8 address) 
 851:.\Generated_Source\PSoC4/I2C_LCD_1.c **** {
 852:.\Generated_Source\PSoC4/I2C_LCD_1.c ****     #if(I2C_LCD_1_IS_SCB_MASTER_USED)
 853:.\Generated_Source\PSoC4/I2C_LCD_1.c ****         I2C_LCD_1_address = ((uint32) address >> I2C_LCD_1_ADDRESS_SHIFT);
 854:.\Generated_Source\PSoC4/I2C_LCD_1.c ****     #else
 855:.\Generated_Source\PSoC4/I2C_LCD_1.c ****         I2C_LCD_1_address = ((uint8) address >> I2C_LCD_1_ADDRESS_SHIFT);
 856:.\Generated_Source\PSoC4/I2C_LCD_1.c ****     #endif /* (I2C_LCD_1_IS_SCB_MASTER_USED) */
 857:.\Generated_Source\PSoC4/I2C_LCD_1.c **** }
 858:.\Generated_Source\PSoC4/I2C_LCD_1.c **** 
 859:.\Generated_Source\PSoC4/I2C_LCD_1.c **** 
 860:.\Generated_Source\PSoC4/I2C_LCD_1.c **** #if (I2C_LCD_1_CUSTOM_CHAR_SET != I2C_LCD_1_NONE)
 861:.\Generated_Source\PSoC4/I2C_LCD_1.c **** 
 862:.\Generated_Source\PSoC4/I2C_LCD_1.c ****     /*******************************************************************************
 863:.\Generated_Source\PSoC4/I2C_LCD_1.c ****     * Function Name: I2C_LCD_1_LoadCustomFonts
 864:.\Generated_Source\PSoC4/I2C_LCD_1.c ****     ********************************************************************************
 865:.\Generated_Source\PSoC4/I2C_LCD_1.c ****     *
 866:.\Generated_Source\PSoC4/I2C_LCD_1.c ****     * Summary:
 867:.\Generated_Source\PSoC4/I2C_LCD_1.c ****     *  Loads 8 custom font characters into the LCD Module for use.  Cannot use
 868:.\Generated_Source\PSoC4/I2C_LCD_1.c ****     *  characters from two different font sets at once, but font sets can be
 869:.\Generated_Source\PSoC4/I2C_LCD_1.c ****     *  switched out during runtime.
 870:.\Generated_Source\PSoC4/I2C_LCD_1.c ****     *
 871:.\Generated_Source\PSoC4/I2C_LCD_1.c ****     * Parameters:
 872:.\Generated_Source\PSoC4/I2C_LCD_1.c ****     *  customData:  The pointer to a constant array of 64 bytes representing 
 873:.\Generated_Source\PSoC4/I2C_LCD_1.c ****     *               8 custom font characters.
 874:.\Generated_Source\PSoC4/I2C_LCD_1.c ****     * Return:
 875:.\Generated_Source\PSoC4/I2C_LCD_1.c ****     *  None
 876:.\Generated_Source\PSoC4/I2C_LCD_1.c ****     *
 877:.\Generated_Source\PSoC4/I2C_LCD_1.c ****     * Reentrant:
 878:.\Generated_Source\PSoC4/I2C_LCD_1.c ****     *  No
ARM GAS  C:\Users\JEPPES~1\AppData\Local\Temp\cc97M3eW.s 			page 19


 879:.\Generated_Source\PSoC4/I2C_LCD_1.c ****     *
 880:.\Generated_Source\PSoC4/I2C_LCD_1.c ****     * Theory:
 881:.\Generated_Source\PSoC4/I2C_LCD_1.c ****     *  Prior to using this function user need to import the pointer to custom
 882:.\Generated_Source\PSoC4/I2C_LCD_1.c ****     *  font array to your project by writing the following in the source code file
 883:.\Generated_Source\PSoC4/I2C_LCD_1.c ****     *  where custom font will be used:
 884:.\Generated_Source\PSoC4/I2C_LCD_1.c ****     *       extern uint8 const CYCODE LCD_Char_customFonts[];
 885:.\Generated_Source\PSoC4/I2C_LCD_1.c ****     *  This function is not automatically called by the Start() routine and must be
 886:.\Generated_Source\PSoC4/I2C_LCD_1.c ****     *  called manually by the user.
 887:.\Generated_Source\PSoC4/I2C_LCD_1.c ****     *
 888:.\Generated_Source\PSoC4/I2C_LCD_1.c ****     *******************************************************************************/
 889:.\Generated_Source\PSoC4/I2C_LCD_1.c ****     void I2C_LCD_1_LoadCustomFonts(uint8 const customData[])
 890:.\Generated_Source\PSoC4/I2C_LCD_1.c ****                                                             
 891:.\Generated_Source\PSoC4/I2C_LCD_1.c ****     {
 892:.\Generated_Source\PSoC4/I2C_LCD_1.c ****         uint8 i;
 893:.\Generated_Source\PSoC4/I2C_LCD_1.c **** 
 894:.\Generated_Source\PSoC4/I2C_LCD_1.c ****         #if (I2C_LCD_1_COMMAND_FORMAT != I2C_LCD_1_NXP_PCF2119X)
 895:.\Generated_Source\PSoC4/I2C_LCD_1.c ****             uint8 addrOffset = 0u;
 896:.\Generated_Source\PSoC4/I2C_LCD_1.c ****             uint8 count = 0u;
 897:.\Generated_Source\PSoC4/I2C_LCD_1.c ****         #endif /* (I2C_LCD_1_COMMAND_FORMAT != I2C_LCD_1_NXP_PCF2119X) */
 898:.\Generated_Source\PSoC4/I2C_LCD_1.c **** 
 899:.\Generated_Source\PSoC4/I2C_LCD_1.c ****         #if (I2C_LCD_1_COMMAND_FORMAT == I2C_LCD_1_NXP_PCF2119X)
 900:.\Generated_Source\PSoC4/I2C_LCD_1.c ****             /* Set starting address in LCD Module as it is location of CGRAM */
 901:.\Generated_Source\PSoC4/I2C_LCD_1.c ****             I2C_LCD_1_WriteControl(I2C_LCD_1_CGRAM_0);
 902:.\Generated_Source\PSoC4/I2C_LCD_1.c **** 
 903:.\Generated_Source\PSoC4/I2C_LCD_1.c ****             /* Set Control pattern for data writing */
 904:.\Generated_Source\PSoC4/I2C_LCD_1.c ****             I2C_LCD_1_WrCntrlPatt(I2C_LCD_1_WRITE_DATA_IDX);
 905:.\Generated_Source\PSoC4/I2C_LCD_1.c **** 
 906:.\Generated_Source\PSoC4/I2C_LCD_1.c ****             /* Load in 64 bytes of CustomChar Data */
 907:.\Generated_Source\PSoC4/I2C_LCD_1.c ****             for(i = 0u; i < I2C_LCD_1_CUSTOM_CHAR_SET_LEN; i++)
 908:.\Generated_Source\PSoC4/I2C_LCD_1.c ****             {
 909:.\Generated_Source\PSoC4/I2C_LCD_1.c ****                 /* Variable 'i' defines character ID (character address) */
 910:.\Generated_Source\PSoC4/I2C_LCD_1.c ****                 I2C_LCD_1_WrDataToBuff(customData[i]);
 911:.\Generated_Source\PSoC4/I2C_LCD_1.c ****             }
 912:.\Generated_Source\PSoC4/I2C_LCD_1.c **** 
 913:.\Generated_Source\PSoC4/I2C_LCD_1.c ****             /* Send data to LCD and wait when transaction completes */
 914:.\Generated_Source\PSoC4/I2C_LCD_1.c ****             I2C_LCD_1_SendSequence();
 915:.\Generated_Source\PSoC4/I2C_LCD_1.c ****             
 916:.\Generated_Source\PSoC4/I2C_LCD_1.c ****             /* Set the LCD modules address register back to the start of the data RAM */
 917:.\Generated_Source\PSoC4/I2C_LCD_1.c ****             I2C_LCD_1_Position(0u ,0u);
 918:.\Generated_Source\PSoC4/I2C_LCD_1.c ****         #else
 919:.\Generated_Source\PSoC4/I2C_LCD_1.c ****             while(addrOffset < I2C_LCD_1_CUSTOM_CHAR_SET_LEN)
 920:.\Generated_Source\PSoC4/I2C_LCD_1.c ****             {
 921:.\Generated_Source\PSoC4/I2C_LCD_1.c ****                 /* Set starting address in LCD Module as it is location of CGRAM. */
 922:.\Generated_Source\PSoC4/I2C_LCD_1.c ****                 I2C_LCD_1_WrCntrlPatt(I2C_LCD_1_CGRAM_0_IDX);
 923:.\Generated_Source\PSoC4/I2C_LCD_1.c ****                 
 924:.\Generated_Source\PSoC4/I2C_LCD_1.c ****                 /* Variable 'i' defines character ID (character address) */
 925:.\Generated_Source\PSoC4/I2C_LCD_1.c ****                 I2C_LCD_1_WrDataToBuff(count);
 926:.\Generated_Source\PSoC4/I2C_LCD_1.c ****                 
 927:.\Generated_Source\PSoC4/I2C_LCD_1.c ****                 /* Increment count (actually means to increment custom character address) */
 928:.\Generated_Source\PSoC4/I2C_LCD_1.c ****                 count++;
 929:.\Generated_Source\PSoC4/I2C_LCD_1.c ****                 
 930:.\Generated_Source\PSoC4/I2C_LCD_1.c ****                 for(i = 0u; i < I2C_LCD_1_CHARACTER_HEIGHT; i++)
 931:.\Generated_Source\PSoC4/I2C_LCD_1.c ****                 {
 932:.\Generated_Source\PSoC4/I2C_LCD_1.c ****                     I2C_LCD_1_WrDataToBuff(customData[addrOffset + i]);
 933:.\Generated_Source\PSoC4/I2C_LCD_1.c ****                 }
 934:.\Generated_Source\PSoC4/I2C_LCD_1.c **** 
 935:.\Generated_Source\PSoC4/I2C_LCD_1.c ****                 /* Send data to LCD and wait when transaction complete */
ARM GAS  C:\Users\JEPPES~1\AppData\Local\Temp\cc97M3eW.s 			page 20


 936:.\Generated_Source\PSoC4/I2C_LCD_1.c ****                 I2C_LCD_1_SendSequence();
 937:.\Generated_Source\PSoC4/I2C_LCD_1.c ****                 
 938:.\Generated_Source\PSoC4/I2C_LCD_1.c ****                 /* Calculate next offset value */
 939:.\Generated_Source\PSoC4/I2C_LCD_1.c ****                 addrOffset += I2C_LCD_1_CHARACTER_HEIGHT;
 940:.\Generated_Source\PSoC4/I2C_LCD_1.c ****             }
 941:.\Generated_Source\PSoC4/I2C_LCD_1.c ****         #endif /* (I2C_LCD_1_COMMAND_FORMAT != I2C_LCD_1_NXP_PCF2119X) */
 942:.\Generated_Source\PSoC4/I2C_LCD_1.c ****     }
 943:.\Generated_Source\PSoC4/I2C_LCD_1.c **** 
 944:.\Generated_Source\PSoC4/I2C_LCD_1.c **** #endif /* I2C_LCD_1_CUSTOM_CHAR_SET == I2C_LCD_1_NONE */
 945:.\Generated_Source\PSoC4/I2C_LCD_1.c **** 
 946:.\Generated_Source\PSoC4/I2C_LCD_1.c **** 
 947:.\Generated_Source\PSoC4/I2C_LCD_1.c **** #if((I2C_LCD_1_CUSTOM_CHAR_SET == I2C_LCD_1_VERTICAL_BG) || \
 948:.\Generated_Source\PSoC4/I2C_LCD_1.c ****                 (I2C_LCD_1_CUSTOM_CHAR_SET == I2C_LCD_1_HORIZONTAL_BG))
 949:.\Generated_Source\PSoC4/I2C_LCD_1.c **** 
 950:.\Generated_Source\PSoC4/I2C_LCD_1.c ****     /*******************************************************************************
 951:.\Generated_Source\PSoC4/I2C_LCD_1.c ****     * Function Name: I2C_LCD_1_DrawHorizontalBG
 952:.\Generated_Source\PSoC4/I2C_LCD_1.c ****     ********************************************************************************
 953:.\Generated_Source\PSoC4/I2C_LCD_1.c ****     *
 954:.\Generated_Source\PSoC4/I2C_LCD_1.c ****     * Summary:
 955:.\Generated_Source\PSoC4/I2C_LCD_1.c ****     *  Draws the horizontal bargraph.
 956:.\Generated_Source\PSoC4/I2C_LCD_1.c ****     *
 957:.\Generated_Source\PSoC4/I2C_LCD_1.c ****     * Parameters:
 958:.\Generated_Source\PSoC4/I2C_LCD_1.c ****     *  row:            The row in which the bar graph starts.
 959:.\Generated_Source\PSoC4/I2C_LCD_1.c ****     *  column:         The column in which the bar graph starts.
 960:.\Generated_Source\PSoC4/I2C_LCD_1.c ****     *  maxCharacters:  The max length of the graph in whole characters.
 961:.\Generated_Source\PSoC4/I2C_LCD_1.c ****     *  value:          The current length or height of the graph in pixels.
 962:.\Generated_Source\PSoC4/I2C_LCD_1.c ****     *
 963:.\Generated_Source\PSoC4/I2C_LCD_1.c ****     * Return:
 964:.\Generated_Source\PSoC4/I2C_LCD_1.c ****     *  None
 965:.\Generated_Source\PSoC4/I2C_LCD_1.c ****     *
 966:.\Generated_Source\PSoC4/I2C_LCD_1.c ****     * Reentrant:
 967:.\Generated_Source\PSoC4/I2C_LCD_1.c ****     *  No
 968:.\Generated_Source\PSoC4/I2C_LCD_1.c ****     *
 969:.\Generated_Source\PSoC4/I2C_LCD_1.c ****     *******************************************************************************/
 970:.\Generated_Source\PSoC4/I2C_LCD_1.c ****     void I2C_LCD_1_DrawHorizontalBG(uint8 row, uint8 column, uint8 maxCharacters, uint8 value) \
 971:.\Generated_Source\PSoC4/I2C_LCD_1.c ****                                                             
 972:.\Generated_Source\PSoC4/I2C_LCD_1.c ****     {
 973:.\Generated_Source\PSoC4/I2C_LCD_1.c ****         /* 8-bit Counter */
 974:.\Generated_Source\PSoC4/I2C_LCD_1.c ****         uint8 count8;
 975:.\Generated_Source\PSoC4/I2C_LCD_1.c ****         uint8 fullChars;
 976:.\Generated_Source\PSoC4/I2C_LCD_1.c ****         uint8 remainingPixels;
 977:.\Generated_Source\PSoC4/I2C_LCD_1.c **** 
 978:.\Generated_Source\PSoC4/I2C_LCD_1.c ****         /* Number of full characters to draw */
 979:.\Generated_Source\PSoC4/I2C_LCD_1.c ****         fullChars = value / I2C_LCD_1_CHARACTER_WIDTH;
 980:.\Generated_Source\PSoC4/I2C_LCD_1.c **** 
 981:.\Generated_Source\PSoC4/I2C_LCD_1.c ****         /* Number of remaining pixels to draw */
 982:.\Generated_Source\PSoC4/I2C_LCD_1.c ****         remainingPixels = value % I2C_LCD_1_CHARACTER_WIDTH;
 983:.\Generated_Source\PSoC4/I2C_LCD_1.c **** 
 984:.\Generated_Source\PSoC4/I2C_LCD_1.c ****         /* Ensure that maximum character limit is followed. */
 985:.\Generated_Source\PSoC4/I2C_LCD_1.c ****         if(fullChars >= maxCharacters)
 986:.\Generated_Source\PSoC4/I2C_LCD_1.c ****         {
 987:.\Generated_Source\PSoC4/I2C_LCD_1.c ****             fullChars = maxCharacters;
 988:.\Generated_Source\PSoC4/I2C_LCD_1.c ****         }
 989:.\Generated_Source\PSoC4/I2C_LCD_1.c **** 
 990:.\Generated_Source\PSoC4/I2C_LCD_1.c ****         /* Put Cursor at start position */
 991:.\Generated_Source\PSoC4/I2C_LCD_1.c ****         I2C_LCD_1_Position(row, column);
 992:.\Generated_Source\PSoC4/I2C_LCD_1.c **** 
ARM GAS  C:\Users\JEPPES~1\AppData\Local\Temp\cc97M3eW.s 			page 21


 993:.\Generated_Source\PSoC4/I2C_LCD_1.c ****         /* Set Control pattern for data writing */
 994:.\Generated_Source\PSoC4/I2C_LCD_1.c ****         I2C_LCD_1_WrCntrlPatt(I2C_LCD_1_WRITE_DATA_IDX);
 995:.\Generated_Source\PSoC4/I2C_LCD_1.c **** 
 996:.\Generated_Source\PSoC4/I2C_LCD_1.c ****         /* Write full characters */
 997:.\Generated_Source\PSoC4/I2C_LCD_1.c ****         for(count8 = 0u; count8 < fullChars; count8++)
 998:.\Generated_Source\PSoC4/I2C_LCD_1.c ****         {
 999:.\Generated_Source\PSoC4/I2C_LCD_1.c ****             I2C_LCD_1_WrDataToBuff(I2C_LCD_1_CUSTOM_5);
1000:.\Generated_Source\PSoC4/I2C_LCD_1.c ****         }
1001:.\Generated_Source\PSoC4/I2C_LCD_1.c **** 
1002:.\Generated_Source\PSoC4/I2C_LCD_1.c ****         if(fullChars < maxCharacters)
1003:.\Generated_Source\PSoC4/I2C_LCD_1.c ****         {
1004:.\Generated_Source\PSoC4/I2C_LCD_1.c ****             /* Write remaining pixels */
1005:.\Generated_Source\PSoC4/I2C_LCD_1.c ****             I2C_LCD_1_WrDataToBuff(remainingPixels);
1006:.\Generated_Source\PSoC4/I2C_LCD_1.c **** 
1007:.\Generated_Source\PSoC4/I2C_LCD_1.c ****             if(fullChars < (maxCharacters - 1u))
1008:.\Generated_Source\PSoC4/I2C_LCD_1.c ****             {
1009:.\Generated_Source\PSoC4/I2C_LCD_1.c ****                 /* Fill with whitespace to end of bar graph */
1010:.\Generated_Source\PSoC4/I2C_LCD_1.c ****                 for(count8 = 0u; count8 < (maxCharacters - fullChars - 1u); count8++)
1011:.\Generated_Source\PSoC4/I2C_LCD_1.c ****                 {
1012:.\Generated_Source\PSoC4/I2C_LCD_1.c ****                     I2C_LCD_1_WrDataToBuff(I2C_LCD_1_CUSTOM_0);
1013:.\Generated_Source\PSoC4/I2C_LCD_1.c ****                 }
1014:.\Generated_Source\PSoC4/I2C_LCD_1.c ****             }
1015:.\Generated_Source\PSoC4/I2C_LCD_1.c ****         }
1016:.\Generated_Source\PSoC4/I2C_LCD_1.c **** 
1017:.\Generated_Source\PSoC4/I2C_LCD_1.c ****         /* Send data to LCD and wait when transaction complete */
1018:.\Generated_Source\PSoC4/I2C_LCD_1.c ****         I2C_LCD_1_SendSequence();
1019:.\Generated_Source\PSoC4/I2C_LCD_1.c ****     }
1020:.\Generated_Source\PSoC4/I2C_LCD_1.c **** 
1021:.\Generated_Source\PSoC4/I2C_LCD_1.c **** 
1022:.\Generated_Source\PSoC4/I2C_LCD_1.c ****     /*******************************************************************************
1023:.\Generated_Source\PSoC4/I2C_LCD_1.c ****     *  Function Name: I2C_LCD_1_DrawVerticalBG
1024:.\Generated_Source\PSoC4/I2C_LCD_1.c ****     ********************************************************************************
1025:.\Generated_Source\PSoC4/I2C_LCD_1.c ****     *
1026:.\Generated_Source\PSoC4/I2C_LCD_1.c ****     * Summary:
1027:.\Generated_Source\PSoC4/I2C_LCD_1.c ****     *  Draws the vertical bargraph.
1028:.\Generated_Source\PSoC4/I2C_LCD_1.c ****     *
1029:.\Generated_Source\PSoC4/I2C_LCD_1.c ****     * Parameters:
1030:.\Generated_Source\PSoC4/I2C_LCD_1.c ****     *  row:            The row in which the bar graph starts.
1031:.\Generated_Source\PSoC4/I2C_LCD_1.c ****     *  column:         The column in which the bar graph starts.
1032:.\Generated_Source\PSoC4/I2C_LCD_1.c ****     *  maxCharacters:  The max height of the graph in whole characters.
1033:.\Generated_Source\PSoC4/I2C_LCD_1.c ****     *  value:          The current length or height of the graph in pixels.
1034:.\Generated_Source\PSoC4/I2C_LCD_1.c ****     *
1035:.\Generated_Source\PSoC4/I2C_LCD_1.c ****     * Return:
1036:.\Generated_Source\PSoC4/I2C_LCD_1.c ****     *  None
1037:.\Generated_Source\PSoC4/I2C_LCD_1.c ****     *
1038:.\Generated_Source\PSoC4/I2C_LCD_1.c ****     * Reentrant:
1039:.\Generated_Source\PSoC4/I2C_LCD_1.c ****     *  No
1040:.\Generated_Source\PSoC4/I2C_LCD_1.c ****     *
1041:.\Generated_Source\PSoC4/I2C_LCD_1.c ****     *******************************************************************************/
1042:.\Generated_Source\PSoC4/I2C_LCD_1.c ****     void I2C_LCD_1_DrawVerticalBG(uint8 row, uint8 column, uint8 maxCharacters, uint8 value)
1043:.\Generated_Source\PSoC4/I2C_LCD_1.c ****                                                             
1044:.\Generated_Source\PSoC4/I2C_LCD_1.c ****     {
1045:.\Generated_Source\PSoC4/I2C_LCD_1.c ****         /* 8-bit Counter */
1046:.\Generated_Source\PSoC4/I2C_LCD_1.c ****         uint8 count8 = 0u;
1047:.\Generated_Source\PSoC4/I2C_LCD_1.c ****         /* Current Row Tracker */
1048:.\Generated_Source\PSoC4/I2C_LCD_1.c ****         int8 currentRow;
1049:.\Generated_Source\PSoC4/I2C_LCD_1.c ****         uint8 fullChars;
ARM GAS  C:\Users\JEPPES~1\AppData\Local\Temp\cc97M3eW.s 			page 22


1050:.\Generated_Source\PSoC4/I2C_LCD_1.c ****         uint8 remainingPixels;
1051:.\Generated_Source\PSoC4/I2C_LCD_1.c **** 
1052:.\Generated_Source\PSoC4/I2C_LCD_1.c ****         /* Number of full characters to draw */
1053:.\Generated_Source\PSoC4/I2C_LCD_1.c ****         fullChars = value / I2C_LCD_1_CHARACTER_HEIGHT;
1054:.\Generated_Source\PSoC4/I2C_LCD_1.c **** 
1055:.\Generated_Source\PSoC4/I2C_LCD_1.c ****         /* Number of remaining pixels to draw */
1056:.\Generated_Source\PSoC4/I2C_LCD_1.c ****         remainingPixels = value % I2C_LCD_1_CHARACTER_HEIGHT;
1057:.\Generated_Source\PSoC4/I2C_LCD_1.c **** 
1058:.\Generated_Source\PSoC4/I2C_LCD_1.c ****         /* Put Cursor at start position */
1059:.\Generated_Source\PSoC4/I2C_LCD_1.c ****         I2C_LCD_1_Position(row, column);
1060:.\Generated_Source\PSoC4/I2C_LCD_1.c **** 
1061:.\Generated_Source\PSoC4/I2C_LCD_1.c ****         /* Make sure the bar graph fits inside the space allotted */
1062:.\Generated_Source\PSoC4/I2C_LCD_1.c ****         if(fullChars >= maxCharacters)
1063:.\Generated_Source\PSoC4/I2C_LCD_1.c ****         {
1064:.\Generated_Source\PSoC4/I2C_LCD_1.c ****             fullChars = maxCharacters;
1065:.\Generated_Source\PSoC4/I2C_LCD_1.c ****         }
1066:.\Generated_Source\PSoC4/I2C_LCD_1.c **** 
1067:.\Generated_Source\PSoC4/I2C_LCD_1.c ****         /*  Write full characters */
1068:.\Generated_Source\PSoC4/I2C_LCD_1.c ****         while(count8 < fullChars)
1069:.\Generated_Source\PSoC4/I2C_LCD_1.c ****         {
1070:.\Generated_Source\PSoC4/I2C_LCD_1.c ****             I2C_LCD_1_WriteData(I2C_LCD_1_CUSTOM_7);
1071:.\Generated_Source\PSoC4/I2C_LCD_1.c **** 
1072:.\Generated_Source\PSoC4/I2C_LCD_1.c ****             count8++;
1073:.\Generated_Source\PSoC4/I2C_LCD_1.c **** 
1074:.\Generated_Source\PSoC4/I2C_LCD_1.c ****             /* Each pass through, move one row higher */
1075:.\Generated_Source\PSoC4/I2C_LCD_1.c ****             if((((int8) row) - ((int8) count8)) >= 0)
1076:.\Generated_Source\PSoC4/I2C_LCD_1.c ****             {
1077:.\Generated_Source\PSoC4/I2C_LCD_1.c ****                 I2C_LCD_1_Position(row - count8, column);
1078:.\Generated_Source\PSoC4/I2C_LCD_1.c ****             }
1079:.\Generated_Source\PSoC4/I2C_LCD_1.c ****             else
1080:.\Generated_Source\PSoC4/I2C_LCD_1.c ****             {
1081:.\Generated_Source\PSoC4/I2C_LCD_1.c ****                 break;
1082:.\Generated_Source\PSoC4/I2C_LCD_1.c ****             }
1083:.\Generated_Source\PSoC4/I2C_LCD_1.c ****         }
1084:.\Generated_Source\PSoC4/I2C_LCD_1.c **** 
1085:.\Generated_Source\PSoC4/I2C_LCD_1.c ****         if(((((int8) row) - ((int8) count8)) >= 0) && (fullChars < maxCharacters))
1086:.\Generated_Source\PSoC4/I2C_LCD_1.c ****         {
1087:.\Generated_Source\PSoC4/I2C_LCD_1.c ****             /* Write remaining pixels */
1088:.\Generated_Source\PSoC4/I2C_LCD_1.c ****             if(remainingPixels == 0u)
1089:.\Generated_Source\PSoC4/I2C_LCD_1.c ****             {
1090:.\Generated_Source\PSoC4/I2C_LCD_1.c ****                 I2C_LCD_1_WriteData((uint8) ' ');
1091:.\Generated_Source\PSoC4/I2C_LCD_1.c ****             }
1092:.\Generated_Source\PSoC4/I2C_LCD_1.c ****             else
1093:.\Generated_Source\PSoC4/I2C_LCD_1.c ****             {
1094:.\Generated_Source\PSoC4/I2C_LCD_1.c ****                 I2C_LCD_1_WriteData(remainingPixels - 1u);
1095:.\Generated_Source\PSoC4/I2C_LCD_1.c ****             }
1096:.\Generated_Source\PSoC4/I2C_LCD_1.c **** 
1097:.\Generated_Source\PSoC4/I2C_LCD_1.c ****             currentRow = ((int8) row) - ((int8) count8) - 1;
1098:.\Generated_Source\PSoC4/I2C_LCD_1.c **** 
1099:.\Generated_Source\PSoC4/I2C_LCD_1.c ****             if(currentRow >= 0)
1100:.\Generated_Source\PSoC4/I2C_LCD_1.c ****             {
1101:.\Generated_Source\PSoC4/I2C_LCD_1.c ****                 /* Move up one row and fill with white space till top of bar graph */
1102:.\Generated_Source\PSoC4/I2C_LCD_1.c ****                 for(count8 = 0u; count8 < (maxCharacters - fullChars - 1u); count8++)
1103:.\Generated_Source\PSoC4/I2C_LCD_1.c ****                 {
1104:.\Generated_Source\PSoC4/I2C_LCD_1.c ****                     I2C_LCD_1_Position((uint8)currentRow, column);
1105:.\Generated_Source\PSoC4/I2C_LCD_1.c ****                     I2C_LCD_1_WriteData((uint8) ' ');
1106:.\Generated_Source\PSoC4/I2C_LCD_1.c ****                     currentRow --;
ARM GAS  C:\Users\JEPPES~1\AppData\Local\Temp\cc97M3eW.s 			page 23


1107:.\Generated_Source\PSoC4/I2C_LCD_1.c ****                 }
1108:.\Generated_Source\PSoC4/I2C_LCD_1.c ****             }
1109:.\Generated_Source\PSoC4/I2C_LCD_1.c ****         }
1110:.\Generated_Source\PSoC4/I2C_LCD_1.c ****     }
1111:.\Generated_Source\PSoC4/I2C_LCD_1.c **** 
1112:.\Generated_Source\PSoC4/I2C_LCD_1.c **** #endif /* ((I2C_LCD_1_CUSTOM_CHAR_SET == I2C_LCD_1_VERTICAL_BG) || \
1113:.\Generated_Source\PSoC4/I2C_LCD_1.c ****                 (I2C_LCD_1_CUSTOM_CHAR_SET == I2C_LCD_1_HORIZONTAL_BG)) */
1114:.\Generated_Source\PSoC4/I2C_LCD_1.c **** 
1115:.\Generated_Source\PSoC4/I2C_LCD_1.c **** 
1116:.\Generated_Source\PSoC4/I2C_LCD_1.c **** #if (I2C_LCD_1_COMMAND_FORMAT == I2C_LCD_1_NXP_PCF2119X)
1117:.\Generated_Source\PSoC4/I2C_LCD_1.c **** 
1118:.\Generated_Source\PSoC4/I2C_LCD_1.c ****     /*******************************************************************************
1119:.\Generated_Source\PSoC4/I2C_LCD_1.c ****     * Function Name: I2C_LCD_1_SendCmd
1120:.\Generated_Source\PSoC4/I2C_LCD_1.c ****     ********************************************************************************
1121:.\Generated_Source\PSoC4/I2C_LCD_1.c ****     *
1122:.\Generated_Source\PSoC4/I2C_LCD_1.c ****     * Summary:
1123:.\Generated_Source\PSoC4/I2C_LCD_1.c ****     *  This function used to send the specific for NXP PCF2119X commands that are 
1124:.\Generated_Source\PSoC4/I2C_LCD_1.c ****     *  used to configure the LCD panel.
1125:.\Generated_Source\PSoC4/I2C_LCD_1.c ****     *
1126:.\Generated_Source\PSoC4/I2C_LCD_1.c ****     * Parameters:
1127:.\Generated_Source\PSoC4/I2C_LCD_1.c ****     *  None
1128:.\Generated_Source\PSoC4/I2C_LCD_1.c ****     *
1129:.\Generated_Source\PSoC4/I2C_LCD_1.c ****     * Return:
1130:.\Generated_Source\PSoC4/I2C_LCD_1.c ****     *  None
1131:.\Generated_Source\PSoC4/I2C_LCD_1.c ****     *
1132:.\Generated_Source\PSoC4/I2C_LCD_1.c ****     *******************************************************************************/
1133:.\Generated_Source\PSoC4/I2C_LCD_1.c ****     static void I2C_LCD_1_SendCmd(uint8 cmd) CYREENTRANT
1134:.\Generated_Source\PSoC4/I2C_LCD_1.c ****     {
 147              		.loc 1 1134 0
 148              		.cfi_startproc
 149              	.LVL7:
 150 0000 08B5     		push	{r3, lr}
 151              		.cfi_def_cfa_offset 8
 152              		.cfi_offset 3, -8
 153              		.cfi_offset 14, -4
1135:.\Generated_Source\PSoC4/I2C_LCD_1.c ****         I2C_LCD_1_buff[0u] = I2C_LCD_1_COMMAND_SEND;
 154              		.loc 1 1135 0
 155 0002 044B     		ldr	r3, .L14
 156 0004 0022     		mov	r2, #0
 157 0006 1A71     		strb	r2, [r3, #4]
1136:.\Generated_Source\PSoC4/I2C_LCD_1.c ****         I2C_LCD_1_buff[1u] = cmd;
 158              		.loc 1 1136 0
 159 0008 5871     		strb	r0, [r3, #5]
1137:.\Generated_Source\PSoC4/I2C_LCD_1.c ****         I2C_LCD_1_buffIndex = I2C_LCD_1_LENGTH_2_BYTES;
 160              		.loc 1 1137 0
 161 000a 0232     		add	r2, r2, #2
 162 000c 1A60     		str	r2, [r3]
1138:.\Generated_Source\PSoC4/I2C_LCD_1.c ****         
1139:.\Generated_Source\PSoC4/I2C_LCD_1.c ****         I2C_LCD_1_SendSequence();
 163              		.loc 1 1139 0
 164 000e FFF7FEFF 		bl	I2C_LCD_1_SendSequence
 165              	.LVL8:
1140:.\Generated_Source\PSoC4/I2C_LCD_1.c ****     }
 166              		.loc 1 1140 0
 167              		@ sp needed
 168 0012 08BD     		pop	{r3, pc}
 169              	.L15:
ARM GAS  C:\Users\JEPPES~1\AppData\Local\Temp\cc97M3eW.s 			page 24


 170              		.align	2
 171              	.L14:
 172 0014 00000000 		.word	.LANCHOR0
 173              		.cfi_endproc
 174              	.LFE18:
 175              		.size	I2C_LCD_1_SendCmd, .-I2C_LCD_1_SendCmd
 176              		.section	.text.I2C_LCD_1_Position,"ax",%progbits
 177              		.align	2
 178              		.global	I2C_LCD_1_Position
 179              		.code	16
 180              		.thumb_func
 181              		.type	I2C_LCD_1_Position, %function
 182              	I2C_LCD_1_Position:
 183              	.LFB4:
 260:.\Generated_Source\PSoC4/I2C_LCD_1.c ****     /* Write command pattern for "Set cursor position" to buffer */
 184              		.loc 1 260 0
 185              		.cfi_startproc
 186              	.LVL9:
 187 0000 38B5     		push	{r3, r4, r5, lr}
 188              		.cfi_def_cfa_offset 16
 189              		.cfi_offset 3, -16
 190              		.cfi_offset 4, -12
 191              		.cfi_offset 5, -8
 192              		.cfi_offset 14, -4
 193 0002 051C     		mov	r5, r0
 194 0004 0C1C     		mov	r4, r1
 262:.\Generated_Source\PSoC4/I2C_LCD_1.c **** 
 195              		.loc 1 262 0
 196 0006 0320     		mov	r0, #3
 197              	.LVL10:
 198 0008 FFF7FEFF 		bl	I2C_LCD_1_WrCntrlPatt
 199              	.LVL11:
 273:.\Generated_Source\PSoC4/I2C_LCD_1.c ****         {
 200              		.loc 1 273 0
 201 000c 012D     		cmp	r5, #1
 202 000e 0CD0     		beq	.L18
 203 0010 002D     		cmp	r5, #0
 204 0012 04D0     		beq	.L19
 205 0014 022D     		cmp	r5, #2
 206 0016 0ED0     		beq	.L20
 207 0018 032D     		cmp	r5, #3
 208 001a 12D0     		beq	.L21
 209 001c 16E0     		b	.L17
 210              	.L19:
 278:.\Generated_Source\PSoC4/I2C_LCD_1.c ****                 #else
 211              		.loc 1 278 0
 212 001e 201C     		mov	r0, r4
 213 0020 8038     		sub	r0, r0, #128
 214 0022 C0B2     		uxtb	r0, r0
 215 0024 FFF7FEFF 		bl	I2C_LCD_1_WrDataToBuff
 216              	.LVL12:
 283:.\Generated_Source\PSoC4/I2C_LCD_1.c ****             
 217              		.loc 1 283 0
 218 0028 10E0     		b	.L17
 219              	.L18:
 286:.\Generated_Source\PSoC4/I2C_LCD_1.c ****                 break;
 220              		.loc 1 286 0
ARM GAS  C:\Users\JEPPES~1\AppData\Local\Temp\cc97M3eW.s 			page 25


 221 002a 201C     		mov	r0, r4
 222 002c 4038     		sub	r0, r0, #64
 223 002e C0B2     		uxtb	r0, r0
 224 0030 FFF7FEFF 		bl	I2C_LCD_1_WrDataToBuff
 225              	.LVL13:
 287:.\Generated_Source\PSoC4/I2C_LCD_1.c ****             
 226              		.loc 1 287 0
 227 0034 0AE0     		b	.L17
 228              	.L20:
 290:.\Generated_Source\PSoC4/I2C_LCD_1.c ****                 break;
 229              		.loc 1 290 0
 230 0036 201C     		mov	r0, r4
 231 0038 6C38     		sub	r0, r0, #108
 232 003a C0B2     		uxtb	r0, r0
 233 003c FFF7FEFF 		bl	I2C_LCD_1_WrDataToBuff
 234              	.LVL14:
 291:.\Generated_Source\PSoC4/I2C_LCD_1.c ****             
 235              		.loc 1 291 0
 236 0040 04E0     		b	.L17
 237              	.L21:
 294:.\Generated_Source\PSoC4/I2C_LCD_1.c ****                 break;
 238              		.loc 1 294 0
 239 0042 201C     		mov	r0, r4
 240 0044 2C38     		sub	r0, r0, #44
 241 0046 C0B2     		uxtb	r0, r0
 242 0048 FFF7FEFF 		bl	I2C_LCD_1_WrDataToBuff
 243              	.LVL15:
 244              	.L17:
 304:.\Generated_Source\PSoC4/I2C_LCD_1.c **** }
 245              		.loc 1 304 0
 246 004c FFF7FEFF 		bl	I2C_LCD_1_SendSequence
 247              	.LVL16:
 305:.\Generated_Source\PSoC4/I2C_LCD_1.c **** 
 248              		.loc 1 305 0
 249              		@ sp needed
 250 0050 38BD     		pop	{r3, r4, r5, pc}
 251              		.cfi_endproc
 252              	.LFE4:
 253              		.size	I2C_LCD_1_Position, .-I2C_LCD_1_Position
 254 0052 C046     		.section	.text.I2C_LCD_1_WriteData,"ax",%progbits
 255              		.align	2
 256              		.global	I2C_LCD_1_WriteData
 257              		.code	16
 258              		.thumb_func
 259              		.type	I2C_LCD_1_WriteData, %function
 260              	I2C_LCD_1_WriteData:
 261              	.LFB5:
 328:.\Generated_Source\PSoC4/I2C_LCD_1.c ****     /* Send required control byte value to address data register */
 262              		.loc 1 328 0
 263              		.cfi_startproc
 264              	.LVL17:
 265 0000 10B5     		push	{r4, lr}
 266              		.cfi_def_cfa_offset 8
 267              		.cfi_offset 4, -8
 268              		.cfi_offset 14, -4
 269 0002 041C     		mov	r4, r0
 330:.\Generated_Source\PSoC4/I2C_LCD_1.c **** 
ARM GAS  C:\Users\JEPPES~1\AppData\Local\Temp\cc97M3eW.s 			page 26


 270              		.loc 1 330 0
 271 0004 0020     		mov	r0, #0
 272              	.LVL18:
 273 0006 FFF7FEFF 		bl	I2C_LCD_1_WrCntrlPatt
 274              	.LVL19:
 333:.\Generated_Source\PSoC4/I2C_LCD_1.c **** 
 275              		.loc 1 333 0
 276 000a 201C     		mov	r0, r4
 277 000c FFF7FEFF 		bl	I2C_LCD_1_WrDataToBuff
 278              	.LVL20:
 336:.\Generated_Source\PSoC4/I2C_LCD_1.c **** }
 279              		.loc 1 336 0
 280 0010 FFF7FEFF 		bl	I2C_LCD_1_SendSequence
 281              	.LVL21:
 337:.\Generated_Source\PSoC4/I2C_LCD_1.c **** 
 282              		.loc 1 337 0
 283              		@ sp needed
 284 0014 10BD     		pop	{r4, pc}
 285              		.cfi_endproc
 286              	.LFE5:
 287              		.size	I2C_LCD_1_WriteData, .-I2C_LCD_1_WriteData
 288 0016 C046     		.section	.text.I2C_LCD_1_WriteControl,"ax",%progbits
 289              		.align	2
 290              		.global	I2C_LCD_1_WriteControl
 291              		.code	16
 292              		.thumb_func
 293              		.type	I2C_LCD_1_WriteControl, %function
 294              	I2C_LCD_1_WriteControl:
 295              	.LFB7:
 408:.\Generated_Source\PSoC4/I2C_LCD_1.c ****     uint8 cmdIndx = 0u;
 296              		.loc 1 408 0
 297              		.cfi_startproc
 298              	.LVL22:
 299 0000 10B5     		push	{r4, lr}
 300              		.cfi_def_cfa_offset 8
 301              		.cfi_offset 4, -8
 302              		.cfi_offset 14, -4
 303              	.LVL23:
 409:.\Generated_Source\PSoC4/I2C_LCD_1.c ****     
 304              		.loc 1 409 0
 305 0002 0023     		mov	r3, #0
 411:.\Generated_Source\PSoC4/I2C_LCD_1.c ****     {   
 306              		.loc 1 411 0
 307 0004 1BE0     		b	.L24
 308              	.LVL24:
 309              	.L29:
 413:.\Generated_Source\PSoC4/I2C_LCD_1.c ****         {
 310              		.loc 1 413 0
 311 0006 5A00     		lsl	r2, r3, #1
 312 0008 D218     		add	r2, r2, r3
 313 000a 0E49     		ldr	r1, .L30
 314 000c 8A18     		add	r2, r1, r2
 315 000e 9278     		ldrb	r2, [r2, #2]
 316 0010 8242     		cmp	r2, r0
 317 0012 12D1     		bne	.L25
 318 0014 041C     		mov	r4, r0
 416:.\Generated_Source\PSoC4/I2C_LCD_1.c **** 
ARM GAS  C:\Users\JEPPES~1\AppData\Local\Temp\cc97M3eW.s 			page 27


 319              		.loc 1 416 0
 320 0016 181C     		mov	r0, r3
 321              	.LVL25:
 322 0018 FFF7FEFF 		bl	I2C_LCD_1_WrCntrlPatt
 323              	.LVL26:
 419:.\Generated_Source\PSoC4/I2C_LCD_1.c **** 
 324              		.loc 1 419 0
 325 001c FFF7FEFF 		bl	I2C_LCD_1_SendSequence
 326              	.LVL27:
 422:.\Generated_Source\PSoC4/I2C_LCD_1.c ****             {
 327              		.loc 1 422 0
 328 0020 082C     		cmp	r4, #8
 329 0022 06D0     		beq	.L27
 330 0024 03D8     		bhi	.L28
 331 0026 601E     		sub	r0, r4, #1
 332 0028 0128     		cmp	r0, #1
 333 002a 0AD8     		bhi	.L23
 334 002c 01E0     		b	.L27
 335              	.L28:
 336 002e 0E2C     		cmp	r4, #14
 337 0030 07D1     		bne	.L23
 338              	.L27:
 428:.\Generated_Source\PSoC4/I2C_LCD_1.c ****                     break;
 339              		.loc 1 428 0
 340 0032 0548     		ldr	r0, .L30+4
 341 0034 FFF7FEFF 		bl	CyDelayUs
 342              	.LVL28:
 429:.\Generated_Source\PSoC4/I2C_LCD_1.c ****                 default:
 343              		.loc 1 429 0
 344 0038 03E0     		b	.L23
 345              	.LVL29:
 346              	.L25:
 437:.\Generated_Source\PSoC4/I2C_LCD_1.c ****     } 
 347              		.loc 1 437 0
 348 003a 0133     		add	r3, r3, #1
 349              	.LVL30:
 350 003c DBB2     		uxtb	r3, r3
 351              	.LVL31:
 352              	.L24:
 411:.\Generated_Source\PSoC4/I2C_LCD_1.c ****     {   
 353              		.loc 1 411 0
 354 003e 0F2B     		cmp	r3, #15
 355 0040 E1D9     		bls	.L29
 356              	.LVL32:
 357              	.L23:
 439:.\Generated_Source\PSoC4/I2C_LCD_1.c **** 
 358              		.loc 1 439 0
 359              		@ sp needed
 360 0042 10BD     		pop	{r4, pc}
 361              	.L31:
 362              		.align	2
 363              	.L30:
 364 0044 00000000 		.word	.LANCHOR1
 365 0048 DC050000 		.word	1500
 366              		.cfi_endproc
 367              	.LFE7:
 368              		.size	I2C_LCD_1_WriteControl, .-I2C_LCD_1_WriteControl
ARM GAS  C:\Users\JEPPES~1\AppData\Local\Temp\cc97M3eW.s 			page 28


 369              		.section	.text.I2C_LCD_1_Init,"ax",%progbits
 370              		.align	2
 371              		.global	I2C_LCD_1_Init
 372              		.code	16
 373              		.thumb_func
 374              		.type	I2C_LCD_1_Init, %function
 375              	I2C_LCD_1_Init:
 376              	.LFB0:
 116:.\Generated_Source\PSoC4/I2C_LCD_1.c ****     /* Following part of code is only applicable for NXP LCDs */
 377              		.loc 1 116 0
 378              		.cfi_startproc
 379 0000 08B5     		push	{r3, lr}
 380              		.cfi_def_cfa_offset 8
 381              		.cfi_offset 3, -8
 382              		.cfi_offset 14, -4
 120:.\Generated_Source\PSoC4/I2C_LCD_1.c ****         /* Split screen configuration  */
 383              		.loc 1 120 0
 384 0002 3520     		mov	r0, #53
 385 0004 FFF7FEFF 		bl	I2C_LCD_1_SendCmd
 386              	.LVL33:
 122:.\Generated_Source\PSoC4/I2C_LCD_1.c ****         /* LCD Module format: left to right column, and top to bottom rows  */
 387              		.loc 1 122 0
 388 0008 0220     		mov	r0, #2
 389 000a FFF7FEFF 		bl	I2C_LCD_1_SendCmd
 390              	.LVL34:
 124:.\Generated_Source\PSoC4/I2C_LCD_1.c ****         /* Icon mode not supported. Disable all icon enable settings */
 391              		.loc 1 124 0
 392 000e 0420     		mov	r0, #4
 393 0010 FFF7FEFF 		bl	I2C_LCD_1_SendCmd
 394              	.LVL35:
 126:.\Generated_Source\PSoC4/I2C_LCD_1.c ****         /* Set LCD bias voltage to 4.38 V since LCD module datasheet recommends 4.4 V */
 395              		.loc 1 126 0
 396 0014 0820     		mov	r0, #8
 397 0016 FFF7FEFF 		bl	I2C_LCD_1_SendCmd
 398              	.LVL36:
 128:.\Generated_Source\PSoC4/I2C_LCD_1.c ****         /* Select Standard Instruction set, 2x16 display */
 399              		.loc 1 128 0
 400 001a A020     		mov	r0, #160
 401 001c FFF7FEFF 		bl	I2C_LCD_1_SendCmd
 402              	.LVL37:
 130:.\Generated_Source\PSoC4/I2C_LCD_1.c ****     #endif /* (I2C_LCD_1_COMMAND_FORMAT == I2C_LCD_1_NXP_PCF2119X) */
 403              		.loc 1 130 0
 404 0020 3420     		mov	r0, #52
 405 0022 FFF7FEFF 		bl	I2C_LCD_1_SendCmd
 406              	.LVL38:
 134:.\Generated_Source\PSoC4/I2C_LCD_1.c ****     /* Turn on both display and cursor */
 407              		.loc 1 134 0
 408 0026 2420     		mov	r0, #36
 409 0028 FFF7FEFF 		bl	I2C_LCD_1_WriteControl
 410              	.LVL39:
 136:.\Generated_Source\PSoC4/I2C_LCD_1.c ****     /* Turn on cursor auto incrementing */
 411              		.loc 1 136 0
 412 002c 0E20     		mov	r0, #14
 413 002e FFF7FEFF 		bl	I2C_LCD_1_WriteControl
 414              	.LVL40:
 138:.\Generated_Source\PSoC4/I2C_LCD_1.c ****     /* Turn off cursor underlining */
 415              		.loc 1 138 0
ARM GAS  C:\Users\JEPPES~1\AppData\Local\Temp\cc97M3eW.s 			page 29


 416 0032 0620     		mov	r0, #6
 417 0034 FFF7FEFF 		bl	I2C_LCD_1_WriteControl
 418              	.LVL41:
 140:.\Generated_Source\PSoC4/I2C_LCD_1.c ****     /* Clear the Display */
 419              		.loc 1 140 0
 420 0038 0C20     		mov	r0, #12
 421 003a FFF7FEFF 		bl	I2C_LCD_1_WriteControl
 422              	.LVL42:
 142:.\Generated_Source\PSoC4/I2C_LCD_1.c ****     
 423              		.loc 1 142 0
 424 003e 0120     		mov	r0, #1
 425 0040 FFF7FEFF 		bl	I2C_LCD_1_WriteControl
 426              	.LVL43:
 148:.\Generated_Source\PSoC4/I2C_LCD_1.c **** 
 427              		.loc 1 148 0
 428              		@ sp needed
 429 0044 08BD     		pop	{r3, pc}
 430              		.cfi_endproc
 431              	.LFE0:
 432              		.size	I2C_LCD_1_Init, .-I2C_LCD_1_Init
 433 0046 C046     		.section	.text.I2C_LCD_1_Enable,"ax",%progbits
 434              		.align	2
 435              		.global	I2C_LCD_1_Enable
 436              		.code	16
 437              		.thumb_func
 438              		.type	I2C_LCD_1_Enable, %function
 439              	I2C_LCD_1_Enable:
 440              	.LFB1:
 173:.\Generated_Source\PSoC4/I2C_LCD_1.c ****     I2C_LCD_1_DisplayOn();
 441              		.loc 1 173 0
 442              		.cfi_startproc
 443 0000 08B5     		push	{r3, lr}
 444              		.cfi_def_cfa_offset 8
 445              		.cfi_offset 3, -8
 446              		.cfi_offset 14, -4
 174:.\Generated_Source\PSoC4/I2C_LCD_1.c **** }
 447              		.loc 1 174 0
 448 0002 0C20     		mov	r0, #12
 449 0004 FFF7FEFF 		bl	I2C_LCD_1_WriteControl
 450              	.LVL44:
 175:.\Generated_Source\PSoC4/I2C_LCD_1.c **** 
 451              		.loc 1 175 0
 452              		@ sp needed
 453 0008 08BD     		pop	{r3, pc}
 454              		.cfi_endproc
 455              	.LFE1:
 456              		.size	I2C_LCD_1_Enable, .-I2C_LCD_1_Enable
 457 000a C046     		.section	.text.I2C_LCD_1_Start,"ax",%progbits
 458              		.align	2
 459              		.global	I2C_LCD_1_Start
 460              		.code	16
 461              		.thumb_func
 462              		.type	I2C_LCD_1_Start, %function
 463              	I2C_LCD_1_Start:
 464              	.LFB2:
 202:.\Generated_Source\PSoC4/I2C_LCD_1.c ****     /* If not initialized then perform initialization */
 465              		.loc 1 202 0
ARM GAS  C:\Users\JEPPES~1\AppData\Local\Temp\cc97M3eW.s 			page 30


 466              		.cfi_startproc
 467 0000 08B5     		push	{r3, lr}
 468              		.cfi_def_cfa_offset 8
 469              		.cfi_offset 3, -8
 470              		.cfi_offset 14, -4
 204:.\Generated_Source\PSoC4/I2C_LCD_1.c ****     {
 471              		.loc 1 204 0
 472 0002 064B     		ldr	r3, .L36
 473 0004 1B79     		ldrb	r3, [r3, #4]
 474 0006 002B     		cmp	r3, #0
 475 0008 04D1     		bne	.L35
 206:.\Generated_Source\PSoC4/I2C_LCD_1.c ****         I2C_LCD_1_initVar = 1u;
 476              		.loc 1 206 0
 477 000a FFF7FEFF 		bl	I2C_LCD_1_Init
 478              	.LVL45:
 207:.\Generated_Source\PSoC4/I2C_LCD_1.c ****     }
 479              		.loc 1 207 0
 480 000e 0122     		mov	r2, #1
 481 0010 024B     		ldr	r3, .L36
 482 0012 1A71     		strb	r2, [r3, #4]
 483              	.L35:
 211:.\Generated_Source\PSoC4/I2C_LCD_1.c **** }
 484              		.loc 1 211 0
 485 0014 FFF7FEFF 		bl	I2C_LCD_1_Enable
 486              	.LVL46:
 212:.\Generated_Source\PSoC4/I2C_LCD_1.c **** 
 487              		.loc 1 212 0
 488              		@ sp needed
 489 0018 08BD     		pop	{r3, pc}
 490              	.L37:
 491 001a C046     		.align	2
 492              	.L36:
 493 001c 00010000 		.word	.LANCHOR3
 494              		.cfi_endproc
 495              	.LFE2:
 496              		.size	I2C_LCD_1_Start, .-I2C_LCD_1_Start
 497              		.section	.text.I2C_LCD_1_Stop,"ax",%progbits
 498              		.align	2
 499              		.global	I2C_LCD_1_Stop
 500              		.code	16
 501              		.thumb_func
 502              		.type	I2C_LCD_1_Stop, %function
 503              	I2C_LCD_1_Stop:
 504              	.LFB3:
 234:.\Generated_Source\PSoC4/I2C_LCD_1.c ****     I2C_LCD_1_DisplayOff();
 505              		.loc 1 234 0
 506              		.cfi_startproc
 507 0000 08B5     		push	{r3, lr}
 508              		.cfi_def_cfa_offset 8
 509              		.cfi_offset 3, -8
 510              		.cfi_offset 14, -4
 235:.\Generated_Source\PSoC4/I2C_LCD_1.c **** }
 511              		.loc 1 235 0
 512 0002 0820     		mov	r0, #8
 513 0004 FFF7FEFF 		bl	I2C_LCD_1_WriteControl
 514              	.LVL47:
 236:.\Generated_Source\PSoC4/I2C_LCD_1.c **** 
ARM GAS  C:\Users\JEPPES~1\AppData\Local\Temp\cc97M3eW.s 			page 31


 515              		.loc 1 236 0
 516              		@ sp needed
 517 0008 08BD     		pop	{r3, pc}
 518              		.cfi_endproc
 519              	.LFE3:
 520              		.size	I2C_LCD_1_Stop, .-I2C_LCD_1_Stop
 521 000a C046     		.section	.text.I2C_LCD_1_HandleCustomCommand,"ax",%progbits
 522              		.align	2
 523              		.global	I2C_LCD_1_HandleCustomCommand
 524              		.code	16
 525              		.thumb_func
 526              		.type	I2C_LCD_1_HandleCustomCommand, %function
 527              	I2C_LCD_1_HandleCustomCommand:
 528              	.LFB10:
 539:.\Generated_Source\PSoC4/I2C_LCD_1.c ****     uint8 i;
 529              		.loc 1 539 0
 530              		.cfi_startproc
 531              	.LVL48:
 532 0000 70B5     		push	{r4, r5, r6, lr}
 533              		.cfi_def_cfa_offset 16
 534              		.cfi_offset 4, -16
 535              		.cfi_offset 5, -12
 536              		.cfi_offset 6, -8
 537              		.cfi_offset 14, -4
 538              	.LVL49:
 542:.\Generated_Source\PSoC4/I2C_LCD_1.c ****     
 539              		.loc 1 542 0
 540 0002 0023     		mov	r3, #0
 544:.\Generated_Source\PSoC4/I2C_LCD_1.c ****     {   
 541              		.loc 1 544 0
 542 0004 19E0     		b	.L40
 543              	.LVL50:
 544              	.L45:
 546:.\Generated_Source\PSoC4/I2C_LCD_1.c ****         {
 545              		.loc 1 546 0
 546 0006 5C00     		lsl	r4, r3, #1
 547 0008 E418     		add	r4, r4, r3
 548 000a 0D4D     		ldr	r5, .L46
 549 000c 2C19     		add	r4, r5, r4
 550 000e A478     		ldrb	r4, [r4, #2]
 551 0010 8442     		cmp	r4, r0
 552 0012 10D1     		bne	.L41
 553 0014 161C     		mov	r6, r2
 554 0016 0D1C     		mov	r5, r1
 549:.\Generated_Source\PSoC4/I2C_LCD_1.c **** 
 555              		.loc 1 549 0
 556 0018 181C     		mov	r0, r3
 557              	.LVL51:
 558 001a FFF7FEFF 		bl	I2C_LCD_1_WrCntrlPatt
 559              	.LVL52:
 551:.\Generated_Source\PSoC4/I2C_LCD_1.c ****             {
 560              		.loc 1 551 0
 561 001e 0024     		mov	r4, #0
 562 0020 04E0     		b	.L42
 563              	.LVL53:
 564              	.L43:
 554:.\Generated_Source\PSoC4/I2C_LCD_1.c **** 
ARM GAS  C:\Users\JEPPES~1\AppData\Local\Temp\cc97M3eW.s 			page 32


 565              		.loc 1 554 0 discriminator 3
 566 0022 305D     		ldrb	r0, [r6, r4]
 567              	.LVL54:
 557:.\Generated_Source\PSoC4/I2C_LCD_1.c ****             }
 568              		.loc 1 557 0 discriminator 3
 569 0024 FFF7FEFF 		bl	I2C_LCD_1_WrDataToBuff
 570              	.LVL55:
 551:.\Generated_Source\PSoC4/I2C_LCD_1.c ****             {
 571              		.loc 1 551 0 discriminator 3
 572 0028 0134     		add	r4, r4, #1
 573              	.LVL56:
 574 002a E4B2     		uxtb	r4, r4
 575              	.LVL57:
 576              	.L42:
 551:.\Generated_Source\PSoC4/I2C_LCD_1.c ****             {
 577              		.loc 1 551 0 is_stmt 0 discriminator 1
 578 002c AC42     		cmp	r4, r5
 579 002e F8D3     		bcc	.L43
 561:.\Generated_Source\PSoC4/I2C_LCD_1.c ****             /* The command index was found - break while() loop */
 580              		.loc 1 561 0 is_stmt 1
 581 0030 FFF7FEFF 		bl	I2C_LCD_1_SendSequence
 582              	.LVL58:
 563:.\Generated_Source\PSoC4/I2C_LCD_1.c ****         }
 583              		.loc 1 563 0
 584 0034 03E0     		b	.L39
 585              	.LVL59:
 586              	.L41:
 566:.\Generated_Source\PSoC4/I2C_LCD_1.c ****     } 
 587              		.loc 1 566 0
 588 0036 0133     		add	r3, r3, #1
 589              	.LVL60:
 590 0038 DBB2     		uxtb	r3, r3
 591              	.LVL61:
 592              	.L40:
 544:.\Generated_Source\PSoC4/I2C_LCD_1.c ****     {   
 593              		.loc 1 544 0
 594 003a 0F2B     		cmp	r3, #15
 595 003c E3D9     		bls	.L45
 596              	.LVL62:
 597              	.L39:
 568:.\Generated_Source\PSoC4/I2C_LCD_1.c **** 
 598              		.loc 1 568 0
 599              		@ sp needed
 600 003e 70BD     		pop	{r4, r5, r6, pc}
 601              	.L47:
 602              		.align	2
 603              	.L46:
 604 0040 00000000 		.word	.LANCHOR1
 605              		.cfi_endproc
 606              	.LFE10:
 607              		.size	I2C_LCD_1_HandleCustomCommand, .-I2C_LCD_1_HandleCustomCommand
 608              		.section	.text.I2C_LCD_1_HandleOneByteCommand,"ax",%progbits
 609              		.align	2
 610              		.global	I2C_LCD_1_HandleOneByteCommand
 611              		.code	16
 612              		.thumb_func
 613              		.type	I2C_LCD_1_HandleOneByteCommand, %function
ARM GAS  C:\Users\JEPPES~1\AppData\Local\Temp\cc97M3eW.s 			page 33


 614              	I2C_LCD_1_HandleOneByteCommand:
 615              	.LFB11:
 591:.\Generated_Source\PSoC4/I2C_LCD_1.c ****     uint8 oneByteArray[I2C_LCD_1_ONE_BYTE_LEN];
 616              		.loc 1 591 0
 617              		.cfi_startproc
 618              	.LVL63:
 619 0000 00B5     		push	{lr}
 620              		.cfi_def_cfa_offset 4
 621              		.cfi_offset 14, -4
 622 0002 83B0     		sub	sp, sp, #12
 623              		.cfi_def_cfa_offset 16
 594:.\Generated_Source\PSoC4/I2C_LCD_1.c ****     
 624              		.loc 1 594 0
 625 0004 01AA     		add	r2, sp, #4
 626 0006 1170     		strb	r1, [r2]
 596:.\Generated_Source\PSoC4/I2C_LCD_1.c **** }
 627              		.loc 1 596 0
 628 0008 0121     		mov	r1, #1
 629              	.LVL64:
 630 000a FFF7FEFF 		bl	I2C_LCD_1_HandleCustomCommand
 631              	.LVL65:
 597:.\Generated_Source\PSoC4/I2C_LCD_1.c **** 
 632              		.loc 1 597 0
 633 000e 03B0     		add	sp, sp, #12
 634              		@ sp needed
 635 0010 00BD     		pop	{pc}
 636              		.cfi_endproc
 637              	.LFE11:
 638              		.size	I2C_LCD_1_HandleOneByteCommand, .-I2C_LCD_1_HandleOneByteCommand
 639 0012 C046     		.section	.text.I2C_LCD_1_PrintString,"ax",%progbits
 640              		.align	2
 641              		.global	I2C_LCD_1_PrintString
 642              		.code	16
 643              		.thumb_func
 644              		.type	I2C_LCD_1_PrintString, %function
 645              	I2C_LCD_1_PrintString:
 646              	.LFB12:
 620:.\Generated_Source\PSoC4/I2C_LCD_1.c ****     uint8 chIdx = 1u;
 647              		.loc 1 620 0
 648              		.cfi_startproc
 649              	.LVL66:
 650 0000 70B5     		push	{r4, r5, r6, lr}
 651              		.cfi_def_cfa_offset 16
 652              		.cfi_offset 4, -16
 653              		.cfi_offset 5, -12
 654              		.cfi_offset 6, -8
 655              		.cfi_offset 14, -4
 656 0002 061C     		mov	r6, r0
 657              	.LVL67:
 622:.\Generated_Source\PSoC4/I2C_LCD_1.c **** 
 658              		.loc 1 622 0
 659 0004 0578     		ldrb	r5, [r0]
 660              	.LVL68:
 625:.\Generated_Source\PSoC4/I2C_LCD_1.c **** 
 661              		.loc 1 625 0
 662 0006 0020     		mov	r0, #0
 663              	.LVL69:
ARM GAS  C:\Users\JEPPES~1\AppData\Local\Temp\cc97M3eW.s 			page 34


 664 0008 FFF7FEFF 		bl	I2C_LCD_1_WrCntrlPatt
 665              	.LVL70:
 621:.\Generated_Source\PSoC4/I2C_LCD_1.c ****     char8 current = *string;
 666              		.loc 1 621 0
 667 000c 0124     		mov	r4, #1
 628:.\Generated_Source\PSoC4/I2C_LCD_1.c ****     {
 668              		.loc 1 628 0
 669 000e 0CE0     		b	.L50
 670              	.LVL71:
 671              	.L53:
 637:.\Generated_Source\PSoC4/I2C_LCD_1.c ****             {
 672              		.loc 1 637 0
 673 0010 072D     		cmp	r5, #7
 674 0012 03D8     		bhi	.L51
 639:.\Generated_Source\PSoC4/I2C_LCD_1.c ****             }
 675              		.loc 1 639 0
 676 0014 281C     		mov	r0, r5
 677 0016 FFF7FEFF 		bl	I2C_LCD_1_WrDataToBuff
 678              	.LVL72:
 679 001a 03E0     		b	.L52
 680              	.L51:
 643:.\Generated_Source\PSoC4/I2C_LCD_1.c ****             }
 681              		.loc 1 643 0
 682 001c 8020     		mov	r0, #128
 683 001e 6840     		eor	r0, r5
 684 0020 FFF7FEFF 		bl	I2C_LCD_1_WrDataToBuff
 685              	.LVL73:
 686              	.L52:
 652:.\Generated_Source\PSoC4/I2C_LCD_1.c ****         chIdx++;
 687              		.loc 1 652 0
 688 0024 355D     		ldrb	r5, [r6, r4]
 689              	.LVL74:
 653:.\Generated_Source\PSoC4/I2C_LCD_1.c ****     }
 690              		.loc 1 653 0
 691 0026 0134     		add	r4, r4, #1
 692              	.LVL75:
 693 0028 E4B2     		uxtb	r4, r4
 694              	.LVL76:
 695              	.L50:
 628:.\Generated_Source\PSoC4/I2C_LCD_1.c ****     {
 696              		.loc 1 628 0
 697 002a 002D     		cmp	r5, #0
 698 002c F0D1     		bne	.L53
 657:.\Generated_Source\PSoC4/I2C_LCD_1.c **** }
 699              		.loc 1 657 0
 700 002e FFF7FEFF 		bl	I2C_LCD_1_SendSequence
 701              	.LVL77:
 658:.\Generated_Source\PSoC4/I2C_LCD_1.c **** 
 702              		.loc 1 658 0
 703              		@ sp needed
 704              	.LVL78:
 705              	.LVL79:
 706              	.LVL80:
 707 0032 70BD     		pop	{r4, r5, r6, pc}
 708              		.cfi_endproc
 709              	.LFE12:
 710              		.size	I2C_LCD_1_PrintString, .-I2C_LCD_1_PrintString
ARM GAS  C:\Users\JEPPES~1\AppData\Local\Temp\cc97M3eW.s 			page 35


 711              		.section	.text.I2C_LCD_1_PutChar,"ax",%progbits
 712              		.align	2
 713              		.global	I2C_LCD_1_PutChar
 714              		.code	16
 715              		.thumb_func
 716              		.type	I2C_LCD_1_PutChar, %function
 717              	I2C_LCD_1_PutChar:
 718              	.LFB13:
 681:.\Generated_Source\PSoC4/I2C_LCD_1.c ****     /* Send one byte of data with I2C_LCD_WriteData() */
 719              		.loc 1 681 0
 720              		.cfi_startproc
 721              	.LVL81:
 722 0000 08B5     		push	{r3, lr}
 723              		.cfi_def_cfa_offset 8
 724              		.cfi_offset 3, -8
 725              		.cfi_offset 14, -4
 689:.\Generated_Source\PSoC4/I2C_LCD_1.c ****         {
 726              		.loc 1 689 0
 727 0002 0728     		cmp	r0, #7
 728 0004 02D8     		bhi	.L55
 691:.\Generated_Source\PSoC4/I2C_LCD_1.c ****         }
 729              		.loc 1 691 0
 730 0006 FFF7FEFF 		bl	I2C_LCD_1_WriteData
 731              	.LVL82:
 732 000a 03E0     		b	.L54
 733              	.LVL83:
 734              	.L55:
 695:.\Generated_Source\PSoC4/I2C_LCD_1.c ****         }
 735              		.loc 1 695 0
 736 000c 8023     		mov	r3, #128
 737 000e 5840     		eor	r0, r3
 738              	.LVL84:
 739 0010 FFF7FEFF 		bl	I2C_LCD_1_WriteData
 740              	.LVL85:
 741              	.L54:
 700:.\Generated_Source\PSoC4/I2C_LCD_1.c **** 
 742              		.loc 1 700 0
 743              		@ sp needed
 744 0014 08BD     		pop	{r3, pc}
 745              		.cfi_endproc
 746              	.LFE13:
 747              		.size	I2C_LCD_1_PutChar, .-I2C_LCD_1_PutChar
 748 0016 C046     		.section	.text.I2C_LCD_1_PrintInt8,"ax",%progbits
 749              		.align	2
 750              		.global	I2C_LCD_1_PrintInt8
 751              		.code	16
 752              		.thumb_func
 753              		.type	I2C_LCD_1_PrintInt8, %function
 754              	I2C_LCD_1_PrintInt8:
 755              	.LFB14:
 721:.\Generated_Source\PSoC4/I2C_LCD_1.c ****     static char8 const CYCODE I2C_LCD_1_hex[16u] = "0123456789ABCDEF";
 756              		.loc 1 721 0
 757              		.cfi_startproc
 758              	.LVL86:
 759 0000 70B5     		push	{r4, r5, r6, lr}
 760              		.cfi_def_cfa_offset 16
 761              		.cfi_offset 4, -16
ARM GAS  C:\Users\JEPPES~1\AppData\Local\Temp\cc97M3eW.s 			page 36


 762              		.cfi_offset 5, -12
 763              		.cfi_offset 6, -8
 764              		.cfi_offset 14, -4
 765 0002 041C     		mov	r4, r0
 725:.\Generated_Source\PSoC4/I2C_LCD_1.c **** 
 766              		.loc 1 725 0
 767 0004 0020     		mov	r0, #0
 768              	.LVL87:
 769 0006 FFF7FEFF 		bl	I2C_LCD_1_WrCntrlPatt
 770              	.LVL88:
 734:.\Generated_Source\PSoC4/I2C_LCD_1.c ****                                                ^ I2C_LCD_1_CHARACTER_SET_S_MASK );
 771              		.loc 1 734 0
 772 000a 2309     		lsr	r3, r4, #4
 773 000c 094D     		ldr	r5, .L58
 774 000e 3035     		add	r5, r5, #48
 775 0010 E85C     		ldrb	r0, [r5, r3]
 776 0012 8026     		mov	r6, #128
 777 0014 7642     		neg	r6, r6
 778 0016 7040     		eor	r0, r6
 779 0018 C0B2     		uxtb	r0, r0
 780 001a FFF7FEFF 		bl	I2C_LCD_1_WrDataToBuff
 781              	.LVL89:
 736:.\Generated_Source\PSoC4/I2C_LCD_1.c ****                                                I2C_LCD_1_CHARACTER_SET_S_MASK);
 782              		.loc 1 736 0
 783 001e 0F23     		mov	r3, #15
 784 0020 1C40     		and	r4, r3
 785 0022 285D     		ldrb	r0, [r5, r4]
 786 0024 7040     		eor	r0, r6
 787 0026 C0B2     		uxtb	r0, r0
 788 0028 FFF7FEFF 		bl	I2C_LCD_1_WrDataToBuff
 789              	.LVL90:
 744:.\Generated_Source\PSoC4/I2C_LCD_1.c **** }
 790              		.loc 1 744 0
 791 002c FFF7FEFF 		bl	I2C_LCD_1_SendSequence
 792              	.LVL91:
 745:.\Generated_Source\PSoC4/I2C_LCD_1.c **** 
 793              		.loc 1 745 0
 794              		@ sp needed
 795 0030 70BD     		pop	{r4, r5, r6, pc}
 796              	.L59:
 797 0032 C046     		.align	2
 798              	.L58:
 799 0034 00000000 		.word	.LANCHOR1
 800              		.cfi_endproc
 801              	.LFE14:
 802              		.size	I2C_LCD_1_PrintInt8, .-I2C_LCD_1_PrintInt8
 803              		.section	.text.I2C_LCD_1_PrintInt16,"ax",%progbits
 804              		.align	2
 805              		.global	I2C_LCD_1_PrintInt16
 806              		.code	16
 807              		.thumb_func
 808              		.type	I2C_LCD_1_PrintInt16, %function
 809              	I2C_LCD_1_PrintInt16:
 810              	.LFB15:
 766:.\Generated_Source\PSoC4/I2C_LCD_1.c ****     I2C_LCD_1_PrintInt8((uint8)(value >> I2C_LCD_1_U16_UPPER_BYTE_SHIFT));
 811              		.loc 1 766 0
 812              		.cfi_startproc
ARM GAS  C:\Users\JEPPES~1\AppData\Local\Temp\cc97M3eW.s 			page 37


 813              	.LVL92:
 814 0000 10B5     		push	{r4, lr}
 815              		.cfi_def_cfa_offset 8
 816              		.cfi_offset 4, -8
 817              		.cfi_offset 14, -4
 818 0002 041C     		mov	r4, r0
 767:.\Generated_Source\PSoC4/I2C_LCD_1.c ****     I2C_LCD_1_PrintInt8((uint8)(value & I2C_LCD_1_U16_LOWER_BYTE_MASK));
 819              		.loc 1 767 0
 820 0004 000A     		lsr	r0, r0, #8
 821              	.LVL93:
 822 0006 FFF7FEFF 		bl	I2C_LCD_1_PrintInt8
 823              	.LVL94:
 768:.\Generated_Source\PSoC4/I2C_LCD_1.c **** }
 824              		.loc 1 768 0
 825 000a E0B2     		uxtb	r0, r4
 826 000c FFF7FEFF 		bl	I2C_LCD_1_PrintInt8
 827              	.LVL95:
 769:.\Generated_Source\PSoC4/I2C_LCD_1.c **** 
 828              		.loc 1 769 0
 829              		@ sp needed
 830 0010 10BD     		pop	{r4, pc}
 831              		.cfi_endproc
 832              	.LFE15:
 833              		.size	I2C_LCD_1_PrintInt16, .-I2C_LCD_1_PrintInt16
 834              		.global	__aeabi_uidivmod
 835              		.global	__aeabi_uidiv
 836 0012 C046     		.section	.text.I2C_LCD_1_PrintNumber,"ax",%progbits
 837              		.align	2
 838              		.global	I2C_LCD_1_PrintNumber
 839              		.code	16
 840              		.thumb_func
 841              		.type	I2C_LCD_1_PrintNumber, %function
 842              	I2C_LCD_1_PrintNumber:
 843              	.LFB16:
 790:.\Generated_Source\PSoC4/I2C_LCD_1.c ****     char8 number[I2C_LCD_1_NUMBER_OF_REMAINDERS];
 844              		.loc 1 790 0
 845              		.cfi_startproc
 846              	.LVL96:
 847 0000 70B5     		push	{r4, r5, r6, lr}
 848              		.cfi_def_cfa_offset 16
 849              		.cfi_offset 4, -16
 850              		.cfi_offset 5, -12
 851              		.cfi_offset 6, -8
 852              		.cfi_offset 14, -4
 853 0002 84B0     		sub	sp, sp, #16
 854              		.cfi_def_cfa_offset 32
 855 0004 051C     		mov	r5, r0
 856              	.LVL97:
 794:.\Generated_Source\PSoC4/I2C_LCD_1.c ****     uint8 numDigits;
 857              		.loc 1 794 0
 858 0006 0024     		mov	r4, #0
 798:.\Generated_Source\PSoC4/I2C_LCD_1.c ****     {
 859              		.loc 1 798 0
 860 0008 0DE0     		b	.L62
 861              	.LVL98:
 862              	.L63:
 800:.\Generated_Source\PSoC4/I2C_LCD_1.c ****         value /= I2C_LCD_1_TEN;
ARM GAS  C:\Users\JEPPES~1\AppData\Local\Temp\cc97M3eW.s 			page 38


 863              		.loc 1 800 0
 864 000a 281C     		mov	r0, r5
 865 000c 0A21     		mov	r1, #10
 866 000e FFF7FEFF 		bl	__aeabi_uidivmod
 867              	.LVL99:
 868 0012 3031     		add	r1, r1, #48
 869 0014 6B46     		mov	r3, sp
 870 0016 1955     		strb	r1, [r3, r4]
 801:.\Generated_Source\PSoC4/I2C_LCD_1.c ****         digIndex++;
 871              		.loc 1 801 0
 872 0018 281C     		mov	r0, r5
 873 001a 0A21     		mov	r1, #10
 874 001c FFF7FEFF 		bl	__aeabi_uidiv
 875              	.LVL100:
 876 0020 85B2     		uxth	r5, r0
 877              	.LVL101:
 802:.\Generated_Source\PSoC4/I2C_LCD_1.c ****     }
 878              		.loc 1 802 0
 879 0022 0134     		add	r4, r4, #1
 880              	.LVL102:
 881 0024 E4B2     		uxtb	r4, r4
 882              	.LVL103:
 883              	.L62:
 798:.\Generated_Source\PSoC4/I2C_LCD_1.c ****     {
 884              		.loc 1 798 0
 885 0026 092D     		cmp	r5, #9
 886 0028 EFD8     		bhi	.L63
 805:.\Generated_Source\PSoC4/I2C_LCD_1.c ****     numDigits = digIndex;
 887              		.loc 1 805 0
 888 002a 261C     		mov	r6, r4
 889 002c 281C     		mov	r0, r5
 890 002e 0A21     		mov	r1, #10
 891 0030 FFF7FEFF 		bl	__aeabi_uidivmod
 892              	.LVL104:
 893 0034 3031     		add	r1, r1, #48
 894 0036 6B46     		mov	r3, sp
 895 0038 1955     		strb	r1, [r3, r4]
 806:.\Generated_Source\PSoC4/I2C_LCD_1.c **** 
 896              		.loc 1 806 0
 897 003a 251C     		mov	r5, r4
 898              	.LVL105:
 811:.\Generated_Source\PSoC4/I2C_LCD_1.c ****     {
 899              		.loc 1 811 0
 900 003c 06E0     		b	.L64
 901              	.LVL106:
 902              	.L65:
 813:.\Generated_Source\PSoC4/I2C_LCD_1.c ****         digIndex--;
 903              		.loc 1 813 0
 904 003e 331B     		sub	r3, r6, r4
 905 0040 6A46     		mov	r2, sp
 906 0042 115D     		ldrb	r1, [r2, r4]
 907 0044 02AA     		add	r2, sp, #8
 908 0046 D154     		strb	r1, [r2, r3]
 814:.\Generated_Source\PSoC4/I2C_LCD_1.c ****     }
 909              		.loc 1 814 0
 910 0048 013C     		sub	r4, r4, #1
 911              	.LVL107:
ARM GAS  C:\Users\JEPPES~1\AppData\Local\Temp\cc97M3eW.s 			page 39


 912 004a E4B2     		uxtb	r4, r4
 913              	.LVL108:
 914              	.L64:
 811:.\Generated_Source\PSoC4/I2C_LCD_1.c ****     {
 915              		.loc 1 811 0
 916 004c 002C     		cmp	r4, #0
 917 004e F6D1     		bne	.L65
 818:.\Generated_Source\PSoC4/I2C_LCD_1.c **** 
 918              		.loc 1 818 0
 919 0050 6B46     		mov	r3, sp
 920 0052 1B78     		ldrb	r3, [r3]
 921 0054 02A8     		add	r0, sp, #8
 922 0056 8355     		strb	r3, [r0, r6]
 821:.\Generated_Source\PSoC4/I2C_LCD_1.c **** 
 923              		.loc 1 821 0
 924 0058 6B1C     		add	r3, r5, #1
 925 005a 0022     		mov	r2, #0
 926 005c C254     		strb	r2, [r0, r3]
 824:.\Generated_Source\PSoC4/I2C_LCD_1.c **** }
 927              		.loc 1 824 0
 928 005e FFF7FEFF 		bl	I2C_LCD_1_PrintString
 929              	.LVL109:
 825:.\Generated_Source\PSoC4/I2C_LCD_1.c **** 
 930              		.loc 1 825 0
 931 0062 04B0     		add	sp, sp, #16
 932              		@ sp needed
 933              	.LVL110:
 934 0064 70BD     		pop	{r4, r5, r6, pc}
 935              		.cfi_endproc
 936              	.LFE16:
 937              		.size	I2C_LCD_1_PrintNumber, .-I2C_LCD_1_PrintNumber
 938 0066 C046     		.section	.text.I2C_LCD_1_SetAddr,"ax",%progbits
 939              		.align	2
 940              		.global	I2C_LCD_1_SetAddr
 941              		.code	16
 942              		.thumb_func
 943              		.type	I2C_LCD_1_SetAddr, %function
 944              	I2C_LCD_1_SetAddr:
 945              	.LFB17:
 851:.\Generated_Source\PSoC4/I2C_LCD_1.c ****     #if(I2C_LCD_1_IS_SCB_MASTER_USED)
 946              		.loc 1 851 0
 947              		.cfi_startproc
 948              	.LVL111:
 853:.\Generated_Source\PSoC4/I2C_LCD_1.c ****     #else
 949              		.loc 1 853 0
 950 0000 4008     		lsr	r0, r0, #1
 951              	.LVL112:
 952 0002 014B     		ldr	r3, .L67
 953 0004 1860     		str	r0, [r3]
 857:.\Generated_Source\PSoC4/I2C_LCD_1.c **** 
 954              		.loc 1 857 0
 955              		@ sp needed
 956 0006 7047     		bx	lr
 957              	.L68:
 958              		.align	2
 959              	.L67:
 960 0008 00000000 		.word	.LANCHOR2
ARM GAS  C:\Users\JEPPES~1\AppData\Local\Temp\cc97M3eW.s 			page 40


 961              		.cfi_endproc
 962              	.LFE17:
 963              		.size	I2C_LCD_1_SetAddr, .-I2C_LCD_1_SetAddr
 964              		.global	I2C_LCD_1_initVar
 965              		.section	.rodata
 966              		.align	2
 967              		.set	.LANCHOR1,. + 0
 968              		.type	I2C_LCD_1_cmdPatt, %object
 969              		.size	I2C_LCD_1_cmdPatt, 48
 970              	I2C_LCD_1_cmdPatt:
 971 0000 01       		.byte	1
 972 0001 40       		.byte	64
 973 0002 00       		.byte	0
 974 0003 02       		.byte	2
 975 0004 00       		.byte	0
 976 0005 0C       		.byte	12
 977 0006 02       		.byte	2
 978 0007 00       		.byte	0
 979 0008 08       		.byte	8
 980 0009 01       		.byte	1
 981 000a 00       		.byte	0
 982 000b 80       		.byte	-128
 983 000c 02       		.byte	2
 984 000d 00       		.byte	0
 985 000e 02       		.byte	2
 986 000f 02       		.byte	2
 987 0010 00       		.byte	0
 988 0011 03       		.byte	3
 989 0012 02       		.byte	2
 990 0013 00       		.byte	0
 991 0014 10       		.byte	16
 992 0015 02       		.byte	2
 993 0016 00       		.byte	0
 994 0017 14       		.byte	20
 995 0018 02       		.byte	2
 996 0019 00       		.byte	0
 997 001a 0E       		.byte	14
 998 001b 02       		.byte	2
 999 001c 00       		.byte	0
 1000 001d 0D       		.byte	13
 1001 001e 02       		.byte	2
 1002 001f 00       		.byte	0
 1003 0020 0F       		.byte	15
 1004 0021 02       		.byte	2
 1005 0022 00       		.byte	0
 1006 0023 01       		.byte	1
 1007 0024 02       		.byte	2
 1008 0025 00       		.byte	0
 1009 0026 40       		.byte	64
 1010 0027 02       		.byte	2
 1011 0028 00       		.byte	0
 1012 0029 24       		.byte	36
 1013 002a 02       		.byte	2
 1014 002b 00       		.byte	0
 1015 002c 06       		.byte	6
 1016 002d 02       		.byte	2
 1017 002e 00       		.byte	0
ARM GAS  C:\Users\JEPPES~1\AppData\Local\Temp\cc97M3eW.s 			page 41


 1018 002f 04       		.byte	4
 1019              		.type	I2C_LCD_1_hex.4964, %object
 1020              		.size	I2C_LCD_1_hex.4964, 16
 1021              	I2C_LCD_1_hex.4964:
 1022 0030 30313233 		.ascii	"0123456789ABCDEF"
 1022      34353637 
 1022      38394142 
 1022      43444546 
 1023              		.data
 1024              		.align	2
 1025              		.set	.LANCHOR2,. + 0
 1026              		.type	I2C_LCD_1_address, %object
 1027              		.size	I2C_LCD_1_address, 4
 1028              	I2C_LCD_1_address:
 1029 0000 20000000 		.word	32
 1030              		.bss
 1031              		.align	2
 1032              		.set	.LANCHOR0,. + 0
 1033              		.set	.LANCHOR3,. + 256
 1034              		.type	I2C_LCD_1_buffIndex, %object
 1035              		.size	I2C_LCD_1_buffIndex, 4
 1036              	I2C_LCD_1_buffIndex:
 1037 0000 00000000 		.space	4
 1038              		.type	I2C_LCD_1_buff, %object
 1039              		.size	I2C_LCD_1_buff, 256
 1040              	I2C_LCD_1_buff:
 1041 0004 00000000 		.space	256
 1041      00000000 
 1041      00000000 
 1041      00000000 
 1041      00000000 
 1042              		.type	I2C_LCD_1_initVar, %object
 1043              		.size	I2C_LCD_1_initVar, 1
 1044              	I2C_LCD_1_initVar:
 1045 0104 00       		.space	1
 1046 0105 000000   		.text
 1047              	.Letext0:
 1048              		.file 2 ".\\Generated_Source\\PSoC4\\cytypes.h"
 1049              		.file 3 "Generated_Source\\PSoC4/CyLib.h"