ARM GAS  C:\Users\JEPPES~1\AppData\Local\Temp\ccAu9vOa.s 			page 1


   1              		.cpu cortex-m0
   2              		.fpu softvfp
   3              		.eabi_attribute 20, 1
   4              		.eabi_attribute 21, 1
   5              		.eabi_attribute 23, 3
   6              		.eabi_attribute 24, 1
   7              		.eabi_attribute 25, 1
   8              		.eabi_attribute 26, 1
   9              		.eabi_attribute 30, 1
  10              		.eabi_attribute 34, 0
  11              		.eabi_attribute 18, 4
  12              		.code	16
  13              		.file	"led.c"
  14              		.text
  15              	.Ltext0:
  16              		.cfi_sections	.debug_frame
  17              		.section	.text.setLed,"ax",%progbits
  18              		.align	2
  19              		.global	setLed
  20              		.code	16
  21              		.thumb_func
  22              		.type	setLed, %function
  23              	setLed:
  24              	.LFB34:
  25              		.file 1 ".\\led.c"
   1:.\led.c       **** /* ========================================
   2:.\led.c       ****  *
   3:.\led.c       ****  * File: led.c
   4:.\led.c       ****  * Description: 
   5:.\led.c       ****  *
   6:.\led.c       ****  * University: AARHUS UNIVERSITY SCHOOL OF ENGINEERING
   7:.\led.c       ****  * Project: F16 - E3PRJ3-02 Semesterprojekt 3 [240501U178]
   8:.\led.c       ****  * Group: 1
   9:.\led.c       ****  * 
  10:.\led.c       ****  * Author: Jeppe Stærk
  11:.\led.c       ****  * Matriculation number: 201271201
  12:.\led.c       ****  *
  13:.\led.c       ****  * Version: 1.0
  14:.\led.c       ****  * Date: 13-05-2016
  15:.\led.c       ****  *
  16:.\led.c       ****  * ========================================
  17:.\led.c       **** */
  18:.\led.c       **** 
  19:.\led.c       **** #include "led.h"
  20:.\led.c       **** 
  21:.\led.c       **** void setLed(uint8 red, uint8 green, uint8 blue, uint8 time) 
  22:.\led.c       **** {
  26              		.loc 1 22 0
  27              		.cfi_startproc
  28              	.LVL0:
  29 0000 70B5     		push	{r4, r5, r6, lr}
  30              		.cfi_def_cfa_offset 16
  31              		.cfi_offset 4, -16
  32              		.cfi_offset 5, -12
  33              		.cfi_offset 6, -8
  34              		.cfi_offset 14, -4
  35 0002 0E1C     		mov	r6, r1
ARM GAS  C:\Users\JEPPES~1\AppData\Local\Temp\ccAu9vOa.s 			page 2


  36 0004 151C     		mov	r5, r2
  37 0006 1C1C     		mov	r4, r3
  23:.\led.c       ****     red ? LED_RED_Write(LED_ON) : LED_RED_Write(LED_OFF);
  38              		.loc 1 23 0
  39 0008 0028     		cmp	r0, #0
  40 000a 03D0     		beq	.L2
  41              		.loc 1 23 0 is_stmt 0 discriminator 1
  42 000c 0020     		mov	r0, #0
  43              	.LVL1:
  44 000e FFF7FEFF 		bl	LED_RED_Write
  45              	.LVL2:
  46 0012 02E0     		b	.L3
  47              	.LVL3:
  48              	.L2:
  49              		.loc 1 23 0 discriminator 2
  50 0014 0120     		mov	r0, #1
  51              	.LVL4:
  52 0016 FFF7FEFF 		bl	LED_RED_Write
  53              	.LVL5:
  54              	.L3:
  24:.\led.c       ****     green ? LED_GREEN_Write(LED_ON) : LED_GREEN_Write(LED_OFF);
  55              		.loc 1 24 0 is_stmt 1
  56 001a 002E     		cmp	r6, #0
  57 001c 03D0     		beq	.L4
  58              		.loc 1 24 0 is_stmt 0 discriminator 1
  59 001e 0020     		mov	r0, #0
  60 0020 FFF7FEFF 		bl	LED_GREEN_Write
  61              	.LVL6:
  62 0024 02E0     		b	.L5
  63              	.L4:
  64              		.loc 1 24 0 discriminator 2
  65 0026 0120     		mov	r0, #1
  66 0028 FFF7FEFF 		bl	LED_GREEN_Write
  67              	.LVL7:
  68              	.L5:
  25:.\led.c       ****     blue ? LED_BLUE_Write(LED_ON) : LED_BLUE_Write(LED_OFF);
  69              		.loc 1 25 0 is_stmt 1
  70 002c 002D     		cmp	r5, #0
  71 002e 03D0     		beq	.L6
  72              		.loc 1 25 0 is_stmt 0 discriminator 1
  73 0030 0020     		mov	r0, #0
  74 0032 FFF7FEFF 		bl	LED_BLUE_Write
  75              	.LVL8:
  76 0036 02E0     		b	.L7
  77              	.L6:
  78              		.loc 1 25 0 discriminator 2
  79 0038 0120     		mov	r0, #1
  80 003a FFF7FEFF 		bl	LED_BLUE_Write
  81              	.LVL9:
  82              	.L7:
  26:.\led.c       ****     
  27:.\led.c       ****     CyDelay(time);
  83              		.loc 1 27 0 is_stmt 1
  84 003e 201C     		mov	r0, r4
  85 0040 FFF7FEFF 		bl	CyDelay
  86              	.LVL10:
  28:.\led.c       **** }
ARM GAS  C:\Users\JEPPES~1\AppData\Local\Temp\ccAu9vOa.s 			page 3


  87              		.loc 1 28 0
  88              		@ sp needed
  89 0044 70BD     		pop	{r4, r5, r6, pc}
  90              		.cfi_endproc
  91              	.LFE34:
  92              		.size	setLed, .-setLed
  93 0046 C046     		.section	.text.queueLed,"ax",%progbits
  94              		.align	2
  95              		.global	queueLed
  96              		.code	16
  97              		.thumb_func
  98              		.type	queueLed, %function
  99              	queueLed:
 100              	.LFB35:
  29:.\led.c       **** 
  30:.\led.c       **** void queueLed(uint8 red, uint8 green, uint8 blue, uint8 time) 
  31:.\led.c       **** {
 101              		.loc 1 31 0
 102              		.cfi_startproc
 103              	.LVL11:
 104 0000 00B5     		push	{lr}
 105              		.cfi_def_cfa_offset 4
 106              		.cfi_offset 14, -4
 107 0002 83B0     		sub	sp, sp, #12
 108              		.cfi_def_cfa_offset 16
  32:.\led.c       ****     struct Data ledAction;
  33:.\led.c       ****     
  34:.\led.c       ****     if(red)
 109              		.loc 1 34 0
 110 0004 0028     		cmp	r0, #0
 111 0006 03D0     		beq	.L9
  35:.\led.c       ****     {
  36:.\led.c       ****         ledAction.cmd_ = setMasterLedRed;
 112              		.loc 1 36 0
 113 0008 7122     		mov	r2, #113
 114              	.LVL12:
 115 000a 0092     		str	r2, [sp]
  37:.\led.c       ****         ledAction.val_ = time;
 116              		.loc 1 37 0
 117 000c 0193     		str	r3, [sp, #4]
 118 000e 0EE0     		b	.L10
 119              	.LVL13:
 120              	.L9:
  38:.\led.c       ****     }
  39:.\led.c       ****     else if(green)
 121              		.loc 1 39 0
 122 0010 0029     		cmp	r1, #0
 123 0012 03D0     		beq	.L11
  40:.\led.c       ****     {
  41:.\led.c       ****         ledAction.cmd_ = setMasterLedGreen;
 124              		.loc 1 41 0
 125 0014 7222     		mov	r2, #114
 126              	.LVL14:
 127 0016 0092     		str	r2, [sp]
  42:.\led.c       ****         ledAction.val_ = time;
 128              		.loc 1 42 0
 129 0018 0193     		str	r3, [sp, #4]
ARM GAS  C:\Users\JEPPES~1\AppData\Local\Temp\ccAu9vOa.s 			page 4


 130 001a 08E0     		b	.L10
 131              	.LVL15:
 132              	.L11:
  43:.\led.c       ****     }
  44:.\led.c       ****     else if(blue)
 133              		.loc 1 44 0
 134 001c 002A     		cmp	r2, #0
 135 001e 03D0     		beq	.L12
  45:.\led.c       ****     {
  46:.\led.c       ****         ledAction.cmd_ = setMasterLedBlue;
 136              		.loc 1 46 0
 137 0020 7322     		mov	r2, #115
 138              	.LVL16:
 139 0022 0092     		str	r2, [sp]
  47:.\led.c       ****         ledAction.val_ = time;
 140              		.loc 1 47 0
 141 0024 0193     		str	r3, [sp, #4]
 142 0026 02E0     		b	.L10
 143              	.LVL17:
 144              	.L12:
  48:.\led.c       ****     }
  49:.\led.c       ****     else
  50:.\led.c       ****     {
  51:.\led.c       ****         ledAction.cmd_ = setMasterLedOff;
 145              		.loc 1 51 0
 146 0028 7022     		mov	r2, #112
 147              	.LVL18:
 148 002a 0092     		str	r2, [sp]
  52:.\led.c       ****         ledAction.val_ = time;
 149              		.loc 1 52 0
 150 002c 0193     		str	r3, [sp, #4]
 151              	.L10:
  53:.\led.c       ****     }
  54:.\led.c       ****     
  55:.\led.c       ****     pushQueue(ledAction);
 152              		.loc 1 55 0
 153 002e 0098     		ldr	r0, [sp]
 154              	.LVL19:
 155 0030 0199     		ldr	r1, [sp, #4]
 156              	.LVL20:
 157 0032 FFF7FEFF 		bl	pushQueue
 158              	.LVL21:
  56:.\led.c       **** }
 159              		.loc 1 56 0
 160 0036 03B0     		add	sp, sp, #12
 161              		@ sp needed
 162 0038 00BD     		pop	{pc}
 163              		.cfi_endproc
 164              	.LFE35:
 165              		.size	queueLed, .-queueLed
 166              		.comm	zMax,1,1
 167              		.comm	zPos,1,1
 168              		.comm	yMax,1,1
 169              		.comm	yPos,1,1
 170              		.comm	xMax,1,1
 171              		.comm	xPos,1,1
 172 003a C046     		.text
ARM GAS  C:\Users\JEPPES~1\AppData\Local\Temp\ccAu9vOa.s 			page 5


 173              	.Letext0:
 174              		.file 2 "Generated_Source\\PSoC4/cytypes.h"
 175              		.file 3 ".\\queue.h"
 176              		.file 4 ".\\handler.h"
 177              		.file 5 "Generated_Source\\PSoC4/LED_RED.h"
 178              		.file 6 "Generated_Source\\PSoC4/LED_GREEN.h"
 179              		.file 7 "Generated_Source\\PSoC4/LED_BLUE.h"
 180              		.file 8 "Generated_Source\\PSoC4/CyLib.h"