ARM GAS  C:\Users\JEPPES~1\AppData\Local\Temp\cc0i2YeH.s 			page 1


   1              		.cpu cortex-m0
   2              		.fpu softvfp
   3              		.eabi_attribute 20, 1
   4              		.eabi_attribute 21, 1
   5              		.eabi_attribute 23, 3
   6              		.eabi_attribute 24, 1
   7              		.eabi_attribute 25, 1
   8              		.eabi_attribute 26, 1
   9              		.eabi_attribute 30, 1
  10              		.eabi_attribute 34, 0
  11              		.eabi_attribute 18, 4
  12              		.code	16
  13              		.file	"master.c"
  14              		.text
  15              	.Ltext0:
  16              		.cfi_sections	.debug_frame
  17              		.section	.text.master_init,"ax",%progbits
  18              		.align	2
  19              		.global	master_init
  20              		.code	16
  21              		.thumb_func
  22              		.type	master_init, %function
  23              	master_init:
  24              	.LFB34:
  25              		.file 1 ".\\master.c"
   1:.\master.c    **** /* ========================================
   2:.\master.c    ****  *
   3:.\master.c    ****  * File: master.c
   4:.\master.c    ****  * Description: 
   5:.\master.c    ****  *
   6:.\master.c    ****  * University: AARHUS UNIVERSITY SCHOOL OF ENGINEERING
   7:.\master.c    ****  * Project: F16 - E3PRJ3-02 Semesterprojekt 3 [240501U178]
   8:.\master.c    ****  * Group: 1
   9:.\master.c    ****  * 
  10:.\master.c    ****  * Author: Jeppe Stærk
  11:.\master.c    ****  * Matriculation number: 201271201
  12:.\master.c    ****  *
  13:.\master.c    ****  * Version: 1.0
  14:.\master.c    ****  * Date: 13-05-2016
  15:.\master.c    ****  *
  16:.\master.c    ****  * ========================================
  17:.\master.c    **** */
  18:.\master.c    **** 
  19:.\master.c    **** #include "master.h"
  20:.\master.c    ****    
  21:.\master.c    **** void master_init(void) {
  26              		.loc 1 21 0
  27              		.cfi_startproc
  22:.\master.c    ****     
  23:.\master.c    **** }
  28              		.loc 1 23 0
  29              		@ sp needed
  30 0000 7047     		bx	lr
  31              		.cfi_endproc
  32              	.LFE34:
  33              		.size	master_init, .-master_init
  34 0002 C046     		.section	.text.setMasterLed,"ax",%progbits
ARM GAS  C:\Users\JEPPES~1\AppData\Local\Temp\cc0i2YeH.s 			page 2


  35              		.align	2
  36              		.global	setMasterLed
  37              		.code	16
  38              		.thumb_func
  39              		.type	setMasterLed, %function
  40              	setMasterLed:
  41              	.LFB35:
  24:.\master.c    **** 
  25:.\master.c    **** uint8 setMasterLed(uint8 red, uint8 green, uint8 blue) {
  42              		.loc 1 25 0
  43              		.cfi_startproc
  44              	.LVL0:
  45 0000 38B5     		push	{r3, r4, r5, lr}
  46              		.cfi_def_cfa_offset 16
  47              		.cfi_offset 3, -16
  48              		.cfi_offset 4, -12
  49              		.cfi_offset 5, -8
  50              		.cfi_offset 14, -4
  51 0002 0D1C     		mov	r5, r1
  52 0004 141C     		mov	r4, r2
  26:.\master.c    ****     red ? LED_RED_Write(MASTER_LED_RED_ON) : LED_RED_Write(MASTER_LED_RED_OFF);
  53              		.loc 1 26 0
  54 0006 0028     		cmp	r0, #0
  55 0008 03D0     		beq	.L3
  56              		.loc 1 26 0 is_stmt 0 discriminator 1
  57 000a 0020     		mov	r0, #0
  58              	.LVL1:
  59 000c FFF7FEFF 		bl	LED_RED_Write
  60              	.LVL2:
  61 0010 02E0     		b	.L4
  62              	.LVL3:
  63              	.L3:
  64              		.loc 1 26 0 discriminator 2
  65 0012 0120     		mov	r0, #1
  66              	.LVL4:
  67 0014 FFF7FEFF 		bl	LED_RED_Write
  68              	.LVL5:
  69              	.L4:
  27:.\master.c    ****     green ? LED_GREEN_Write(MASTER_LED_GREEN_ON) : LED_GREEN_Write(MASTER_LED_GREEN_OFF);
  70              		.loc 1 27 0 is_stmt 1
  71 0018 002D     		cmp	r5, #0
  72 001a 03D0     		beq	.L5
  73              		.loc 1 27 0 is_stmt 0 discriminator 1
  74 001c 0020     		mov	r0, #0
  75 001e FFF7FEFF 		bl	LED_GREEN_Write
  76              	.LVL6:
  77 0022 02E0     		b	.L6
  78              	.L5:
  79              		.loc 1 27 0 discriminator 2
  80 0024 0120     		mov	r0, #1
  81 0026 FFF7FEFF 		bl	LED_GREEN_Write
  82              	.LVL7:
  83              	.L6:
  28:.\master.c    ****     blue ? LED_BLUE_Write(MASTER_LED_BLUE_ON) : LED_BLUE_Write(MASTER_LED_BLUE_OFF);
  84              		.loc 1 28 0 is_stmt 1
  85 002a 002C     		cmp	r4, #0
  86 002c 03D0     		beq	.L7
ARM GAS  C:\Users\JEPPES~1\AppData\Local\Temp\cc0i2YeH.s 			page 3


  87              		.loc 1 28 0 is_stmt 0 discriminator 1
  88 002e 0020     		mov	r0, #0
  89 0030 FFF7FEFF 		bl	LED_BLUE_Write
  90              	.LVL8:
  91 0034 02E0     		b	.L8
  92              	.L7:
  93              		.loc 1 28 0 discriminator 2
  94 0036 0120     		mov	r0, #1
  95 0038 FFF7FEFF 		bl	LED_BLUE_Write
  96              	.LVL9:
  97              	.L8:
  29:.\master.c    ****     
  30:.\master.c    ****     return 1;
  31:.\master.c    **** }
  98              		.loc 1 31 0 is_stmt 1
  99 003c 0120     		mov	r0, #1
 100              		@ sp needed
 101 003e 38BD     		pop	{r3, r4, r5, pc}
 102              		.cfi_endproc
 103              	.LFE35:
 104              		.size	setMasterLed, .-setMasterLed
 105              		.text
 106              	.Letext0:
 107              		.file 2 "Generated_Source\\PSoC4/LED_RED.h"
 108              		.file 3 "Generated_Source\\PSoC4/LED_GREEN.h"
 109              		.file 4 "Generated_Source\\PSoC4/cytypes.h"
 110              		.file 5 "Generated_Source\\PSoC4/LED_BLUE.h"