ARM GAS  C:\Users\JEPPES~1\AppData\Local\Temp\cc9TkiBj.s 			page 1


   1              		.cpu cortex-m0
   2              		.fpu softvfp
   3              		.eabi_attribute 20, 1
   4              		.eabi_attribute 21, 1
   5              		.eabi_attribute 23, 3
   6              		.eabi_attribute 24, 1
   7              		.eabi_attribute 25, 1
   8              		.eabi_attribute 26, 1
   9              		.eabi_attribute 30, 1
  10              		.eabi_attribute 34, 0
  11              		.eabi_attribute 18, 4
  12              		.code	16
  13              		.file	"Nokia5110LCD.c"
  14              		.text
  15              	.Ltext0:
  16              		.cfi_sections	.debug_frame
  17              		.section	.text.Send_Data,"ax",%progbits
  18              		.align	2
  19              		.global	Send_Data
  20              		.code	16
  21              		.thumb_func
  22              		.type	Send_Data, %function
  23              	Send_Data:
  24              	.LFB39:
  25              		.file 1 ".\\Nokia5110LCD.c"
   1:.\Nokia5110LCD.c **** /* ========================================
   2:.\Nokia5110LCD.c ****  *
   3:.\Nokia5110LCD.c ****  * Copyright YOUR COMPANY, THE YEAR
   4:.\Nokia5110LCD.c ****  * All Rights Reserved
   5:.\Nokia5110LCD.c ****  * UNPUBLISHED, LICENSED SOFTWARE.
   6:.\Nokia5110LCD.c ****  *
   7:.\Nokia5110LCD.c ****  * CONFIDENTIAL AND PROPRIETARY INFORMATION
   8:.\Nokia5110LCD.c ****  * WHICH IS THE PROPERTY OF your company.
   9:.\Nokia5110LCD.c ****  *
  10:.\Nokia5110LCD.c ****  * ========================================
  11:.\Nokia5110LCD.c **** */
  12:.\Nokia5110LCD.c **** #include "Nokia5110LCD.h"
  13:.\Nokia5110LCD.c **** 
  14:.\Nokia5110LCD.c **** /* Width = 5 * Height = 8 for one character */
  15:.\Nokia5110LCD.c **** /* excluding one vertical space before and after the character */
  16:.\Nokia5110LCD.c **** /* for the ASCII values from 20 as the values <20 are escape characters */
  17:.\Nokia5110LCD.c **** 
  18:.\Nokia5110LCD.c **** static const uint8 Fonts[][FONT_WIDTH] = {
  19:.\Nokia5110LCD.c ****   {0x00, 0x00, 0x00, 0x00, 0x00}  // 20  
  20:.\Nokia5110LCD.c ****   ,{0x00, 0x00, 0x5f, 0x00, 0x00} // 21 !
  21:.\Nokia5110LCD.c ****   ,{0x00, 0x07, 0x00, 0x07, 0x00} // 22 "
  22:.\Nokia5110LCD.c ****   ,{0x14, 0x7f, 0x14, 0x7f, 0x14} // 23 #
  23:.\Nokia5110LCD.c ****   ,{0x24, 0x2a, 0x7f, 0x2a, 0x12} // 24 $
  24:.\Nokia5110LCD.c ****   ,{0x23, 0x13, 0x08, 0x64, 0x62} // 25 %
  25:.\Nokia5110LCD.c ****   ,{0x36, 0x49, 0x55, 0x22, 0x50} // 26 &
  26:.\Nokia5110LCD.c ****   ,{0x00, 0x05, 0x03, 0x00, 0x00} // 27 '
  27:.\Nokia5110LCD.c ****   ,{0x00, 0x1c, 0x22, 0x41, 0x00} // 28 (
  28:.\Nokia5110LCD.c ****   ,{0x00, 0x41, 0x22, 0x1c, 0x00} // 29 )
  29:.\Nokia5110LCD.c ****   ,{0x14, 0x08, 0x3e, 0x08, 0x14} // 2a *
  30:.\Nokia5110LCD.c ****   ,{0x08, 0x08, 0x3e, 0x08, 0x08} // 2b +
  31:.\Nokia5110LCD.c ****   ,{0x00, 0x50, 0x30, 0x00, 0x00} // 2c ,
  32:.\Nokia5110LCD.c ****   ,{0x08, 0x08, 0x08, 0x08, 0x08} // 2d -
ARM GAS  C:\Users\JEPPES~1\AppData\Local\Temp\cc9TkiBj.s 			page 2


  33:.\Nokia5110LCD.c ****   ,{0x00, 0x60, 0x60, 0x00, 0x00} // 2e .
  34:.\Nokia5110LCD.c ****   ,{0x20, 0x10, 0x08, 0x04, 0x02} // 2f /
  35:.\Nokia5110LCD.c ****   ,{0x3e, 0x51, 0x49, 0x45, 0x3e} // 30 0
  36:.\Nokia5110LCD.c ****   ,{0x00, 0x42, 0x7f, 0x40, 0x00} // 31 1
  37:.\Nokia5110LCD.c ****   ,{0x42, 0x61, 0x51, 0x49, 0x46} // 32 2
  38:.\Nokia5110LCD.c ****   ,{0x21, 0x41, 0x45, 0x4b, 0x31} // 33 3
  39:.\Nokia5110LCD.c ****   ,{0x18, 0x14, 0x12, 0x7f, 0x10} // 34 4
  40:.\Nokia5110LCD.c ****   ,{0x27, 0x45, 0x45, 0x45, 0x39} // 35 5
  41:.\Nokia5110LCD.c ****   ,{0x3c, 0x4a, 0x49, 0x49, 0x30} // 36 6
  42:.\Nokia5110LCD.c ****   ,{0x01, 0x71, 0x09, 0x05, 0x03} // 37 7
  43:.\Nokia5110LCD.c ****   ,{0x36, 0x49, 0x49, 0x49, 0x36} // 38 8
  44:.\Nokia5110LCD.c ****   ,{0x06, 0x49, 0x49, 0x29, 0x1e} // 39 9
  45:.\Nokia5110LCD.c ****   ,{0x00, 0x36, 0x36, 0x00, 0x00} // 3a :
  46:.\Nokia5110LCD.c ****   ,{0x00, 0x56, 0x36, 0x00, 0x00} // 3b ;
  47:.\Nokia5110LCD.c ****   ,{0x08, 0x14, 0x22, 0x41, 0x00} // 3c <
  48:.\Nokia5110LCD.c ****   ,{0x14, 0x14, 0x14, 0x14, 0x14} // 3d =
  49:.\Nokia5110LCD.c ****   ,{0x00, 0x41, 0x22, 0x14, 0x08} // 3e >
  50:.\Nokia5110LCD.c ****   ,{0x02, 0x01, 0x51, 0x09, 0x06} // 3f ?
  51:.\Nokia5110LCD.c ****   ,{0x32, 0x49, 0x79, 0x41, 0x3e} // 40 @
  52:.\Nokia5110LCD.c ****   ,{0x7e, 0x11, 0x11, 0x11, 0x7e} // 41 A
  53:.\Nokia5110LCD.c ****   ,{0x7f, 0x49, 0x49, 0x49, 0x36} // 42 B
  54:.\Nokia5110LCD.c ****   ,{0x3e, 0x41, 0x41, 0x41, 0x22} // 43 C
  55:.\Nokia5110LCD.c ****   ,{0x7f, 0x41, 0x41, 0x22, 0x1c} // 44 D
  56:.\Nokia5110LCD.c ****   ,{0x7f, 0x49, 0x49, 0x49, 0x41} // 45 E
  57:.\Nokia5110LCD.c ****   ,{0x7f, 0x09, 0x09, 0x09, 0x01} // 46 F
  58:.\Nokia5110LCD.c ****   ,{0x3e, 0x41, 0x49, 0x49, 0x7a} // 47 G
  59:.\Nokia5110LCD.c ****   ,{0x7f, 0x08, 0x08, 0x08, 0x7f} // 48 H
  60:.\Nokia5110LCD.c ****   ,{0x00, 0x41, 0x7f, 0x41, 0x00} // 49 I
  61:.\Nokia5110LCD.c ****   ,{0x20, 0x40, 0x41, 0x3f, 0x01} // 4a J
  62:.\Nokia5110LCD.c ****   ,{0x7f, 0x08, 0x14, 0x22, 0x41} // 4b K
  63:.\Nokia5110LCD.c ****   ,{0x7f, 0x40, 0x40, 0x40, 0x40} // 4c L
  64:.\Nokia5110LCD.c ****   ,{0x7f, 0x02, 0x0c, 0x02, 0x7f} // 4d M
  65:.\Nokia5110LCD.c ****   ,{0x7f, 0x04, 0x08, 0x10, 0x7f} // 4e N
  66:.\Nokia5110LCD.c ****   ,{0x3e, 0x41, 0x41, 0x41, 0x3e} // 4f O
  67:.\Nokia5110LCD.c ****   ,{0x7f, 0x09, 0x09, 0x09, 0x06} // 50 P
  68:.\Nokia5110LCD.c ****   ,{0x3e, 0x41, 0x51, 0x21, 0x5e} // 51 Q
  69:.\Nokia5110LCD.c ****   ,{0x7f, 0x09, 0x19, 0x29, 0x46} // 52 R
  70:.\Nokia5110LCD.c ****   ,{0x46, 0x49, 0x49, 0x49, 0x31} // 53 S
  71:.\Nokia5110LCD.c ****   ,{0x01, 0x01, 0x7f, 0x01, 0x01} // 54 T
  72:.\Nokia5110LCD.c ****   ,{0x3f, 0x40, 0x40, 0x40, 0x3f} // 55 U
  73:.\Nokia5110LCD.c ****   ,{0x1f, 0x20, 0x40, 0x20, 0x1f} // 56 V
  74:.\Nokia5110LCD.c ****   ,{0x3f, 0x40, 0x38, 0x40, 0x3f} // 57 W
  75:.\Nokia5110LCD.c ****   ,{0x63, 0x14, 0x08, 0x14, 0x63} // 58 X
  76:.\Nokia5110LCD.c ****   ,{0x07, 0x08, 0x70, 0x08, 0x07} // 59 Y
  77:.\Nokia5110LCD.c ****   ,{0x61, 0x51, 0x49, 0x45, 0x43} // 5a Z
  78:.\Nokia5110LCD.c ****   ,{0x00, 0x7f, 0x41, 0x41, 0x00} // 5b [
  79:.\Nokia5110LCD.c ****   ,{0x02, 0x04, 0x08, 0x10, 0x20} // 5c /
  80:.\Nokia5110LCD.c ****   ,{0x00, 0x41, 0x41, 0x7f, 0x00} // 5d ]
  81:.\Nokia5110LCD.c ****   ,{0x04, 0x02, 0x01, 0x02, 0x04} // 5e ^
  82:.\Nokia5110LCD.c ****   ,{0x40, 0x40, 0x40, 0x40, 0x40} // 5f _
  83:.\Nokia5110LCD.c ****   ,{0x00, 0x01, 0x02, 0x04, 0x00} // 60 `
  84:.\Nokia5110LCD.c ****   ,{0x20, 0x54, 0x54, 0x54, 0x78} // 61 a
  85:.\Nokia5110LCD.c ****   ,{0x7f, 0x48, 0x44, 0x44, 0x38} // 62 b
  86:.\Nokia5110LCD.c ****   ,{0x38, 0x44, 0x44, 0x44, 0x20} // 63 c
  87:.\Nokia5110LCD.c ****   ,{0x38, 0x44, 0x44, 0x48, 0x7f} // 64 d
  88:.\Nokia5110LCD.c ****   ,{0x38, 0x54, 0x54, 0x54, 0x18} // 65 e
  89:.\Nokia5110LCD.c ****   ,{0x08, 0x7e, 0x09, 0x01, 0x02} // 66 f
ARM GAS  C:\Users\JEPPES~1\AppData\Local\Temp\cc9TkiBj.s 			page 3


  90:.\Nokia5110LCD.c ****   ,{0x0c, 0x52, 0x52, 0x52, 0x3e} // 67 g
  91:.\Nokia5110LCD.c ****   ,{0x7f, 0x08, 0x04, 0x04, 0x78} // 68 h
  92:.\Nokia5110LCD.c ****   ,{0x00, 0x44, 0x7d, 0x40, 0x00} // 69 i
  93:.\Nokia5110LCD.c ****   ,{0x20, 0x40, 0x44, 0x3d, 0x00} // 6a j 
  94:.\Nokia5110LCD.c ****   ,{0x7f, 0x10, 0x28, 0x44, 0x00} // 6b k
  95:.\Nokia5110LCD.c ****   ,{0x00, 0x41, 0x7f, 0x40, 0x00} // 6c l
  96:.\Nokia5110LCD.c ****   ,{0x7c, 0x04, 0x18, 0x04, 0x78} // 6d m
  97:.\Nokia5110LCD.c ****   ,{0x7c, 0x08, 0x04, 0x04, 0x78} // 6e n
  98:.\Nokia5110LCD.c ****   ,{0x38, 0x44, 0x44, 0x44, 0x38} // 6f o
  99:.\Nokia5110LCD.c ****   ,{0x7c, 0x14, 0x14, 0x14, 0x08} // 70 p
 100:.\Nokia5110LCD.c ****   ,{0x08, 0x14, 0x14, 0x18, 0x7c} // 71 q
 101:.\Nokia5110LCD.c ****   ,{0x7c, 0x08, 0x04, 0x04, 0x08} // 72 r
 102:.\Nokia5110LCD.c ****   ,{0x48, 0x54, 0x54, 0x54, 0x20} // 73 s
 103:.\Nokia5110LCD.c ****   ,{0x04, 0x3f, 0x44, 0x40, 0x20} // 74 t
 104:.\Nokia5110LCD.c ****   ,{0x3c, 0x40, 0x40, 0x20, 0x7c} // 75 u
 105:.\Nokia5110LCD.c ****   ,{0x1c, 0x20, 0x40, 0x20, 0x1c} // 76 v
 106:.\Nokia5110LCD.c ****   ,{0x3c, 0x40, 0x30, 0x40, 0x3c} // 77 w
 107:.\Nokia5110LCD.c ****   ,{0x44, 0x28, 0x10, 0x28, 0x44} // 78 x
 108:.\Nokia5110LCD.c ****   ,{0x0c, 0x50, 0x50, 0x50, 0x3c} // 79 y
 109:.\Nokia5110LCD.c ****   ,{0x44, 0x64, 0x54, 0x4c, 0x44} // 7a z
 110:.\Nokia5110LCD.c ****   ,{0x00, 0x08, 0x36, 0x41, 0x00} // 7b {
 111:.\Nokia5110LCD.c ****   ,{0x00, 0x00, 0x7f, 0x00, 0x00} // 7c |
 112:.\Nokia5110LCD.c ****   ,{0x00, 0x41, 0x36, 0x08, 0x00} // 7d }
 113:.\Nokia5110LCD.c ****   ,{0x10, 0x08, 0x08, 0x10, 0x08} // 7e ~
 114:.\Nokia5110LCD.c ****   ,{0x78, 0x46, 0x41, 0x46, 0x78} // 7f DEL
 115:.\Nokia5110LCD.c **** };
 116:.\Nokia5110LCD.c **** 
 117:.\Nokia5110LCD.c **** //Cypress Logo in bitmap form using http://pixlr.com/editor/
 118:.\Nokia5110LCD.c **** 
 119:.\Nokia5110LCD.c **** static const char CypressLogo[] = {
 120:.\Nokia5110LCD.c **** 0x00, 0x00, 0x00, 0x00, 0x00, 0x80, 0x80, 0xA0, 0xB0, 0xB0, 0xB8, 0xB8, 0xBC, 0xBC, 0xFC, 0xFC,
 121:.\Nokia5110LCD.c **** 0xFC, 0xFC, 0xFC, 0xFC, 0xFC, 0xFC, 0xFC, 0xFC, 0xFC, 0xFC, 0xF8, 0xF8, 0xF0, 0xF0, 0xE0, 0x80,
 122:.\Nokia5110LCD.c **** 0x00, 0x00, 0x00, 0x00, 0x00, 0x00, 0x00, 0x00, 0x00, 0x00, 0x00, 0x00, 0x00, 0x00, 0x00, 0x00,
 123:.\Nokia5110LCD.c **** 0x00, 0x00, 0x00, 0x00, 0x00, 0x00, 0x00, 0x00, 0x00, 0x00, 0x00, 0x00, 0x00, 0x00, 0x00, 0x00,
 124:.\Nokia5110LCD.c **** 0x00, 0x00, 0x00, 0x00, 0x00, 0x00, 0x00, 0x00, 0x00, 0x00, 0x00, 0x00, 0x00, 0x00, 0x00, 0x00,
 125:.\Nokia5110LCD.c **** 0x00, 0x00, 0x00, 0x00, 0x00, 0x00, 0xC0, 0xF0, 0xF6, 0xF7, 0xF7, 0xF7, 0xF7, 0xF7, 0xF7, 0xFF,
 126:.\Nokia5110LCD.c **** 0x9F, 0x9F, 0x8F, 0x8F, 0x07, 0x03, 0x03, 0x03, 0x03, 0x01, 0x01, 0x01, 0x01, 0x01, 0x01, 0x01,
 127:.\Nokia5110LCD.c **** 0x01, 0x01, 0x07, 0x07, 0x07, 0x06, 0x04, 0x04, 0x04, 0x04, 0x0C, 0x1C, 0x10, 0xD0, 0xF0, 0x70,
 128:.\Nokia5110LCD.c **** 0x30, 0x30, 0x00, 0x00, 0x00, 0x00, 0x00, 0x00, 0x00, 0x00, 0x00, 0x00, 0x00, 0x00, 0x00, 0x00,
 129:.\Nokia5110LCD.c **** 0x00, 0x00, 0x00, 0x00, 0x00, 0x00, 0x00, 0x00, 0x00, 0x00, 0x00, 0x00, 0x00, 0x00, 0x00, 0x00,
 130:.\Nokia5110LCD.c **** 0x00, 0x00, 0x00, 0x00, 0x00, 0x00, 0x00, 0x00, 0x00, 0x00, 0x7B, 0x7B, 0x7B, 0x7B, 0x7B, 0x7B,
 131:.\Nokia5110LCD.c **** 0x7B, 0xFF, 0xFF, 0xFF, 0xFF, 0xFF, 0xFF, 0xFF, 0xFE, 0xFE, 0xFC, 0xFC, 0xFC, 0xFE, 0xFE, 0xFE,
 132:.\Nokia5110LCD.c **** 0xFE, 0xFE, 0xFE, 0xD8, 0x18, 0x00, 0x00, 0xD0, 0x70, 0xF8, 0xF0, 0xF8, 0x1C, 0x1E, 0x1E, 0x1E,
 133:.\Nokia5110LCD.c **** 0x1A, 0x15, 0x1F, 0x14, 0x1C, 0x0C, 0x04, 0x00, 0x00, 0x00, 0x00, 0x00, 0x00, 0x00, 0x00, 0x00,
 134:.\Nokia5110LCD.c **** 0x00, 0x00, 0x00, 0x00, 0x00, 0x00, 0x00, 0x00, 0x00, 0x00, 0x00, 0x00, 0x00, 0x00, 0x00, 0x00,
 135:.\Nokia5110LCD.c **** 0x00, 0x00, 0x00, 0x00, 0x00, 0x00, 0x00, 0x00, 0x00, 0x00, 0x00, 0x00, 0x00, 0x00, 0x03, 0x0F,
 136:.\Nokia5110LCD.c **** 0x3F, 0xBF, 0xBF, 0xBF, 0xBF, 0xBF, 0xBF, 0xBF, 0xFF, 0xFF, 0xFF, 0xFF, 0xFF, 0xFF, 0xFF, 0xFF,
 137:.\Nokia5110LCD.c **** 0xFF, 0xFF, 0xFF, 0xFF, 0x7F, 0x3F, 0x1F, 0xCF, 0xF0, 0xF8, 0xFF, 0xFF, 0xFF, 0x3F, 0x0F, 0x00,
 138:.\Nokia5110LCD.c **** 0x00, 0x00, 0xF8, 0x06, 0x03, 0x01, 0x01, 0x01, 0x03, 0x06, 0x01, 0x07, 0x39, 0xF8, 0x0F, 0x01,
 139:.\Nokia5110LCD.c **** 0x00, 0xFF, 0x61, 0x61, 0x61, 0x23, 0x1C, 0xFF, 0x21, 0x21, 0x21, 0xF3, 0x0C, 0x01, 0xFF, 0x21,
 140:.\Nokia5110LCD.c **** 0x21, 0x71, 0x03, 0x00, 0x1F, 0x31, 0x21, 0x23, 0xC7, 0x00, 0x1F, 0x31, 0x21, 0x63, 0xC7, 0x00,
 141:.\Nokia5110LCD.c **** 0x00, 0x00, 0x00, 0x00, 0x00, 0x01, 0x01, 0x07, 0x07, 0x07, 0x17, 0x17, 0x37, 0x37, 0x37, 0x37,
 142:.\Nokia5110LCD.c **** 0x3F, 0x3F, 0x3F, 0x3F, 0x3F, 0x3F, 0x3F, 0x07, 0x00, 0x30, 0x1C, 0x0F, 0x0F, 0x07, 0x03, 0x01,
 143:.\Nokia5110LCD.c **** 0x00, 0x00, 0x00, 0x00, 0x00, 0x00, 0x20, 0x23, 0x26, 0x24, 0x24, 0x24, 0x26, 0x20, 0x20, 0x20,
 144:.\Nokia5110LCD.c **** 0x24, 0x27, 0x20, 0x20, 0x20, 0x27, 0x24, 0x20, 0x20, 0x20, 0x20, 0x27, 0x24, 0x20, 0x20, 0x27,
 145:.\Nokia5110LCD.c **** 0x24, 0x24, 0x27, 0x24, 0x24, 0x24, 0x27, 0x27, 0x26, 0x24, 0x24, 0x24, 0x23, 0x27, 0x26, 0x24,
 146:.\Nokia5110LCD.c **** 0x24, 0x26, 0x23, 0x00, 0x00, 0x00, 0x00, 0x00, 0x00, 0x00, 0x00, 0x00, 0x00, 0x00, 0x00, 0x00,
ARM GAS  C:\Users\JEPPES~1\AppData\Local\Temp\cc9TkiBj.s 			page 4


 147:.\Nokia5110LCD.c **** 0x00, 0x00, 0x00, 0x00, 0x00, 0x00, 0x00, 0x00, 0x00, 0x00, 0x00, 0x00, 0x00, 0x00, 0x00, 0x00,
 148:.\Nokia5110LCD.c **** 0x00, 0x00, 0x00, 0x00, 0x00, 0x00, 0x00, 0x00, 0x00, 0x00, 0x00, 0x00, 0x00, 0x00, 0x00, 0x00,
 149:.\Nokia5110LCD.c **** 0x00, 0x00, 0x00, 0x00, 0x1F, 0x05, 0x00, 0x00, 0x00, 0x1F, 0x15, 0x00, 0x00, 0x00, 0x0F, 0x1F,
 150:.\Nokia5110LCD.c **** 0x00, 0x00, 0x00, 0x0F, 0x05, 0x00, 0x00, 0x00, 0x1A, 0x11, 0x09, 0x06, 0x00, 0x00, 0x1F, 0x0D,
 151:.\Nokia5110LCD.c **** 0x02, 0x00, 0x00, 0x1C, 0x0F, 0x0C, 0x1F, 0x00, 
 152:.\Nokia5110LCD.c **** };
 153:.\Nokia5110LCD.c **** 
 154:.\Nokia5110LCD.c **** /*******************************************************************************
 155:.\Nokia5110LCD.c **** * Function Name: LCD_Character
 156:.\Nokia5110LCD.c **** ********************************************************************************
 157:.\Nokia5110LCD.c **** *
 158:.\Nokia5110LCD.c **** * Summary:
 159:.\Nokia5110LCD.c **** *  Set the data mode and map the character to the corresponding data based on 
 160:.\Nokia5110LCD.c **** *  ASCII value and send it to LCD. Before & after a character (width of 5 segments)
 161:.\Nokia5110LCD.c **** *  insert a space character (width of 1 segment each) for clarity
 162:.\Nokia5110LCD.c **** *
 163:.\Nokia5110LCD.c **** * Parameters:  
 164:.\Nokia5110LCD.c **** *  uint8 character - Send the character to be displayed
 165:.\Nokia5110LCD.c **** *
 166:.\Nokia5110LCD.c **** * Return: 
 167:.\Nokia5110LCD.c **** *  None 
 168:.\Nokia5110LCD.c **** *  
 169:.\Nokia5110LCD.c **** *******************************************************************************/
 170:.\Nokia5110LCD.c **** 
 171:.\Nokia5110LCD.c **** void LCD_Character(uint8 character)
 172:.\Nokia5110LCD.c **** {
 173:.\Nokia5110LCD.c **** 	uint16 index1;
 174:.\Nokia5110LCD.c **** 	LCD_Write(LCD_DATA, EMPTY_COLUMN_DATA);
 175:.\Nokia5110LCD.c **** 
 176:.\Nokia5110LCD.c **** 	for (index1 = 0 ; index1 < FONT_WIDTH ; index1++)
 177:.\Nokia5110LCD.c ****         LCD_Write(LCD_DATA, Fonts[character - OFFSET_FOR_ASCII][index1]);
 178:.\Nokia5110LCD.c **** 
 179:.\Nokia5110LCD.c ****     LCD_Write(LCD_DATA, EMPTY_COLUMN_DATA);
 180:.\Nokia5110LCD.c **** }
 181:.\Nokia5110LCD.c **** 
 182:.\Nokia5110LCD.c **** /*******************************************************************************
 183:.\Nokia5110LCD.c **** * Function Name: LCD_Clear
 184:.\Nokia5110LCD.c **** ********************************************************************************
 185:.\Nokia5110LCD.c **** *
 186:.\Nokia5110LCD.c **** * Summary:
 187:.\Nokia5110LCD.c **** *  Write 0 to all the segments of LCD from 0,0 to 84,48
 188:.\Nokia5110LCD.c **** *
 189:.\Nokia5110LCD.c **** * Parameters:  
 190:.\Nokia5110LCD.c **** *  None 
 191:.\Nokia5110LCD.c **** *
 192:.\Nokia5110LCD.c **** * Return: 
 193:.\Nokia5110LCD.c **** *  None 
 194:.\Nokia5110LCD.c **** *  
 195:.\Nokia5110LCD.c **** *******************************************************************************/
 196:.\Nokia5110LCD.c **** 
 197:.\Nokia5110LCD.c **** void LCD_Clear(void)
 198:.\Nokia5110LCD.c **** {
 199:.\Nokia5110LCD.c ****     uint16 index2;
 200:.\Nokia5110LCD.c ****     LCD_gotoXY(COLUMN_BEGINNING, ROW_BEGINNING);
 201:.\Nokia5110LCD.c ****     
 202:.\Nokia5110LCD.c **** 	for (index2 = 0 ; index2 < (LCD_X * LCD_Y/FONT_HEIGHT) ; index2++)
 203:.\Nokia5110LCD.c ****     	LCD_Write(LCD_DATA, EMPTY_COLUMN_DATA);
ARM GAS  C:\Users\JEPPES~1\AppData\Local\Temp\cc9TkiBj.s 			page 5


 204:.\Nokia5110LCD.c ****         
 205:.\Nokia5110LCD.c ****   	LCD_gotoXY(COLUMN_BEGINNING, ROW_BEGINNING);
 206:.\Nokia5110LCD.c **** }
 207:.\Nokia5110LCD.c **** 
 208:.\Nokia5110LCD.c **** /*******************************************************************************
 209:.\Nokia5110LCD.c **** * Function Name: LCD_Init
 210:.\Nokia5110LCD.c **** ********************************************************************************
 211:.\Nokia5110LCD.c **** *
 212:.\Nokia5110LCD.c **** * Summary:
 213:.\Nokia5110LCD.c **** *  Enable power to LCD's Vcc & BL pins and also send the initialization sequence
 214:.\Nokia5110LCD.c **** *  to the LCD. At the end, display Cypress Logo and wait for 1 second 
 215:.\Nokia5110LCD.c **** *
 216:.\Nokia5110LCD.c **** * Parameters:  
 217:.\Nokia5110LCD.c **** *  None 
 218:.\Nokia5110LCD.c **** *
 219:.\Nokia5110LCD.c **** * Return: 
 220:.\Nokia5110LCD.c **** *  None 
 221:.\Nokia5110LCD.c **** *  
 222:.\Nokia5110LCD.c **** *******************************************************************************/
 223:.\Nokia5110LCD.c **** 
 224:.\Nokia5110LCD.c **** void LCD_Init(void)
 225:.\Nokia5110LCD.c **** {
 226:.\Nokia5110LCD.c ****     /* Enable Gnd, Vcc & Backlight pins */
 227:.\Nokia5110LCD.c ****     Gnd_Write(LOW);
 228:.\Nokia5110LCD.c ****     Vcc_Write(HIGH);
 229:.\Nokia5110LCD.c ****     BL_Write(HIGH);
 230:.\Nokia5110LCD.c ****     
 231:.\Nokia5110LCD.c ****     /* Reset the LCD - Active Low (1 -> 0 -> 1) */
 232:.\Nokia5110LCD.c ****     RST_Write(HIGH);
 233:.\Nokia5110LCD.c ****     CyDelay(DELAY_1_MS);
 234:.\Nokia5110LCD.c ****     RST_Write(LOW);
 235:.\Nokia5110LCD.c ****     CyDelay(DELAY_1_MS);
 236:.\Nokia5110LCD.c ****     RST_Write(HIGH);
 237:.\Nokia5110LCD.c ****     CyDelay(DELAY_1_MS);
 238:.\Nokia5110LCD.c ****     
 239:.\Nokia5110LCD.c ****     /* No Power Down, Horizontal Addressing Mode, Extended Instruction set */
 240:.\Nokia5110LCD.c ****     /* 0x21 = 0010 0001    Instruction : Function Set (H=1)*/
 241:.\Nokia5110LCD.c ****     LCD_Write(LCD_COMMAND, CMD_FUNCTION_SET | ((((PD_CHIP_ACTIVE << PD_SHIFT) & PD_MASK) \
 242:.\Nokia5110LCD.c ****     | ((V_HORIZONTAL_ADD << V_SHIFT) & V_MASK) | ((H_EXTENDED_INST << H_SHIFT) & H_MASK)) \
 243:.\Nokia5110LCD.c ****     & FUNCTION_SET_MASK));
 244:.\Nokia5110LCD.c ****         
 245:.\Nokia5110LCD.c ****     /* Set LCD Vop (Contrast): Try 0xB1(good @ 3.3V) or 0xBF if your display is too dark */
 246:.\Nokia5110LCD.c ****     /* 0xB1 = 1100 0000    Instruction : Set Vop */
 247:.\Nokia5110LCD.c ****     LCD_Write(LCD_COMMAND, CMD_SET_VOP | (SET_VOP_5V & SET_VOP_MASK));
 248:.\Nokia5110LCD.c ****   	
 249:.\Nokia5110LCD.c ****     /* Set Temp coefficent */
 250:.\Nokia5110LCD.c ****     /* 0x04 = 0000 0100    Instruction : Temperature Control */
 251:.\Nokia5110LCD.c ****     LCD_Write(LCD_COMMAND, CMD_TEMP_CONTROL | (TEMP_CONTROL_COEFF0 & TEMP_CONTROL_MASK));
 252:.\Nokia5110LCD.c ****   	
 253:.\Nokia5110LCD.c ****     /* LCD bias mode 1:48: Try 0x13 or 0x14 */
 254:.\Nokia5110LCD.c ****     /* 0x13 = 0001 0100    Instruction : Bias System */
 255:.\Nokia5110LCD.c ****     LCD_Write(LCD_COMMAND, CMD_BIAS_SYSTEM | (BIAS_1_BY_8 & BIAS_SYSTEM_MASK));
 256:.\Nokia5110LCD.c ****     
 257:.\Nokia5110LCD.c ****     /* We must send 0x20 before modifying the display control mode */
 258:.\Nokia5110LCD.c ****     /* 0x20 = 0010 0000    Instruction : Function set (H=0)*/
 259:.\Nokia5110LCD.c ****     LCD_Write(LCD_COMMAND, CMD_FUNCTION_SET | ((PD_CHIP_ACTIVE << (PD_SHIFT - 1)) & FUNCTION_SET_MA
 260:.\Nokia5110LCD.c ****     
ARM GAS  C:\Users\JEPPES~1\AppData\Local\Temp\cc9TkiBj.s 			page 6


 261:.\Nokia5110LCD.c ****     /* Set display control, normal mode. 0x0D for inverse */
 262:.\Nokia5110LCD.c ****     /* 0x0C = 0000 1101    Instruction : Display control */
 263:.\Nokia5110LCD.c ****     LCD_Write(LCD_COMMAND, CMD_DISPLAY_CONTROL | (DISPLAY_NORMAL & DISPLAY_CONTROL_MASK));
 264:.\Nokia5110LCD.c ****     
 265:.\Nokia5110LCD.c ****     /* Clear the LCD screen */
 266:.\Nokia5110LCD.c ****     LCD_Clear();
 267:.\Nokia5110LCD.c ****     
 268:.\Nokia5110LCD.c ****     /* Display bitmap image of Cypress Logo on the LCD */
 269:.\Nokia5110LCD.c **** //    LCD_Bitmap(CypressLogo);
 270:.\Nokia5110LCD.c ****     
 271:.\Nokia5110LCD.c ****     /* Wait for 1 second before clearing the display */
 272:.\Nokia5110LCD.c **** //    CyDelay(1000);
 273:.\Nokia5110LCD.c ****     
 274:.\Nokia5110LCD.c ****     LCD_Clear();
 275:.\Nokia5110LCD.c **** }
 276:.\Nokia5110LCD.c **** 
 277:.\Nokia5110LCD.c **** /*******************************************************************************
 278:.\Nokia5110LCD.c **** * Function Name: LCD_String
 279:.\Nokia5110LCD.c **** ********************************************************************************
 280:.\Nokia5110LCD.c **** *
 281:.\Nokia5110LCD.c **** * Summary:
 282:.\Nokia5110LCD.c **** *  Send all the characters of a string to LCD one after the other till null character
 283:.\Nokia5110LCD.c **** *
 284:.\Nokia5110LCD.c **** * Parameters:  
 285:.\Nokia5110LCD.c **** *  char *characters - Pointer to a string 
 286:.\Nokia5110LCD.c **** *
 287:.\Nokia5110LCD.c **** * Return: 
 288:.\Nokia5110LCD.c **** *  None 
 289:.\Nokia5110LCD.c **** *  
 290:.\Nokia5110LCD.c **** *******************************************************************************/
 291:.\Nokia5110LCD.c **** 
 292:.\Nokia5110LCD.c **** void LCD_String(char *characters)
 293:.\Nokia5110LCD.c **** {
 294:.\Nokia5110LCD.c **** 	while (*characters)
 295:.\Nokia5110LCD.c ****         LCD_Character(*characters++);
 296:.\Nokia5110LCD.c **** }
 297:.\Nokia5110LCD.c **** 
 298:.\Nokia5110LCD.c **** /*******************************************************************************
 299:.\Nokia5110LCD.c **** * Function Name: LCD_Write
 300:.\Nokia5110LCD.c **** ********************************************************************************
 301:.\Nokia5110LCD.c **** *
 302:.\Nokia5110LCD.c **** * Summary:
 303:.\Nokia5110LCD.c **** *  Mark the value as Data or Command (DC pin) and send it to LCD.
 304:.\Nokia5110LCD.c **** *  Chip enable (CE) pin has to be driven LOW before sending the new data
 305:.\Nokia5110LCD.c **** *
 306:.\Nokia5110LCD.c **** * Parameters:  
 307:.\Nokia5110LCD.c **** *  uint8 data_or_command    - 1 represents Data and 0 represents Command
 308:.\Nokia5110LCD.c **** *  uint8 data_value         - 8 bit value to be sent to the LCD
 309:.\Nokia5110LCD.c **** *
 310:.\Nokia5110LCD.c **** * Return: 
 311:.\Nokia5110LCD.c **** *  None 
 312:.\Nokia5110LCD.c **** *  
 313:.\Nokia5110LCD.c **** *******************************************************************************/
 314:.\Nokia5110LCD.c **** 
 315:.\Nokia5110LCD.c **** void LCD_Write(uint8 data_or_command, uint8 data_value)
 316:.\Nokia5110LCD.c **** {
 317:.\Nokia5110LCD.c ****     CE_Write(LOW);
ARM GAS  C:\Users\JEPPES~1\AppData\Local\Temp\cc9TkiBj.s 			page 7


 318:.\Nokia5110LCD.c ****     CyDelayUs(DELAY_1_US);
 319:.\Nokia5110LCD.c ****     DC_Write(data_or_command);
 320:.\Nokia5110LCD.c ****     Send_Data(data_value);
 321:.\Nokia5110LCD.c ****     CE_Write(HIGH);
 322:.\Nokia5110LCD.c ****     CyDelayUs(DELAY_1_US);
 323:.\Nokia5110LCD.c **** }
 324:.\Nokia5110LCD.c **** 
 325:.\Nokia5110LCD.c **** /*******************************************************************************
 326:.\Nokia5110LCD.c **** * Function Name: Send_Data
 327:.\Nokia5110LCD.c **** ********************************************************************************
 328:.\Nokia5110LCD.c **** *
 329:.\Nokia5110LCD.c **** * Summary:
 330:.\Nokia5110LCD.c **** *  Low level API to send the data in bit-banging method (bit-by-bit using CPU)
 331:.\Nokia5110LCD.c **** *
 332:.\Nokia5110LCD.c **** * Parameters:  
 333:.\Nokia5110LCD.c **** *  int8 value   -   8-bit Value to be sent
 334:.\Nokia5110LCD.c **** *
 335:.\Nokia5110LCD.c **** * Return: 
 336:.\Nokia5110LCD.c **** *  None 
 337:.\Nokia5110LCD.c **** *  
 338:.\Nokia5110LCD.c **** *******************************************************************************/
 339:.\Nokia5110LCD.c **** 
 340:.\Nokia5110LCD.c **** void Send_Data(int8 value)
 341:.\Nokia5110LCD.c **** {
  26              		.loc 1 341 0
  27              		.cfi_startproc
  28              	.LVL0:
  29 0000 38B5     		push	{r3, r4, r5, lr}
  30              		.cfi_def_cfa_offset 16
  31              		.cfi_offset 3, -16
  32              		.cfi_offset 4, -12
  33              		.cfi_offset 5, -8
  34              		.cfi_offset 14, -4
  35 0002 051C     		mov	r5, r0
  36              	.LVL1:
 342:.\Nokia5110LCD.c ****     uint8 index3;
 343:.\Nokia5110LCD.c ****     for (index3 = 0; index3 < FONT_HEIGHT; index3++)
  37              		.loc 1 343 0
  38 0004 0024     		mov	r4, #0
  39 0006 18E0     		b	.L2
  40              	.LVL2:
  41              	.L5:
 344:.\Nokia5110LCD.c ****     {
 345:.\Nokia5110LCD.c ****         /* Take one bit (MSb) at a time and send it to Data Input pin of LCD */
 346:.\Nokia5110LCD.c ****         if(MSb_POSITION == (value & MSb_POSITION))
  42              		.loc 1 346 0
  43 0008 002D     		cmp	r5, #0
  44 000a 03DA     		bge	.L3
 347:.\Nokia5110LCD.c ****             Din_Write(HIGH);
  45              		.loc 1 347 0
  46 000c 0120     		mov	r0, #1
  47 000e FFF7FEFF 		bl	Din_Write
  48              	.LVL3:
  49 0012 02E0     		b	.L4
  50              	.L3:
 348:.\Nokia5110LCD.c ****         else
 349:.\Nokia5110LCD.c ****             Din_Write(LOW);
ARM GAS  C:\Users\JEPPES~1\AppData\Local\Temp\cc9TkiBj.s 			page 8


  51              		.loc 1 349 0
  52 0014 0020     		mov	r0, #0
  53 0016 FFF7FEFF 		bl	Din_Write
  54              	.LVL4:
  55              	.L4:
 350:.\Nokia5110LCD.c ****         
 351:.\Nokia5110LCD.c ****         /* After setting the Data value on Din pin, toggle the Clock so that LCD can read Din */
 352:.\Nokia5110LCD.c ****         Clk_Write(HIGH);
  56              		.loc 1 352 0 discriminator 2
  57 001a 0120     		mov	r0, #1
  58 001c FFF7FEFF 		bl	Clk_Write
  59              	.LVL5:
 353:.\Nokia5110LCD.c ****         CyDelayUs(DELAY_1_US);
  60              		.loc 1 353 0 discriminator 2
  61 0020 0120     		mov	r0, #1
  62 0022 FFF7FEFF 		bl	CyDelayUs
  63              	.LVL6:
 354:.\Nokia5110LCD.c ****         Clk_Write(LOW);
  64              		.loc 1 354 0 discriminator 2
  65 0026 0020     		mov	r0, #0
  66 0028 FFF7FEFF 		bl	Clk_Write
  67              	.LVL7:
 355:.\Nokia5110LCD.c ****         CyDelayUs(DELAY_1_US);
  68              		.loc 1 355 0 discriminator 2
  69 002c 0120     		mov	r0, #1
  70 002e FFF7FEFF 		bl	CyDelayUs
  71              	.LVL8:
 356:.\Nokia5110LCD.c ****         
 357:.\Nokia5110LCD.c ****         /* Left shift the value before processing next bit */
 358:.\Nokia5110LCD.c ****         value <<= SHIFT_LEFT_BY_1;
  72              		.loc 1 358 0 discriminator 2
  73 0032 6D00     		lsl	r5, r5, #1
  74              	.LVL9:
  75 0034 6DB2     		sxtb	r5, r5
  76              	.LVL10:
 343:.\Nokia5110LCD.c ****     {
  77              		.loc 1 343 0 discriminator 2
  78 0036 0134     		add	r4, r4, #1
  79              	.LVL11:
  80 0038 E4B2     		uxtb	r4, r4
  81              	.LVL12:
  82              	.L2:
 343:.\Nokia5110LCD.c ****     {
  83              		.loc 1 343 0 is_stmt 0 discriminator 1
  84 003a 072C     		cmp	r4, #7
  85 003c E4D9     		bls	.L5
 359:.\Nokia5110LCD.c ****     }
 360:.\Nokia5110LCD.c **** }
  86              		.loc 1 360 0 is_stmt 1
  87              		@ sp needed
  88              	.LVL13:
  89              	.LVL14:
  90 003e 38BD     		pop	{r3, r4, r5, pc}
  91              		.cfi_endproc
  92              	.LFE39:
  93              		.size	Send_Data, .-Send_Data
  94              		.section	.text.LCD_Write,"ax",%progbits
ARM GAS  C:\Users\JEPPES~1\AppData\Local\Temp\cc9TkiBj.s 			page 9


  95              		.align	2
  96              		.global	LCD_Write
  97              		.code	16
  98              		.thumb_func
  99              		.type	LCD_Write, %function
 100              	LCD_Write:
 101              	.LFB38:
 316:.\Nokia5110LCD.c ****     CE_Write(LOW);
 102              		.loc 1 316 0
 103              		.cfi_startproc
 104              	.LVL15:
 105 0000 38B5     		push	{r3, r4, r5, lr}
 106              		.cfi_def_cfa_offset 16
 107              		.cfi_offset 3, -16
 108              		.cfi_offset 4, -12
 109              		.cfi_offset 5, -8
 110              		.cfi_offset 14, -4
 111 0002 051C     		mov	r5, r0
 112 0004 0C1C     		mov	r4, r1
 317:.\Nokia5110LCD.c ****     CyDelayUs(DELAY_1_US);
 113              		.loc 1 317 0
 114 0006 0020     		mov	r0, #0
 115              	.LVL16:
 116 0008 FFF7FEFF 		bl	CE_Write
 117              	.LVL17:
 318:.\Nokia5110LCD.c ****     DC_Write(data_or_command);
 118              		.loc 1 318 0
 119 000c 0120     		mov	r0, #1
 120 000e FFF7FEFF 		bl	CyDelayUs
 121              	.LVL18:
 319:.\Nokia5110LCD.c ****     Send_Data(data_value);
 122              		.loc 1 319 0
 123 0012 281C     		mov	r0, r5
 124 0014 FFF7FEFF 		bl	DC_Write
 125              	.LVL19:
 320:.\Nokia5110LCD.c ****     CE_Write(HIGH);
 126              		.loc 1 320 0
 127 0018 60B2     		sxtb	r0, r4
 128 001a FFF7FEFF 		bl	Send_Data
 129              	.LVL20:
 321:.\Nokia5110LCD.c ****     CyDelayUs(DELAY_1_US);
 130              		.loc 1 321 0
 131 001e 0120     		mov	r0, #1
 132 0020 FFF7FEFF 		bl	CE_Write
 133              	.LVL21:
 322:.\Nokia5110LCD.c **** }
 134              		.loc 1 322 0
 135 0024 0120     		mov	r0, #1
 136 0026 FFF7FEFF 		bl	CyDelayUs
 137              	.LVL22:
 323:.\Nokia5110LCD.c **** 
 138              		.loc 1 323 0
 139              		@ sp needed
 140 002a 38BD     		pop	{r3, r4, r5, pc}
 141              		.cfi_endproc
 142              	.LFE38:
 143              		.size	LCD_Write, .-LCD_Write
ARM GAS  C:\Users\JEPPES~1\AppData\Local\Temp\cc9TkiBj.s 			page 10


 144              		.section	.text.LCD_Character,"ax",%progbits
 145              		.align	2
 146              		.global	LCD_Character
 147              		.code	16
 148              		.thumb_func
 149              		.type	LCD_Character, %function
 150              	LCD_Character:
 151              	.LFB34:
 172:.\Nokia5110LCD.c **** 	uint16 index1;
 152              		.loc 1 172 0
 153              		.cfi_startproc
 154              	.LVL23:
 155 0000 38B5     		push	{r3, r4, r5, lr}
 156              		.cfi_def_cfa_offset 16
 157              		.cfi_offset 3, -16
 158              		.cfi_offset 4, -12
 159              		.cfi_offset 5, -8
 160              		.cfi_offset 14, -4
 161 0002 051C     		mov	r5, r0
 174:.\Nokia5110LCD.c **** 
 162              		.loc 1 174 0
 163 0004 0120     		mov	r0, #1
 164              	.LVL24:
 165 0006 0021     		mov	r1, #0
 166 0008 FFF7FEFF 		bl	LCD_Write
 167              	.LVL25:
 176:.\Nokia5110LCD.c ****         LCD_Write(LCD_DATA, Fonts[character - OFFSET_FOR_ASCII][index1]);
 168              		.loc 1 176 0
 169 000c 0024     		mov	r4, #0
 170 000e 0BE0     		b	.L8
 171              	.LVL26:
 172              	.L9:
 177:.\Nokia5110LCD.c **** 
 173              		.loc 1 177 0 discriminator 3
 174 0010 2B1C     		mov	r3, r5
 175 0012 203B     		sub	r3, r3, #32
 176 0014 9A00     		lsl	r2, r3, #2
 177 0016 D318     		add	r3, r2, r3
 178 0018 1B19     		add	r3, r3, r4
 179 001a 074A     		ldr	r2, .L10
 180 001c 995C     		ldrb	r1, [r3, r2]
 181 001e 0120     		mov	r0, #1
 182 0020 FFF7FEFF 		bl	LCD_Write
 183              	.LVL27:
 176:.\Nokia5110LCD.c ****         LCD_Write(LCD_DATA, Fonts[character - OFFSET_FOR_ASCII][index1]);
 184              		.loc 1 176 0 discriminator 3
 185 0024 0134     		add	r4, r4, #1
 186              	.LVL28:
 187 0026 A4B2     		uxth	r4, r4
 188              	.LVL29:
 189              	.L8:
 176:.\Nokia5110LCD.c ****         LCD_Write(LCD_DATA, Fonts[character - OFFSET_FOR_ASCII][index1]);
 190              		.loc 1 176 0 is_stmt 0 discriminator 1
 191 0028 042C     		cmp	r4, #4
 192 002a F1D9     		bls	.L9
 179:.\Nokia5110LCD.c **** }
 193              		.loc 1 179 0 is_stmt 1
ARM GAS  C:\Users\JEPPES~1\AppData\Local\Temp\cc9TkiBj.s 			page 11


 194 002c 0120     		mov	r0, #1
 195 002e 0021     		mov	r1, #0
 196 0030 FFF7FEFF 		bl	LCD_Write
 197              	.LVL30:
 180:.\Nokia5110LCD.c **** 
 198              		.loc 1 180 0
 199              		@ sp needed
 200              	.LVL31:
 201 0034 38BD     		pop	{r3, r4, r5, pc}
 202              	.L11:
 203 0036 C046     		.align	2
 204              	.L10:
 205 0038 00000000 		.word	.LANCHOR0
 206              		.cfi_endproc
 207              	.LFE34:
 208              		.size	LCD_Character, .-LCD_Character
 209              		.section	.text.LCD_String,"ax",%progbits
 210              		.align	2
 211              		.global	LCD_String
 212              		.code	16
 213              		.thumb_func
 214              		.type	LCD_String, %function
 215              	LCD_String:
 216              	.LFB37:
 293:.\Nokia5110LCD.c **** 	while (*characters)
 217              		.loc 1 293 0
 218              		.cfi_startproc
 219              	.LVL32:
 220 0000 10B5     		push	{r4, lr}
 221              		.cfi_def_cfa_offset 8
 222              		.cfi_offset 4, -8
 223              		.cfi_offset 14, -4
 224 0002 041C     		mov	r4, r0
 294:.\Nokia5110LCD.c ****         LCD_Character(*characters++);
 225              		.loc 1 294 0
 226 0004 02E0     		b	.L13
 227              	.LVL33:
 228              	.L14:
 295:.\Nokia5110LCD.c **** }
 229              		.loc 1 295 0
 230 0006 0134     		add	r4, r4, #1
 231              	.LVL34:
 232 0008 FFF7FEFF 		bl	LCD_Character
 233              	.LVL35:
 234              	.L13:
 294:.\Nokia5110LCD.c ****         LCD_Character(*characters++);
 235              		.loc 1 294 0
 236 000c 2078     		ldrb	r0, [r4]
 237 000e 0028     		cmp	r0, #0
 238 0010 F9D1     		bne	.L14
 296:.\Nokia5110LCD.c **** 
 239              		.loc 1 296 0
 240              		@ sp needed
 241              	.LVL36:
 242 0012 10BD     		pop	{r4, pc}
 243              		.cfi_endproc
 244              	.LFE37:
ARM GAS  C:\Users\JEPPES~1\AppData\Local\Temp\cc9TkiBj.s 			page 12


 245              		.size	LCD_String, .-LCD_String
 246              		.section	.text.LCD_gotoXY,"ax",%progbits
 247              		.align	2
 248              		.global	LCD_gotoXY
 249              		.code	16
 250              		.thumb_func
 251              		.type	LCD_gotoXY, %function
 252              	LCD_gotoXY:
 253              	.LFB40:
 361:.\Nokia5110LCD.c **** 
 362:.\Nokia5110LCD.c **** /*******************************************************************************
 363:.\Nokia5110LCD.c **** * Function Name: LCD_gotoXY
 364:.\Nokia5110LCD.c **** ********************************************************************************
 365:.\Nokia5110LCD.c **** *
 366:.\Nokia5110LCD.c **** * Summary:
 367:.\Nokia5110LCD.c **** *  Set the cursor to the position defined by x & y parameters
 368:.\Nokia5110LCD.c **** *
 369:.\Nokia5110LCD.c **** * Parameters:  
 370:.\Nokia5110LCD.c **** *  uint8 x  - Column data (Accepted values are from 0 to 83)    -   84 segments
 371:.\Nokia5110LCD.c **** *  uint8 y  - Row data (Accepted values are from 0 to 5)        -   48 segments
 372:.\Nokia5110LCD.c **** *  Each byte value of y correspond to 8 segments of LCD
 373:.\Nokia5110LCD.c **** *
 374:.\Nokia5110LCD.c **** * Return: 
 375:.\Nokia5110LCD.c **** *  None 
 376:.\Nokia5110LCD.c **** *  
 377:.\Nokia5110LCD.c **** *******************************************************************************/
 378:.\Nokia5110LCD.c **** 
 379:.\Nokia5110LCD.c **** void LCD_gotoXY(uint8 x, uint8 y)
 380:.\Nokia5110LCD.c **** {
 254              		.loc 1 380 0
 255              		.cfi_startproc
 256              	.LVL37:
 257 0000 10B5     		push	{r4, lr}
 258              		.cfi_def_cfa_offset 8
 259              		.cfi_offset 4, -8
 260              		.cfi_offset 14, -4
 261 0002 0C1C     		mov	r4, r1
 381:.\Nokia5110LCD.c ****     LCD_Write(LCD_COMMAND, CMD_COLUMN_DATA  | (x & COLUMN_DATA_MASK));                       // Col
 262              		.loc 1 381 0
 263 0004 8021     		mov	r1, #128
 264              	.LVL38:
 265 0006 0143     		orr	r1, r0
 266 0008 0020     		mov	r0, #0
 267              	.LVL39:
 268 000a FFF7FEFF 		bl	LCD_Write
 269              	.LVL40:
 382:.\Nokia5110LCD.c ****     LCD_Write(LCD_COMMAND, CMD_ROW_DATA     | (y & ROW_DATA_MASK));     // Row : Last 3 bits are va
 270              		.loc 1 382 0
 271 000e 0721     		mov	r1, #7
 272 0010 2140     		and	r1, r4
 273 0012 4023     		mov	r3, #64
 274 0014 1943     		orr	r1, r3
 275 0016 0020     		mov	r0, #0
 276 0018 FFF7FEFF 		bl	LCD_Write
 277              	.LVL41:
 383:.\Nokia5110LCD.c **** }
 278              		.loc 1 383 0
ARM GAS  C:\Users\JEPPES~1\AppData\Local\Temp\cc9TkiBj.s 			page 13


 279              		@ sp needed
 280 001c 10BD     		pop	{r4, pc}
 281              		.cfi_endproc
 282              	.LFE40:
 283              		.size	LCD_gotoXY, .-LCD_gotoXY
 284 001e C046     		.section	.text.LCD_Clear,"ax",%progbits
 285              		.align	2
 286              		.global	LCD_Clear
 287              		.code	16
 288              		.thumb_func
 289              		.type	LCD_Clear, %function
 290              	LCD_Clear:
 291              	.LFB35:
 198:.\Nokia5110LCD.c ****     uint16 index2;
 292              		.loc 1 198 0
 293              		.cfi_startproc
 294 0000 10B5     		push	{r4, lr}
 295              		.cfi_def_cfa_offset 8
 296              		.cfi_offset 4, -8
 297              		.cfi_offset 14, -4
 200:.\Nokia5110LCD.c ****     
 298              		.loc 1 200 0
 299 0002 0020     		mov	r0, #0
 300 0004 0021     		mov	r1, #0
 301 0006 FFF7FEFF 		bl	LCD_gotoXY
 302              	.LVL42:
 202:.\Nokia5110LCD.c ****     	LCD_Write(LCD_DATA, EMPTY_COLUMN_DATA);
 303              		.loc 1 202 0
 304 000a 0024     		mov	r4, #0
 305 000c 05E0     		b	.L17
 306              	.LVL43:
 307              	.L18:
 203:.\Nokia5110LCD.c ****         
 308              		.loc 1 203 0 discriminator 3
 309 000e 0120     		mov	r0, #1
 310 0010 0021     		mov	r1, #0
 311 0012 FFF7FEFF 		bl	LCD_Write
 312              	.LVL44:
 202:.\Nokia5110LCD.c ****     	LCD_Write(LCD_DATA, EMPTY_COLUMN_DATA);
 313              		.loc 1 202 0 discriminator 3
 314 0016 0134     		add	r4, r4, #1
 315              	.LVL45:
 316 0018 A4B2     		uxth	r4, r4
 317              	.LVL46:
 318              	.L17:
 202:.\Nokia5110LCD.c ****     	LCD_Write(LCD_DATA, EMPTY_COLUMN_DATA);
 319              		.loc 1 202 0 is_stmt 0 discriminator 1
 320 001a F823     		mov	r3, #248
 321 001c FF33     		add	r3, r3, #255
 322 001e 9C42     		cmp	r4, r3
 323 0020 F5D9     		bls	.L18
 205:.\Nokia5110LCD.c **** }
 324              		.loc 1 205 0 is_stmt 1
 325 0022 0020     		mov	r0, #0
 326 0024 0021     		mov	r1, #0
 327 0026 FFF7FEFF 		bl	LCD_gotoXY
 328              	.LVL47:
ARM GAS  C:\Users\JEPPES~1\AppData\Local\Temp\cc9TkiBj.s 			page 14


 206:.\Nokia5110LCD.c **** 
 329              		.loc 1 206 0
 330              		@ sp needed
 331              	.LVL48:
 332 002a 10BD     		pop	{r4, pc}
 333              		.cfi_endproc
 334              	.LFE35:
 335              		.size	LCD_Clear, .-LCD_Clear
 336              		.section	.text.LCD_Init,"ax",%progbits
 337              		.align	2
 338              		.global	LCD_Init
 339              		.code	16
 340              		.thumb_func
 341              		.type	LCD_Init, %function
 342              	LCD_Init:
 343              	.LFB36:
 225:.\Nokia5110LCD.c ****     /* Enable Gnd, Vcc & Backlight pins */
 344              		.loc 1 225 0
 345              		.cfi_startproc
 346 0000 08B5     		push	{r3, lr}
 347              		.cfi_def_cfa_offset 8
 348              		.cfi_offset 3, -8
 349              		.cfi_offset 14, -4
 227:.\Nokia5110LCD.c ****     Vcc_Write(HIGH);
 350              		.loc 1 227 0
 351 0002 0020     		mov	r0, #0
 352 0004 FFF7FEFF 		bl	Gnd_Write
 353              	.LVL49:
 228:.\Nokia5110LCD.c ****     BL_Write(HIGH);
 354              		.loc 1 228 0
 355 0008 0120     		mov	r0, #1
 356 000a FFF7FEFF 		bl	Vcc_Write
 357              	.LVL50:
 229:.\Nokia5110LCD.c ****     
 358              		.loc 1 229 0
 359 000e 0120     		mov	r0, #1
 360 0010 FFF7FEFF 		bl	BL_Write
 361              	.LVL51:
 232:.\Nokia5110LCD.c ****     CyDelay(DELAY_1_MS);
 362              		.loc 1 232 0
 363 0014 0120     		mov	r0, #1
 364 0016 FFF7FEFF 		bl	RST_Write
 365              	.LVL52:
 233:.\Nokia5110LCD.c ****     RST_Write(LOW);
 366              		.loc 1 233 0
 367 001a 0120     		mov	r0, #1
 368 001c FFF7FEFF 		bl	CyDelay
 369              	.LVL53:
 234:.\Nokia5110LCD.c ****     CyDelay(DELAY_1_MS);
 370              		.loc 1 234 0
 371 0020 0020     		mov	r0, #0
 372 0022 FFF7FEFF 		bl	RST_Write
 373              	.LVL54:
 235:.\Nokia5110LCD.c ****     RST_Write(HIGH);
 374              		.loc 1 235 0
 375 0026 0120     		mov	r0, #1
 376 0028 FFF7FEFF 		bl	CyDelay
ARM GAS  C:\Users\JEPPES~1\AppData\Local\Temp\cc9TkiBj.s 			page 15


 377              	.LVL55:
 236:.\Nokia5110LCD.c ****     CyDelay(DELAY_1_MS);
 378              		.loc 1 236 0
 379 002c 0120     		mov	r0, #1
 380 002e FFF7FEFF 		bl	RST_Write
 381              	.LVL56:
 237:.\Nokia5110LCD.c ****     
 382              		.loc 1 237 0
 383 0032 0120     		mov	r0, #1
 384 0034 FFF7FEFF 		bl	CyDelay
 385              	.LVL57:
 241:.\Nokia5110LCD.c ****     | ((V_HORIZONTAL_ADD << V_SHIFT) & V_MASK) | ((H_EXTENDED_INST << H_SHIFT) & H_MASK)) \
 386              		.loc 1 241 0
 387 0038 0020     		mov	r0, #0
 388 003a 2121     		mov	r1, #33
 389 003c FFF7FEFF 		bl	LCD_Write
 390              	.LVL58:
 247:.\Nokia5110LCD.c ****   	
 391              		.loc 1 247 0
 392 0040 0020     		mov	r0, #0
 393 0042 C021     		mov	r1, #192
 394 0044 FFF7FEFF 		bl	LCD_Write
 395              	.LVL59:
 251:.\Nokia5110LCD.c ****   	
 396              		.loc 1 251 0
 397 0048 0020     		mov	r0, #0
 398 004a 0421     		mov	r1, #4
 399 004c FFF7FEFF 		bl	LCD_Write
 400              	.LVL60:
 255:.\Nokia5110LCD.c ****     
 401              		.loc 1 255 0
 402 0050 0020     		mov	r0, #0
 403 0052 1321     		mov	r1, #19
 404 0054 FFF7FEFF 		bl	LCD_Write
 405              	.LVL61:
 259:.\Nokia5110LCD.c ****     
 406              		.loc 1 259 0
 407 0058 0020     		mov	r0, #0
 408 005a 2021     		mov	r1, #32
 409 005c FFF7FEFF 		bl	LCD_Write
 410              	.LVL62:
 263:.\Nokia5110LCD.c ****     
 411              		.loc 1 263 0
 412 0060 0020     		mov	r0, #0
 413 0062 0C21     		mov	r1, #12
 414 0064 FFF7FEFF 		bl	LCD_Write
 415              	.LVL63:
 266:.\Nokia5110LCD.c ****     
 416              		.loc 1 266 0
 417 0068 FFF7FEFF 		bl	LCD_Clear
 418              	.LVL64:
 274:.\Nokia5110LCD.c **** }
 419              		.loc 1 274 0
 420 006c FFF7FEFF 		bl	LCD_Clear
 421              	.LVL65:
 275:.\Nokia5110LCD.c **** 
 422              		.loc 1 275 0
ARM GAS  C:\Users\JEPPES~1\AppData\Local\Temp\cc9TkiBj.s 			page 16


 423              		@ sp needed
 424 0070 08BD     		pop	{r3, pc}
 425              		.cfi_endproc
 426              	.LFE36:
 427              		.size	LCD_Init, .-LCD_Init
 428 0072 C046     		.section	.text.LCD_Bitmap,"ax",%progbits
 429              		.align	2
 430              		.global	LCD_Bitmap
 431              		.code	16
 432              		.thumb_func
 433              		.type	LCD_Bitmap, %function
 434              	LCD_Bitmap:
 435              	.LFB41:
 384:.\Nokia5110LCD.c **** 
 385:.\Nokia5110LCD.c **** /*******************************************************************************
 386:.\Nokia5110LCD.c **** * Function Name: LCD_Bitmap
 387:.\Nokia5110LCD.c **** ********************************************************************************
 388:.\Nokia5110LCD.c **** *
 389:.\Nokia5110LCD.c **** * Summary:
 390:.\Nokia5110LCD.c **** *  Thia takes a large array of data corresponding to all segments and sends them to the LCD
 391:.\Nokia5110LCD.c **** *
 392:.\Nokia5110LCD.c **** * Parameters:  
 393:.\Nokia5110LCD.c **** *  char *my_array  -   Character pointer to point to the Bitmap image array
 394:.\Nokia5110LCD.c **** *
 395:.\Nokia5110LCD.c **** * Return: 
 396:.\Nokia5110LCD.c **** *  None 
 397:.\Nokia5110LCD.c **** *  
 398:.\Nokia5110LCD.c **** *******************************************************************************/
 399:.\Nokia5110LCD.c **** 
 400:.\Nokia5110LCD.c **** void LCD_Bitmap(char *my_array)
 401:.\Nokia5110LCD.c **** {
 436              		.loc 1 401 0
 437              		.cfi_startproc
 438              	.LVL66:
 439 0000 38B5     		push	{r3, r4, r5, lr}
 440              		.cfi_def_cfa_offset 16
 441              		.cfi_offset 3, -16
 442              		.cfi_offset 4, -12
 443              		.cfi_offset 5, -8
 444              		.cfi_offset 14, -4
 445 0002 051C     		mov	r5, r0
 446              	.LVL67:
 402:.\Nokia5110LCD.c ****     uint16 index4;
 403:.\Nokia5110LCD.c ****     for (index4 = 0 ; index4 < (LCD_X * LCD_Y/FONT_HEIGHT) ; index4++)
 447              		.loc 1 403 0
 448 0004 0024     		mov	r4, #0
 449 0006 05E0     		b	.L21
 450              	.LVL68:
 451              	.L22:
 404:.\Nokia5110LCD.c ****         
 405:.\Nokia5110LCD.c ****         /* Take one byte at a time and send it to LCD as DATA */
 406:.\Nokia5110LCD.c ****         LCD_Write(LCD_DATA, my_array[index4]);
 452              		.loc 1 406 0 discriminator 3
 453 0008 295D     		ldrb	r1, [r5, r4]
 454 000a 0120     		mov	r0, #1
 455 000c FFF7FEFF 		bl	LCD_Write
 456              	.LVL69:
ARM GAS  C:\Users\JEPPES~1\AppData\Local\Temp\cc9TkiBj.s 			page 17


 403:.\Nokia5110LCD.c ****         
 457              		.loc 1 403 0 discriminator 3
 458 0010 0134     		add	r4, r4, #1
 459              	.LVL70:
 460 0012 A4B2     		uxth	r4, r4
 461              	.LVL71:
 462              	.L21:
 403:.\Nokia5110LCD.c ****         
 463              		.loc 1 403 0 is_stmt 0 discriminator 1
 464 0014 F823     		mov	r3, #248
 465 0016 FF33     		add	r3, r3, #255
 466 0018 9C42     		cmp	r4, r3
 467 001a F5D9     		bls	.L22
 407:.\Nokia5110LCD.c **** }
 468              		.loc 1 407 0 is_stmt 1
 469              		@ sp needed
 470              	.LVL72:
 471              	.LVL73:
 472 001c 38BD     		pop	{r3, r4, r5, pc}
 473              		.cfi_endproc
 474              	.LFE41:
 475              		.size	LCD_Bitmap, .-LCD_Bitmap
 476 001e C046     		.section	.rodata
 477              		.align	2
 478              		.set	.LANCHOR0,. + 0
 479              		.type	Fonts, %object
 480              		.size	Fonts, 480
 481              	Fonts:
 482 0000 00       		.byte	0
 483 0001 00       		.byte	0
 484 0002 00       		.byte	0
 485 0003 00       		.byte	0
 486 0004 00       		.byte	0
 487 0005 00       		.byte	0
 488 0006 00       		.byte	0
 489 0007 5F       		.byte	95
 490 0008 00       		.byte	0
 491 0009 00       		.byte	0
 492 000a 00       		.byte	0
 493 000b 07       		.byte	7
 494 000c 00       		.byte	0
 495 000d 07       		.byte	7
 496 000e 00       		.byte	0
 497 000f 14       		.byte	20
 498 0010 7F       		.byte	127
 499 0011 14       		.byte	20
 500 0012 7F       		.byte	127
 501 0013 14       		.byte	20
 502 0014 24       		.byte	36
 503 0015 2A       		.byte	42
 504 0016 7F       		.byte	127
 505 0017 2A       		.byte	42
 506 0018 12       		.byte	18
 507 0019 23       		.byte	35
 508 001a 13       		.byte	19
 509 001b 08       		.byte	8
 510 001c 64       		.byte	100
ARM GAS  C:\Users\JEPPES~1\AppData\Local\Temp\cc9TkiBj.s 			page 18


 511 001d 62       		.byte	98
 512 001e 36       		.byte	54
 513 001f 49       		.byte	73
 514 0020 55       		.byte	85
 515 0021 22       		.byte	34
 516 0022 50       		.byte	80
 517 0023 00       		.byte	0
 518 0024 05       		.byte	5
 519 0025 03       		.byte	3
 520 0026 00       		.byte	0
 521 0027 00       		.byte	0
 522 0028 00       		.byte	0
 523 0029 1C       		.byte	28
 524 002a 22       		.byte	34
 525 002b 41       		.byte	65
 526 002c 00       		.byte	0
 527 002d 00       		.byte	0
 528 002e 41       		.byte	65
 529 002f 22       		.byte	34
 530 0030 1C       		.byte	28
 531 0031 00       		.byte	0
 532 0032 14       		.byte	20
 533 0033 08       		.byte	8
 534 0034 3E       		.byte	62
 535 0035 08       		.byte	8
 536 0036 14       		.byte	20
 537 0037 08       		.byte	8
 538 0038 08       		.byte	8
 539 0039 3E       		.byte	62
 540 003a 08       		.byte	8
 541 003b 08       		.byte	8
 542 003c 00       		.byte	0
 543 003d 50       		.byte	80
 544 003e 30       		.byte	48
 545 003f 00       		.byte	0
 546 0040 00       		.byte	0
 547 0041 08       		.byte	8
 548 0042 08       		.byte	8
 549 0043 08       		.byte	8
 550 0044 08       		.byte	8
 551 0045 08       		.byte	8
 552 0046 00       		.byte	0
 553 0047 60       		.byte	96
 554 0048 60       		.byte	96
 555 0049 00       		.byte	0
 556 004a 00       		.byte	0
 557 004b 20       		.byte	32
 558 004c 10       		.byte	16
 559 004d 08       		.byte	8
 560 004e 04       		.byte	4
 561 004f 02       		.byte	2
 562 0050 3E       		.byte	62
 563 0051 51       		.byte	81
 564 0052 49       		.byte	73
 565 0053 45       		.byte	69
 566 0054 3E       		.byte	62
 567 0055 00       		.byte	0
ARM GAS  C:\Users\JEPPES~1\AppData\Local\Temp\cc9TkiBj.s 			page 19


 568 0056 42       		.byte	66
 569 0057 7F       		.byte	127
 570 0058 40       		.byte	64
 571 0059 00       		.byte	0
 572 005a 42       		.byte	66
 573 005b 61       		.byte	97
 574 005c 51       		.byte	81
 575 005d 49       		.byte	73
 576 005e 46       		.byte	70
 577 005f 21       		.byte	33
 578 0060 41       		.byte	65
 579 0061 45       		.byte	69
 580 0062 4B       		.byte	75
 581 0063 31       		.byte	49
 582 0064 18       		.byte	24
 583 0065 14       		.byte	20
 584 0066 12       		.byte	18
 585 0067 7F       		.byte	127
 586 0068 10       		.byte	16
 587 0069 27       		.byte	39
 588 006a 45       		.byte	69
 589 006b 45       		.byte	69
 590 006c 45       		.byte	69
 591 006d 39       		.byte	57
 592 006e 3C       		.byte	60
 593 006f 4A       		.byte	74
 594 0070 49       		.byte	73
 595 0071 49       		.byte	73
 596 0072 30       		.byte	48
 597 0073 01       		.byte	1
 598 0074 71       		.byte	113
 599 0075 09       		.byte	9
 600 0076 05       		.byte	5
 601 0077 03       		.byte	3
 602 0078 36       		.byte	54
 603 0079 49       		.byte	73
 604 007a 49       		.byte	73
 605 007b 49       		.byte	73
 606 007c 36       		.byte	54
 607 007d 06       		.byte	6
 608 007e 49       		.byte	73
 609 007f 49       		.byte	73
 610 0080 29       		.byte	41
 611 0081 1E       		.byte	30
 612 0082 00       		.byte	0
 613 0083 36       		.byte	54
 614 0084 36       		.byte	54
 615 0085 00       		.byte	0
 616 0086 00       		.byte	0
 617 0087 00       		.byte	0
 618 0088 56       		.byte	86
 619 0089 36       		.byte	54
 620 008a 00       		.byte	0
 621 008b 00       		.byte	0
 622 008c 08       		.byte	8
 623 008d 14       		.byte	20
 624 008e 22       		.byte	34
ARM GAS  C:\Users\JEPPES~1\AppData\Local\Temp\cc9TkiBj.s 			page 20


 625 008f 41       		.byte	65
 626 0090 00       		.byte	0
 627 0091 14       		.byte	20
 628 0092 14       		.byte	20
 629 0093 14       		.byte	20
 630 0094 14       		.byte	20
 631 0095 14       		.byte	20
 632 0096 00       		.byte	0
 633 0097 41       		.byte	65
 634 0098 22       		.byte	34
 635 0099 14       		.byte	20
 636 009a 08       		.byte	8
 637 009b 02       		.byte	2
 638 009c 01       		.byte	1
 639 009d 51       		.byte	81
 640 009e 09       		.byte	9
 641 009f 06       		.byte	6
 642 00a0 32       		.byte	50
 643 00a1 49       		.byte	73
 644 00a2 79       		.byte	121
 645 00a3 41       		.byte	65
 646 00a4 3E       		.byte	62
 647 00a5 7E       		.byte	126
 648 00a6 11       		.byte	17
 649 00a7 11       		.byte	17
 650 00a8 11       		.byte	17
 651 00a9 7E       		.byte	126
 652 00aa 7F       		.byte	127
 653 00ab 49       		.byte	73
 654 00ac 49       		.byte	73
 655 00ad 49       		.byte	73
 656 00ae 36       		.byte	54
 657 00af 3E       		.byte	62
 658 00b0 41       		.byte	65
 659 00b1 41       		.byte	65
 660 00b2 41       		.byte	65
 661 00b3 22       		.byte	34
 662 00b4 7F       		.byte	127
 663 00b5 41       		.byte	65
 664 00b6 41       		.byte	65
 665 00b7 22       		.byte	34
 666 00b8 1C       		.byte	28
 667 00b9 7F       		.byte	127
 668 00ba 49       		.byte	73
 669 00bb 49       		.byte	73
 670 00bc 49       		.byte	73
 671 00bd 41       		.byte	65
 672 00be 7F       		.byte	127
 673 00bf 09       		.byte	9
 674 00c0 09       		.byte	9
 675 00c1 09       		.byte	9
 676 00c2 01       		.byte	1
 677 00c3 3E       		.byte	62
 678 00c4 41       		.byte	65
 679 00c5 49       		.byte	73
 680 00c6 49       		.byte	73
 681 00c7 7A       		.byte	122
ARM GAS  C:\Users\JEPPES~1\AppData\Local\Temp\cc9TkiBj.s 			page 21


 682 00c8 7F       		.byte	127
 683 00c9 08       		.byte	8
 684 00ca 08       		.byte	8
 685 00cb 08       		.byte	8
 686 00cc 7F       		.byte	127
 687 00cd 00       		.byte	0
 688 00ce 41       		.byte	65
 689 00cf 7F       		.byte	127
 690 00d0 41       		.byte	65
 691 00d1 00       		.byte	0
 692 00d2 20       		.byte	32
 693 00d3 40       		.byte	64
 694 00d4 41       		.byte	65
 695 00d5 3F       		.byte	63
 696 00d6 01       		.byte	1
 697 00d7 7F       		.byte	127
 698 00d8 08       		.byte	8
 699 00d9 14       		.byte	20
 700 00da 22       		.byte	34
 701 00db 41       		.byte	65
 702 00dc 7F       		.byte	127
 703 00dd 40       		.byte	64
 704 00de 40       		.byte	64
 705 00df 40       		.byte	64
 706 00e0 40       		.byte	64
 707 00e1 7F       		.byte	127
 708 00e2 02       		.byte	2
 709 00e3 0C       		.byte	12
 710 00e4 02       		.byte	2
 711 00e5 7F       		.byte	127
 712 00e6 7F       		.byte	127
 713 00e7 04       		.byte	4
 714 00e8 08       		.byte	8
 715 00e9 10       		.byte	16
 716 00ea 7F       		.byte	127
 717 00eb 3E       		.byte	62
 718 00ec 41       		.byte	65
 719 00ed 41       		.byte	65
 720 00ee 41       		.byte	65
 721 00ef 3E       		.byte	62
 722 00f0 7F       		.byte	127
 723 00f1 09       		.byte	9
 724 00f2 09       		.byte	9
 725 00f3 09       		.byte	9
 726 00f4 06       		.byte	6
 727 00f5 3E       		.byte	62
 728 00f6 41       		.byte	65
 729 00f7 51       		.byte	81
 730 00f8 21       		.byte	33
 731 00f9 5E       		.byte	94
 732 00fa 7F       		.byte	127
 733 00fb 09       		.byte	9
 734 00fc 19       		.byte	25
 735 00fd 29       		.byte	41
 736 00fe 46       		.byte	70
 737 00ff 46       		.byte	70
 738 0100 49       		.byte	73
ARM GAS  C:\Users\JEPPES~1\AppData\Local\Temp\cc9TkiBj.s 			page 22


 739 0101 49       		.byte	73
 740 0102 49       		.byte	73
 741 0103 31       		.byte	49
 742 0104 01       		.byte	1
 743 0105 01       		.byte	1
 744 0106 7F       		.byte	127
 745 0107 01       		.byte	1
 746 0108 01       		.byte	1
 747 0109 3F       		.byte	63
 748 010a 40       		.byte	64
 749 010b 40       		.byte	64
 750 010c 40       		.byte	64
 751 010d 3F       		.byte	63
 752 010e 1F       		.byte	31
 753 010f 20       		.byte	32
 754 0110 40       		.byte	64
 755 0111 20       		.byte	32
 756 0112 1F       		.byte	31
 757 0113 3F       		.byte	63
 758 0114 40       		.byte	64
 759 0115 38       		.byte	56
 760 0116 40       		.byte	64
 761 0117 3F       		.byte	63
 762 0118 63       		.byte	99
 763 0119 14       		.byte	20
 764 011a 08       		.byte	8
 765 011b 14       		.byte	20
 766 011c 63       		.byte	99
 767 011d 07       		.byte	7
 768 011e 08       		.byte	8
 769 011f 70       		.byte	112
 770 0120 08       		.byte	8
 771 0121 07       		.byte	7
 772 0122 61       		.byte	97
 773 0123 51       		.byte	81
 774 0124 49       		.byte	73
 775 0125 45       		.byte	69
 776 0126 43       		.byte	67
 777 0127 00       		.byte	0
 778 0128 7F       		.byte	127
 779 0129 41       		.byte	65
 780 012a 41       		.byte	65
 781 012b 00       		.byte	0
 782 012c 02       		.byte	2
 783 012d 04       		.byte	4
 784 012e 08       		.byte	8
 785 012f 10       		.byte	16
 786 0130 20       		.byte	32
 787 0131 00       		.byte	0
 788 0132 41       		.byte	65
 789 0133 41       		.byte	65
 790 0134 7F       		.byte	127
 791 0135 00       		.byte	0
 792 0136 04       		.byte	4
 793 0137 02       		.byte	2
 794 0138 01       		.byte	1
 795 0139 02       		.byte	2
ARM GAS  C:\Users\JEPPES~1\AppData\Local\Temp\cc9TkiBj.s 			page 23


 796 013a 04       		.byte	4
 797 013b 40       		.byte	64
 798 013c 40       		.byte	64
 799 013d 40       		.byte	64
 800 013e 40       		.byte	64
 801 013f 40       		.byte	64
 802 0140 00       		.byte	0
 803 0141 01       		.byte	1
 804 0142 02       		.byte	2
 805 0143 04       		.byte	4
 806 0144 00       		.byte	0
 807 0145 20       		.byte	32
 808 0146 54       		.byte	84
 809 0147 54       		.byte	84
 810 0148 54       		.byte	84
 811 0149 78       		.byte	120
 812 014a 7F       		.byte	127
 813 014b 48       		.byte	72
 814 014c 44       		.byte	68
 815 014d 44       		.byte	68
 816 014e 38       		.byte	56
 817 014f 38       		.byte	56
 818 0150 44       		.byte	68
 819 0151 44       		.byte	68
 820 0152 44       		.byte	68
 821 0153 20       		.byte	32
 822 0154 38       		.byte	56
 823 0155 44       		.byte	68
 824 0156 44       		.byte	68
 825 0157 48       		.byte	72
 826 0158 7F       		.byte	127
 827 0159 38       		.byte	56
 828 015a 54       		.byte	84
 829 015b 54       		.byte	84
 830 015c 54       		.byte	84
 831 015d 18       		.byte	24
 832 015e 08       		.byte	8
 833 015f 7E       		.byte	126
 834 0160 09       		.byte	9
 835 0161 01       		.byte	1
 836 0162 02       		.byte	2
 837 0163 0C       		.byte	12
 838 0164 52       		.byte	82
 839 0165 52       		.byte	82
 840 0166 52       		.byte	82
 841 0167 3E       		.byte	62
 842 0168 7F       		.byte	127
 843 0169 08       		.byte	8
 844 016a 04       		.byte	4
 845 016b 04       		.byte	4
 846 016c 78       		.byte	120
 847 016d 00       		.byte	0
 848 016e 44       		.byte	68
 849 016f 7D       		.byte	125
 850 0170 40       		.byte	64
 851 0171 00       		.byte	0
 852 0172 20       		.byte	32
ARM GAS  C:\Users\JEPPES~1\AppData\Local\Temp\cc9TkiBj.s 			page 24


 853 0173 40       		.byte	64
 854 0174 44       		.byte	68
 855 0175 3D       		.byte	61
 856 0176 00       		.byte	0
 857 0177 7F       		.byte	127
 858 0178 10       		.byte	16
 859 0179 28       		.byte	40
 860 017a 44       		.byte	68
 861 017b 00       		.byte	0
 862 017c 00       		.byte	0
 863 017d 41       		.byte	65
 864 017e 7F       		.byte	127
 865 017f 40       		.byte	64
 866 0180 00       		.byte	0
 867 0181 7C       		.byte	124
 868 0182 04       		.byte	4
 869 0183 18       		.byte	24
 870 0184 04       		.byte	4
 871 0185 78       		.byte	120
 872 0186 7C       		.byte	124
 873 0187 08       		.byte	8
 874 0188 04       		.byte	4
 875 0189 04       		.byte	4
 876 018a 78       		.byte	120
 877 018b 38       		.byte	56
 878 018c 44       		.byte	68
 879 018d 44       		.byte	68
 880 018e 44       		.byte	68
 881 018f 38       		.byte	56
 882 0190 7C       		.byte	124
 883 0191 14       		.byte	20
 884 0192 14       		.byte	20
 885 0193 14       		.byte	20
 886 0194 08       		.byte	8
 887 0195 08       		.byte	8
 888 0196 14       		.byte	20
 889 0197 14       		.byte	20
 890 0198 18       		.byte	24
 891 0199 7C       		.byte	124
 892 019a 7C       		.byte	124
 893 019b 08       		.byte	8
 894 019c 04       		.byte	4
 895 019d 04       		.byte	4
 896 019e 08       		.byte	8
 897 019f 48       		.byte	72
 898 01a0 54       		.byte	84
 899 01a1 54       		.byte	84
 900 01a2 54       		.byte	84
 901 01a3 20       		.byte	32
 902 01a4 04       		.byte	4
 903 01a5 3F       		.byte	63
 904 01a6 44       		.byte	68
 905 01a7 40       		.byte	64
 906 01a8 20       		.byte	32
 907 01a9 3C       		.byte	60
 908 01aa 40       		.byte	64
 909 01ab 40       		.byte	64
ARM GAS  C:\Users\JEPPES~1\AppData\Local\Temp\cc9TkiBj.s 			page 25


 910 01ac 20       		.byte	32
 911 01ad 7C       		.byte	124
 912 01ae 1C       		.byte	28
 913 01af 20       		.byte	32
 914 01b0 40       		.byte	64
 915 01b1 20       		.byte	32
 916 01b2 1C       		.byte	28
 917 01b3 3C       		.byte	60
 918 01b4 40       		.byte	64
 919 01b5 30       		.byte	48
 920 01b6 40       		.byte	64
 921 01b7 3C       		.byte	60
 922 01b8 44       		.byte	68
 923 01b9 28       		.byte	40
 924 01ba 10       		.byte	16
 925 01bb 28       		.byte	40
 926 01bc 44       		.byte	68
 927 01bd 0C       		.byte	12
 928 01be 50       		.byte	80
 929 01bf 50       		.byte	80
 930 01c0 50       		.byte	80
 931 01c1 3C       		.byte	60
 932 01c2 44       		.byte	68
 933 01c3 64       		.byte	100
 934 01c4 54       		.byte	84
 935 01c5 4C       		.byte	76
 936 01c6 44       		.byte	68
 937 01c7 00       		.byte	0
 938 01c8 08       		.byte	8
 939 01c9 36       		.byte	54
 940 01ca 41       		.byte	65
 941 01cb 00       		.byte	0
 942 01cc 00       		.byte	0
 943 01cd 00       		.byte	0
 944 01ce 7F       		.byte	127
 945 01cf 00       		.byte	0
 946 01d0 00       		.byte	0
 947 01d1 00       		.byte	0
 948 01d2 41       		.byte	65
 949 01d3 36       		.byte	54
 950 01d4 08       		.byte	8
 951 01d5 00       		.byte	0
 952 01d6 10       		.byte	16
 953 01d7 08       		.byte	8
 954 01d8 08       		.byte	8
 955 01d9 10       		.byte	16
 956 01da 08       		.byte	8
 957 01db 78       		.byte	120
 958 01dc 46       		.byte	70
 959 01dd 41       		.byte	65
 960 01de 46       		.byte	70
 961 01df 78       		.byte	120
 962              		.text
 963              	.Letext0:
 964              		.file 2 "Generated_Source\\PSoC4/cytypes.h"
 965              		.file 3 "Generated_Source\\PSoC4/Din.h"
 966              		.file 4 "Generated_Source\\PSoC4/Clk.h"
ARM GAS  C:\Users\JEPPES~1\AppData\Local\Temp\cc9TkiBj.s 			page 26


 967              		.file 5 "Generated_Source\\PSoC4/CyLib.h"
 968              		.file 6 "Generated_Source\\PSoC4/CE.h"
 969              		.file 7 "Generated_Source\\PSoC4/DC.h"
 970              		.file 8 "Generated_Source\\PSoC4/Gnd.h"
 971              		.file 9 "Generated_Source\\PSoC4/Vcc.h"
 972              		.file 10 "Generated_Source\\PSoC4/BL.h"
 973              		.file 11 "Generated_Source\\PSoC4/RST.h"