ARM GAS  C:\Users\Simon\AppData\Local\Temp\ccvLh2YB.s 			page 1


   1              		.cpu cortex-m0
   2              		.fpu softvfp
   3              		.eabi_attribute 20, 1
   4              		.eabi_attribute 21, 1
   5              		.eabi_attribute 23, 3
   6              		.eabi_attribute 24, 1
   7              		.eabi_attribute 25, 1
   8              		.eabi_attribute 26, 1
   9              		.eabi_attribute 30, 1
  10              		.eabi_attribute 34, 0
  11              		.eabi_attribute 18, 4
  12              		.code	16
  13              		.file	"queue.c"
  14              		.text
  15              	.Ltext0:
  16              		.cfi_sections	.debug_frame
  17              		.section	.text.queue_init,"ax",%progbits
  18              		.align	2
  19              		.global	queue_init
  20              		.code	16
  21              		.thumb_func
  22              		.type	queue_init, %function
  23              	queue_init:
  24              	.LFB34:
  25              		.file 1 ".\\queue.c"
   1:.\queue.c     **** /* ========================================
   2:.\queue.c     ****  *
   3:.\queue.c     ****  * File: queue.c
   4:.\queue.c     ****  * Description:
   5:.\queue.c     ****  *
   6:.\queue.c     ****  * University: AARHUS UNIVERSITY SCHOOL OF ENGINEERING
   7:.\queue.c     ****  * Project: F16 - E3PRJ3-02 Semesterprojekt 3 [240501U178]
   8:.\queue.c     ****  * Group: 1
   9:.\queue.c     ****  *
  10:.\queue.c     ****  * Author: Jeppe Stærk
  11:.\queue.c     ****  * Matriculation number: 201271201
  12:.\queue.c     ****  *
  13:.\queue.c     ****  * Version: 1.0
  14:.\queue.c     ****  * Date: 13-05-2016
  15:.\queue.c     ****  *
  16:.\queue.c     ****  * ========================================
  17:.\queue.c     ****  */
  18:.\queue.c     **** 
  19:.\queue.c     **** #include "queue.h"
  20:.\queue.c     **** 
  21:.\queue.c     **** struct Node* frontOfQueuePtr;
  22:.\queue.c     **** struct Node* backOfQueuePtr;
  23:.\queue.c     **** 
  24:.\queue.c     **** uint8 queueCount;
  25:.\queue.c     **** 
  26:.\queue.c     **** void queue_init()
  27:.\queue.c     **** {
  26              		.loc 1 27 0
  27              		.cfi_startproc
  28:.\queue.c     ****   frontOfQueuePtr = NULL;
  28              		.loc 1 28 0
  29 0000 0023     		mov	r3, #0
ARM GAS  C:\Users\Simon\AppData\Local\Temp\ccvLh2YB.s 			page 2


  30 0002 044A     		ldr	r2, .L2
  31 0004 1360     		str	r3, [r2]
  29:.\queue.c     ****   frontOfQueuePtr->next_ = NULL;
  32              		.loc 1 29 0
  33 0006 9B60     		str	r3, [r3, #8]
  30:.\queue.c     ****   backOfQueuePtr = NULL;
  34              		.loc 1 30 0
  35 0008 034A     		ldr	r2, .L2+4
  36 000a 1360     		str	r3, [r2]
  31:.\queue.c     ****   backOfQueuePtr->next_ = NULL;
  32:.\queue.c     ****   queueCount = 0;
  37              		.loc 1 32 0
  38 000c 034A     		ldr	r2, .L2+8
  39 000e 1370     		strb	r3, [r2]
  33:.\queue.c     **** }
  40              		.loc 1 33 0
  41              		@ sp needed
  42 0010 7047     		bx	lr
  43              	.L3:
  44 0012 C046     		.align	2
  45              	.L2:
  46 0014 00000000 		.word	frontOfQueuePtr
  47 0018 00000000 		.word	backOfQueuePtr
  48 001c 00000000 		.word	queueCount
  49              		.cfi_endproc
  50              	.LFE34:
  51              		.size	queue_init, .-queue_init
  52              		.section	.text.frontQueue,"ax",%progbits
  53              		.align	2
  54              		.global	frontQueue
  55              		.code	16
  56              		.thumb_func
  57              		.type	frontQueue, %function
  58              	frontQueue:
  59              	.LFB37:
  34:.\queue.c     **** 
  35:.\queue.c     **** void pushQueue(const struct Data data)
  36:.\queue.c     **** {
  37:.\queue.c     ****     if(queueCount<6)
  38:.\queue.c     ****     {
  39:.\queue.c     ****   if(isEmptyQueue() != 1)
  40:.\queue.c     ****   {
  41:.\queue.c     ****     backInsert(&backOfQueuePtr, data);
  42:.\queue.c     ****     backOfQueuePtr = backOfQueuePtr->next_;
  43:.\queue.c     ****     queueCount++;
  44:.\queue.c     ****   }
  45:.\queue.c     ****   else
  46:.\queue.c     ****   {
  47:.\queue.c     ****     headInsert(&frontOfQueuePtr, data);
  48:.\queue.c     ****     backOfQueuePtr = frontOfQueuePtr;
  49:.\queue.c     ****     queueCount++;
  50:.\queue.c     ****   }
  51:.\queue.c     ****     }
  52:.\queue.c     **** }
  53:.\queue.c     **** 
  54:.\queue.c     **** void popQueue()
  55:.\queue.c     **** {
ARM GAS  C:\Users\Simon\AppData\Local\Temp\ccvLh2YB.s 			page 3


  56:.\queue.c     ****   headRemove(&frontOfQueuePtr);
  57:.\queue.c     ****   queueCount--;
  58:.\queue.c     ****   if(isEmptyQueue() == 1)
  59:.\queue.c     ****   {
  60:.\queue.c     ****     backOfQueuePtr = NULL;
  61:.\queue.c     ****   }
  62:.\queue.c     **** }
  63:.\queue.c     **** 
  64:.\queue.c     **** struct Data frontQueue()
  65:.\queue.c     **** {
  60              		.loc 1 65 0
  61              		.cfi_startproc
  62              	.LVL0:
  63 0000 10B5     		push	{r4, lr}
  64              		.cfi_def_cfa_offset 8
  65              		.cfi_offset 4, -8
  66              		.cfi_offset 14, -4
  66:.\queue.c     ****   return frontOfQueuePtr->data_;
  67              		.loc 1 66 0
  68 0002 034B     		ldr	r3, .L5
  69 0004 1B68     		ldr	r3, [r3]
  70 0006 021C     		mov	r2, r0
  71 0008 12CB     		ldmia	r3!, {r1, r4}
  72 000a 12C2     		stmia	r2!, {r1, r4}
  67:.\queue.c     **** }
  73              		.loc 1 67 0
  74              		@ sp needed
  75 000c 10BD     		pop	{r4, pc}
  76              	.L6:
  77 000e C046     		.align	2
  78              	.L5:
  79 0010 00000000 		.word	frontOfQueuePtr
  80              		.cfi_endproc
  81              	.LFE37:
  82              		.size	frontQueue, .-frontQueue
  83              		.section	.text.isEmptyQueue,"ax",%progbits
  84              		.align	2
  85              		.global	isEmptyQueue
  86              		.code	16
  87              		.thumb_func
  88              		.type	isEmptyQueue, %function
  89              	isEmptyQueue:
  90              	.LFB38:
  68:.\queue.c     **** 
  69:.\queue.c     **** int isEmptyQueue()
  70:.\queue.c     **** {
  91              		.loc 1 70 0
  92              		.cfi_startproc
  71:.\queue.c     ****   if(frontOfQueuePtr == NULL)
  93              		.loc 1 71 0
  94 0000 034B     		ldr	r3, .L10
  95 0002 1B68     		ldr	r3, [r3]
  96 0004 002B     		cmp	r3, #0
  97 0006 01D1     		bne	.L9
  72:.\queue.c     ****   {
  73:.\queue.c     ****     return 1;
  98              		.loc 1 73 0
ARM GAS  C:\Users\Simon\AppData\Local\Temp\ccvLh2YB.s 			page 4


  99 0008 0120     		mov	r0, #1
 100 000a 00E0     		b	.L8
 101              	.L9:
  74:.\queue.c     ****   }
  75:.\queue.c     ****   else
  76:.\queue.c     ****   {
  77:.\queue.c     ****     return 0;
 102              		.loc 1 77 0
 103 000c 0020     		mov	r0, #0
 104              	.L8:
  78:.\queue.c     ****   }
  79:.\queue.c     **** }
 105              		.loc 1 79 0
 106              		@ sp needed
 107 000e 7047     		bx	lr
 108              	.L11:
 109              		.align	2
 110              	.L10:
 111 0010 00000000 		.word	frontOfQueuePtr
 112              		.cfi_endproc
 113              	.LFE38:
 114              		.size	isEmptyQueue, .-isEmptyQueue
 115              		.section	.text.headInsert,"ax",%progbits
 116              		.align	2
 117              		.global	headInsert
 118              		.code	16
 119              		.thumb_func
 120              		.type	headInsert, %function
 121              	headInsert:
 122              	.LFB39:
  80:.\queue.c     **** 
  81:.\queue.c     **** void headInsert(struct Node** headPtr, const struct Data data)
  82:.\queue.c     **** {
 123              		.loc 1 82 0
 124              		.cfi_startproc
 125              	.LVL1:
 126 0000 30B5     		push	{r4, r5, lr}
 127              		.cfi_def_cfa_offset 12
 128              		.cfi_offset 4, -12
 129              		.cfi_offset 5, -8
 130              		.cfi_offset 14, -4
 131 0002 83B0     		sub	sp, sp, #12
 132              		.cfi_def_cfa_offset 24
 133 0004 041C     		mov	r4, r0
 134 0006 0091     		str	r1, [sp]
 135 0008 0192     		str	r2, [sp, #4]
  83:.\queue.c     ****   struct Node* temp = (struct Node*)malloc(sizeof(struct Node));
 136              		.loc 1 83 0
 137 000a 0C20     		mov	r0, #12
 138              	.LVL2:
 139 000c FFF7FEFF 		bl	malloc
 140              	.LVL3:
  84:.\queue.c     ****   if(temp == NULL)
 141              		.loc 1 84 0
 142 0010 0028     		cmp	r0, #0
 143 0012 06D0     		beq	.L12
  85:.\queue.c     ****   {
ARM GAS  C:\Users\Simon\AppData\Local\Temp\ccvLh2YB.s 			page 5


  86:.\queue.c     ****     return;
  87:.\queue.c     ****   }
  88:.\queue.c     ****   
  89:.\queue.c     ****   temp->data_ = data;
 144              		.loc 1 89 0
 145 0014 6B46     		mov	r3, sp
 146 0016 021C     		mov	r2, r0
 147 0018 22CB     		ldmia	r3!, {r1, r5}
 148 001a 22C2     		stmia	r2!, {r1, r5}
  90:.\queue.c     ****   temp->next_ = NULL;
 149              		.loc 1 90 0
 150 001c 0023     		mov	r3, #0
 151 001e 8360     		str	r3, [r0, #8]
  91:.\queue.c     ****   
  92:.\queue.c     ****   *headPtr = temp;
 152              		.loc 1 92 0
 153 0020 2060     		str	r0, [r4]
 154              	.L12:
  93:.\queue.c     **** }
 155              		.loc 1 93 0
 156 0022 03B0     		add	sp, sp, #12
 157              		@ sp needed
 158              	.LVL4:
 159 0024 30BD     		pop	{r4, r5, pc}
 160              		.cfi_endproc
 161              	.LFE39:
 162              		.size	headInsert, .-headInsert
 163 0026 C046     		.section	.text.headRemove,"ax",%progbits
 164              		.align	2
 165              		.global	headRemove
 166              		.code	16
 167              		.thumb_func
 168              		.type	headRemove, %function
 169              	headRemove:
 170              	.LFB40:
  94:.\queue.c     **** 
  95:.\queue.c     **** void headRemove(struct Node** headPtr)
  96:.\queue.c     **** {
 171              		.loc 1 96 0
 172              		.cfi_startproc
 173              	.LVL5:
 174 0000 08B5     		push	{r3, lr}
 175              		.cfi_def_cfa_offset 8
 176              		.cfi_offset 3, -8
 177              		.cfi_offset 14, -4
  97:.\queue.c     ****   if(headPtr != NULL)
 178              		.loc 1 97 0
 179 0002 0028     		cmp	r0, #0
 180 0004 05D0     		beq	.L14
 181 0006 031C     		mov	r3, r0
 182              	.LBB2:
  98:.\queue.c     ****   {
  99:.\queue.c     ****     struct Node* condemned;
 100:.\queue.c     ****     condemned = *headPtr;
 183              		.loc 1 100 0
 184 0008 0068     		ldr	r0, [r0]
 185              	.LVL6:
ARM GAS  C:\Users\Simon\AppData\Local\Temp\ccvLh2YB.s 			page 6


 101:.\queue.c     ****     *headPtr = (*headPtr)->next_;
 186              		.loc 1 101 0
 187 000a 8268     		ldr	r2, [r0, #8]
 188 000c 1A60     		str	r2, [r3]
 102:.\queue.c     ****     free(condemned);
 189              		.loc 1 102 0
 190 000e FFF7FEFF 		bl	free
 191              	.LVL7:
 192              	.L14:
 193              	.LBE2:
 103:.\queue.c     ****   }
 104:.\queue.c     **** }
 194              		.loc 1 104 0
 195              		@ sp needed
 196 0012 08BD     		pop	{r3, pc}
 197              		.cfi_endproc
 198              	.LFE40:
 199              		.size	headRemove, .-headRemove
 200              		.section	.text.popQueue,"ax",%progbits
 201              		.align	2
 202              		.global	popQueue
 203              		.code	16
 204              		.thumb_func
 205              		.type	popQueue, %function
 206              	popQueue:
 207              	.LFB36:
  55:.\queue.c     ****   headRemove(&frontOfQueuePtr);
 208              		.loc 1 55 0
 209              		.cfi_startproc
 210 0000 08B5     		push	{r3, lr}
 211              		.cfi_def_cfa_offset 8
 212              		.cfi_offset 3, -8
 213              		.cfi_offset 14, -4
  56:.\queue.c     ****   queueCount--;
 214              		.loc 1 56 0
 215 0002 0748     		ldr	r0, .L18
 216 0004 FFF7FEFF 		bl	headRemove
 217              	.LVL8:
  57:.\queue.c     ****   if(isEmptyQueue() == 1)
 218              		.loc 1 57 0
 219 0008 064A     		ldr	r2, .L18+4
 220 000a 1378     		ldrb	r3, [r2]
 221 000c 013B     		sub	r3, r3, #1
 222 000e 1370     		strb	r3, [r2]
  58:.\queue.c     ****   {
 223              		.loc 1 58 0
 224 0010 FFF7FEFF 		bl	isEmptyQueue
 225              	.LVL9:
 226 0014 0128     		cmp	r0, #1
 227 0016 02D1     		bne	.L16
  60:.\queue.c     ****   }
 228              		.loc 1 60 0
 229 0018 0022     		mov	r2, #0
 230 001a 034B     		ldr	r3, .L18+8
 231 001c 1A60     		str	r2, [r3]
 232              	.L16:
  62:.\queue.c     **** 
ARM GAS  C:\Users\Simon\AppData\Local\Temp\ccvLh2YB.s 			page 7


 233              		.loc 1 62 0
 234              		@ sp needed
 235 001e 08BD     		pop	{r3, pc}
 236              	.L19:
 237              		.align	2
 238              	.L18:
 239 0020 00000000 		.word	frontOfQueuePtr
 240 0024 00000000 		.word	queueCount
 241 0028 00000000 		.word	backOfQueuePtr
 242              		.cfi_endproc
 243              	.LFE36:
 244              		.size	popQueue, .-popQueue
 245              		.section	.text.backInsert,"ax",%progbits
 246              		.align	2
 247              		.global	backInsert
 248              		.code	16
 249              		.thumb_func
 250              		.type	backInsert, %function
 251              	backInsert:
 252              	.LFB41:
 105:.\queue.c     **** 
 106:.\queue.c     **** void backInsert(struct Node** backPtr, const struct Data data)
 107:.\queue.c     **** {
 253              		.loc 1 107 0
 254              		.cfi_startproc
 255              	.LVL10:
 256 0000 70B5     		push	{r4, r5, r6, lr}
 257              		.cfi_def_cfa_offset 16
 258              		.cfi_offset 4, -16
 259              		.cfi_offset 5, -12
 260              		.cfi_offset 6, -8
 261              		.cfi_offset 14, -4
 262 0002 82B0     		sub	sp, sp, #8
 263              		.cfi_def_cfa_offset 24
 264 0004 0091     		str	r1, [sp]
 265 0006 0192     		str	r2, [sp, #4]
 108:.\queue.c     ****   if(*backPtr == NULL)
 266              		.loc 1 108 0
 267 0008 0368     		ldr	r3, [r0]
 268 000a 002B     		cmp	r3, #0
 269 000c 0BD0     		beq	.L20
 270 000e 041C     		mov	r4, r0
 109:.\queue.c     ****   {
 110:.\queue.c     ****     return;
 111:.\queue.c     ****   }
 112:.\queue.c     ****   
 113:.\queue.c     ****   struct Node* next = (*backPtr)->next_;
 271              		.loc 1 113 0
 272 0010 9D68     		ldr	r5, [r3, #8]
 273              	.LVL11:
 114:.\queue.c     ****   struct Node* temp = (struct Node*)malloc(sizeof(struct Node));
 274              		.loc 1 114 0
 275 0012 0C20     		mov	r0, #12
 276              	.LVL12:
 277 0014 FFF7FEFF 		bl	malloc
 278              	.LVL13:
 115:.\queue.c     ****   temp->data_ = data;
ARM GAS  C:\Users\Simon\AppData\Local\Temp\ccvLh2YB.s 			page 8


 279              		.loc 1 115 0
 280 0018 6B46     		mov	r3, sp
 281 001a 021C     		mov	r2, r0
 282 001c 42CB     		ldmia	r3!, {r1, r6}
 283 001e 42C2     		stmia	r2!, {r1, r6}
 116:.\queue.c     ****   temp->next_ = next;
 284              		.loc 1 116 0
 285 0020 8560     		str	r5, [r0, #8]
 117:.\queue.c     ****   (*backPtr)->next_ = temp;
 286              		.loc 1 117 0
 287 0022 2368     		ldr	r3, [r4]
 288 0024 9860     		str	r0, [r3, #8]
 289              	.LVL14:
 290              	.L20:
 118:.\queue.c     **** }
 291              		.loc 1 118 0
 292 0026 02B0     		add	sp, sp, #8
 293              		@ sp needed
 294 0028 70BD     		pop	{r4, r5, r6, pc}
 295              		.cfi_endproc
 296              	.LFE41:
 297              		.size	backInsert, .-backInsert
 298 002a C046     		.section	.text.pushQueue,"ax",%progbits
 299              		.align	2
 300              		.global	pushQueue
 301              		.code	16
 302              		.thumb_func
 303              		.type	pushQueue, %function
 304              	pushQueue:
 305              	.LFB35:
  36:.\queue.c     ****     if(queueCount<6)
 306              		.loc 1 36 0
 307              		.cfi_startproc
 308 0000 10B5     		push	{r4, lr}
 309              		.cfi_def_cfa_offset 8
 310              		.cfi_offset 4, -8
 311              		.cfi_offset 14, -4
 312 0002 82B0     		sub	sp, sp, #8
 313              		.cfi_def_cfa_offset 16
 314 0004 0090     		str	r0, [sp]
 315 0006 0191     		str	r1, [sp, #4]
  37:.\queue.c     ****     {
 316              		.loc 1 37 0
 317 0008 124B     		ldr	r3, .L25
 318 000a 1B78     		ldrb	r3, [r3]
 319 000c 052B     		cmp	r3, #5
 320 000e 1ED8     		bhi	.L22
  39:.\queue.c     ****   {
 321              		.loc 1 39 0
 322 0010 FFF7FEFF 		bl	isEmptyQueue
 323              	.LVL15:
 324 0014 0128     		cmp	r0, #1
 325 0016 0DD0     		beq	.L24
  41:.\queue.c     ****     backOfQueuePtr = backOfQueuePtr->next_;
 326              		.loc 1 41 0
 327 0018 0F4C     		ldr	r4, .L25+4
 328 001a 201C     		mov	r0, r4
ARM GAS  C:\Users\Simon\AppData\Local\Temp\ccvLh2YB.s 			page 9


 329 001c 0099     		ldr	r1, [sp]
 330 001e 019A     		ldr	r2, [sp, #4]
 331 0020 FFF7FEFF 		bl	backInsert
 332              	.LVL16:
  42:.\queue.c     ****     queueCount++;
 333              		.loc 1 42 0
 334 0024 2368     		ldr	r3, [r4]
 335 0026 9B68     		ldr	r3, [r3, #8]
 336 0028 2360     		str	r3, [r4]
  43:.\queue.c     ****   }
 337              		.loc 1 43 0
 338 002a 0A4A     		ldr	r2, .L25
 339 002c 1378     		ldrb	r3, [r2]
 340 002e 0133     		add	r3, r3, #1
 341 0030 1370     		strb	r3, [r2]
 342 0032 0CE0     		b	.L22
 343              	.L24:
  47:.\queue.c     ****     backOfQueuePtr = frontOfQueuePtr;
 344              		.loc 1 47 0
 345 0034 094C     		ldr	r4, .L25+8
 346 0036 201C     		mov	r0, r4
 347 0038 0099     		ldr	r1, [sp]
 348 003a 019A     		ldr	r2, [sp, #4]
 349 003c FFF7FEFF 		bl	headInsert
 350              	.LVL17:
  48:.\queue.c     ****     queueCount++;
 351              		.loc 1 48 0
 352 0040 2268     		ldr	r2, [r4]
 353 0042 054B     		ldr	r3, .L25+4
 354 0044 1A60     		str	r2, [r3]
  49:.\queue.c     ****   }
 355              		.loc 1 49 0
 356 0046 034A     		ldr	r2, .L25
 357 0048 1378     		ldrb	r3, [r2]
 358 004a 0133     		add	r3, r3, #1
 359 004c 1370     		strb	r3, [r2]
 360              	.L22:
  52:.\queue.c     **** 
 361              		.loc 1 52 0
 362 004e 02B0     		add	sp, sp, #8
 363              		@ sp needed
 364 0050 10BD     		pop	{r4, pc}
 365              	.L26:
 366 0052 C046     		.align	2
 367              	.L25:
 368 0054 00000000 		.word	queueCount
 369 0058 00000000 		.word	backOfQueuePtr
 370 005c 00000000 		.word	frontOfQueuePtr
 371              		.cfi_endproc
 372              	.LFE35:
 373              		.size	pushQueue, .-pushQueue
 374              		.comm	queueCount,1,1
 375              		.comm	backOfQueuePtr,4,4
 376              		.comm	frontOfQueuePtr,4,4
 377              		.text
 378              	.Letext0:
 379              		.file 2 "Generated_Source\\PSoC4/cytypes.h"
ARM GAS  C:\Users\Simon\AppData\Local\Temp\ccvLh2YB.s 			page 10


 380              		.file 3 "c:\\program files (x86)\\cypress\\psoc creator\\3.3\\psoc creator\\import\\gnu\\arm\\4.9.
 381              		.file 4 ".\\queue.h"
 382              		.file 5 "c:\\program files (x86)\\cypress\\psoc creator\\3.3\\psoc creator\\import\\gnu\\arm\\4.9.