ARM GAS  C:\Users\JEPPES~1\AppData\Local\Temp\ccovA63c.s 			page 1


   1              		.cpu cortex-m0
   2              		.fpu softvfp
   3              		.eabi_attribute 20, 1
   4              		.eabi_attribute 21, 1
   5              		.eabi_attribute 23, 3
   6              		.eabi_attribute 24, 1
   7              		.eabi_attribute 25, 1
   8              		.eabi_attribute 26, 1
   9              		.eabi_attribute 30, 1
  10              		.eabi_attribute 34, 0
  11              		.eabi_attribute 18, 4
  12              		.code	16
  13              		.file	"sensor.c"
  14              		.text
  15              	.Ltext0:
  16              		.cfi_sections	.debug_frame
  17              		.section	.text.setR,"ax",%progbits
  18              		.align	2
  19              		.global	setR
  20              		.code	16
  21              		.thumb_func
  22              		.type	setR, %function
  23              	setR:
  24              	.LFB34:
  25              		.file 1 ".\\sensor.c"
   1:.\sensor.c    **** /* ========================================
   2:.\sensor.c    ****  *
   3:.\sensor.c    ****  * File: sensor.c
   4:.\sensor.c    ****  * Description: 
   5:.\sensor.c    ****  *
   6:.\sensor.c    ****  * University: AARHUS UNIVERSITY SCHOOL OF ENGINEERING
   7:.\sensor.c    ****  * Project: F16 - E3PRJ3-02 Semesterprojekt 3 [240501U178]
   8:.\sensor.c    ****  * Group: 1
   9:.\sensor.c    ****  * 
  10:.\sensor.c    ****  * Author: Jeppe Stærk
  11:.\sensor.c    ****  * Matriculation number: 201271201
  12:.\sensor.c    ****  *
  13:.\sensor.c    ****  * Version: 1.0
  14:.\sensor.c    ****  * Date: 13-05-2016
  15:.\sensor.c    ****  *
  16:.\sensor.c    ****  * ========================================
  17:.\sensor.c    **** */
  18:.\sensor.c    **** 
  19:.\sensor.c    **** #include "sensor.h"
  20:.\sensor.c    **** 
  21:.\sensor.c    **** void setR(uint8 rVal) {
  26              		.loc 1 21 0
  27              		.cfi_startproc
  28              	.LVL0:
  29 0000 08B5     		push	{r3, lr}
  30              		.cfi_def_cfa_offset 8
  31              		.cfi_offset 3, -8
  32              		.cfi_offset 14, -4
  33 0002 011C     		mov	r1, r0
  22:.\sensor.c    ****     i2c_handler(I2C_SET_R, rVal);
  34              		.loc 1 22 0
  35 0004 9120     		mov	r0, #145
ARM GAS  C:\Users\JEPPES~1\AppData\Local\Temp\ccovA63c.s 			page 2


  36              	.LVL1:
  37 0006 FFF7FEFF 		bl	i2c_handler
  38              	.LVL2:
  23:.\sensor.c    **** }
  39              		.loc 1 23 0
  40              		@ sp needed
  41 000a 08BD     		pop	{r3, pc}
  42              		.cfi_endproc
  43              	.LFE34:
  44              		.size	setR, .-setR
  45              		.section	.text.setG,"ax",%progbits
  46              		.align	2
  47              		.global	setG
  48              		.code	16
  49              		.thumb_func
  50              		.type	setG, %function
  51              	setG:
  52              	.LFB35:
  24:.\sensor.c    **** 
  25:.\sensor.c    **** void setG(uint8 gVal) {
  53              		.loc 1 25 0
  54              		.cfi_startproc
  55              	.LVL3:
  56 0000 08B5     		push	{r3, lr}
  57              		.cfi_def_cfa_offset 8
  58              		.cfi_offset 3, -8
  59              		.cfi_offset 14, -4
  60 0002 011C     		mov	r1, r0
  26:.\sensor.c    ****     i2c_handler(I2C_SET_G, gVal);
  61              		.loc 1 26 0
  62 0004 9220     		mov	r0, #146
  63              	.LVL4:
  64 0006 FFF7FEFF 		bl	i2c_handler
  65              	.LVL5:
  27:.\sensor.c    **** }
  66              		.loc 1 27 0
  67              		@ sp needed
  68 000a 08BD     		pop	{r3, pc}
  69              		.cfi_endproc
  70              	.LFE35:
  71              		.size	setG, .-setG
  72              		.section	.text.setB,"ax",%progbits
  73              		.align	2
  74              		.global	setB
  75              		.code	16
  76              		.thumb_func
  77              		.type	setB, %function
  78              	setB:
  79              	.LFB36:
  28:.\sensor.c    **** 
  29:.\sensor.c    **** void setB(uint8 bVal) {
  80              		.loc 1 29 0
  81              		.cfi_startproc
  82              	.LVL6:
  83 0000 08B5     		push	{r3, lr}
  84              		.cfi_def_cfa_offset 8
  85              		.cfi_offset 3, -8
ARM GAS  C:\Users\JEPPES~1\AppData\Local\Temp\ccovA63c.s 			page 3


  86              		.cfi_offset 14, -4
  87 0002 011C     		mov	r1, r0
  30:.\sensor.c    ****     i2c_handler(I2C_SET_B, bVal);
  88              		.loc 1 30 0
  89 0004 9320     		mov	r0, #147
  90              	.LVL7:
  91 0006 FFF7FEFF 		bl	i2c_handler
  92              	.LVL8:
  31:.\sensor.c    **** }
  93              		.loc 1 31 0
  94              		@ sp needed
  95 000a 08BD     		pop	{r3, pc}
  96              		.cfi_endproc
  97              	.LFE36:
  98              		.size	setB, .-setB
  99              		.text
 100              	.Letext0:
 101              		.file 2 "Generated_Source\\PSoC4/cytypes.h"
 102              		.file 3 ".\\i2c.h"