ARM GAS  C:\Users\JEPPES~1\AppData\Local\Temp\ccvsjDMw.s 			page 1


   1              		.cpu cortex-m0
   2              		.fpu softvfp
   3              		.eabi_attribute 20, 1
   4              		.eabi_attribute 21, 1
   5              		.eabi_attribute 23, 3
   6              		.eabi_attribute 24, 1
   7              		.eabi_attribute 25, 1
   8              		.eabi_attribute 26, 1
   9              		.eabi_attribute 30, 1
  10              		.eabi_attribute 34, 0
  11              		.eabi_attribute 18, 4
  12              		.code	16
  13              		.file	"spi.c"
  14              		.text
  15              	.Ltext0:
  16              		.cfi_sections	.debug_frame
  17              		.section	.text.isr_spi_rx,"ax",%progbits
  18              		.align	2
  19              		.global	isr_spi_rx
  20              		.code	16
  21              		.thumb_func
  22              		.type	isr_spi_rx, %function
  23              	isr_spi_rx:
  24              	.LFB34:
  25              		.file 1 ".\\spi.c"
   1:.\spi.c       **** /* ========================================
   2:.\spi.c       ****  *
   3:.\spi.c       ****  * File: spi.c
   4:.\spi.c       ****  * Description: 
   5:.\spi.c       ****  *
   6:.\spi.c       ****  * University: AARHUS UNIVERSITY SCHOOL OF ENGINEERING
   7:.\spi.c       ****  * Project: F16 - E3PRJ3-02 Semesterprojekt 3 [240501U178]
   8:.\spi.c       ****  * Group: 1
   9:.\spi.c       ****  * 
  10:.\spi.c       ****  * Author: Jeppe Stærk
  11:.\spi.c       ****  * Matriculation number: 201271201
  12:.\spi.c       ****  *
  13:.\spi.c       ****  * Version: 1.0
  14:.\spi.c       ****  * Date: 13-05-2016
  15:.\spi.c       ****  *
  16:.\spi.c       ****  * ========================================
  17:.\spi.c       **** */
  18:.\spi.c       **** 
  19:.\spi.c       **** #include "spi.h"
  20:.\spi.c       **** 
  21:.\spi.c       **** CY_ISR(isr_spi_rx)
  22:.\spi.c       **** {
  26              		.loc 1 22 0
  27              		.cfi_startproc
  28 0000 00B5     		push	{lr}
  29              		.cfi_def_cfa_offset 4
  30              		.cfi_offset 14, -4
  31 0002 85B0     		sub	sp, sp, #20
  32              		.cfi_def_cfa_offset 24
  33              	.L2:
  23:.\spi.c       ****     uint16 spiRxBuffer[SPI_PACKET_SIZE];
  24:.\spi.c       ****     struct Data spiRxAction;
ARM GAS  C:\Users\JEPPES~1\AppData\Local\Temp\ccvsjDMw.s 			page 2


  25:.\spi.c       ****     
  26:.\spi.c       ****     while (SPI_PACKET_SIZE != SPIS_SpiUartGetRxBufferSize())
  34              		.loc 1 26 0 discriminator 1
  35 0004 FFF7FEFF 		bl	SPIS_SpiUartGetRxBufferSize
  36              	.LVL0:
  37 0008 0128     		cmp	r0, #1
  38 000a FBD1     		bne	.L2
  27:.\spi.c       ****     {
  28:.\spi.c       ****     }
  29:.\spi.c       ****     
  30:.\spi.c       ****     if (0u != SPIS_SpiUartGetRxBufferSize())
  39              		.loc 1 30 0
  40 000c FFF7FEFF 		bl	SPIS_SpiUartGetRxBufferSize
  41              	.LVL1:
  42 0010 0028     		cmp	r0, #0
  43 0012 09D0     		beq	.L3
  31:.\spi.c       ****     {
  32:.\spi.c       ****         spiRxBuffer[SPI_PACKET_DATA_POS] = SPIS_SpiUartReadRxData();
  44              		.loc 1 32 0
  45 0014 FFF7FEFF 		bl	SPIS_SpiUartReadRxData
  46              	.LVL2:
  47 0018 80B2     		uxth	r0, r0
  33:.\spi.c       ****         spiRxAction.val_ = spiRxBuffer[SPI_PACKET_DATA_POS] & 0xff;
  48              		.loc 1 33 0
  49 001a FF21     		mov	r1, #255
  50 001c 0140     		and	r1, r0
  51 001e 0391     		str	r1, [sp, #12]
  34:.\spi.c       ****         spiRxAction.cmd_ = (spiRxBuffer[SPI_PACKET_DATA_POS] >> 8);
  52              		.loc 1 34 0
  53 0020 000A     		lsr	r0, r0, #8
  54 0022 0290     		str	r0, [sp, #8]
  35:.\spi.c       ****         pushQueue(spiRxAction);
  55              		.loc 1 35 0
  56 0024 FFF7FEFF 		bl	pushQueue
  57              	.LVL3:
  58              	.L3:
  36:.\spi.c       ****     }
  37:.\spi.c       ****     
  38:.\spi.c       ****     uint16 dummyBuffer[1] = {SPI_STS_CMD_FAIL};
  59              		.loc 1 38 0
  60 0028 EE22     		mov	r2, #238
  61 002a 01AB     		add	r3, sp, #4
  62 002c 1A80     		strh	r2, [r3]
  39:.\spi.c       ****     if (SPI_PACKET_SIZE == SPIS_SpiUartGetRxBufferSize())
  63              		.loc 1 39 0
  64 002e FFF7FEFF 		bl	SPIS_SpiUartGetRxBufferSize
  65              	.LVL4:
  66 0032 0128     		cmp	r0, #1
  67 0034 05D1     		bne	.L4
  40:.\spi.c       ****     {
  41:.\spi.c       ****         SPIS_SpiUartClearRxBuffer();
  68              		.loc 1 41 0
  69 0036 FFF7FEFF 		bl	SPIS_SpiUartClearRxBuffer
  70              	.LVL5:
  42:.\spi.c       **** 
  43:.\spi.c       ****         SPIS_SpiUartPutArray(dummyBuffer, SPI_PACKET_SIZE);
  71              		.loc 1 43 0
ARM GAS  C:\Users\JEPPES~1\AppData\Local\Temp\ccvsjDMw.s 			page 3


  72 003a 01A8     		add	r0, sp, #4
  73 003c 0121     		mov	r1, #1
  74 003e FFF7FEFF 		bl	SPIS_SpiUartPutArray
  75              	.LVL6:
  76              	.L4:
  44:.\spi.c       ****     }
  45:.\spi.c       ****     SPIS_ClearRxInterruptSource(SPIS_GetRxInterruptSource());
  77              		.loc 1 45 0
  78 0042 024B     		ldr	r3, .L5
  79 0044 1A68     		ldr	r2, [r3]
  80 0046 1A60     		str	r2, [r3]
  46:.\spi.c       **** }
  81              		.loc 1 46 0
  82 0048 05B0     		add	sp, sp, #20
  83              		@ sp needed
  84 004a 00BD     		pop	{pc}
  85              	.L6:
  86              		.align	2
  87              	.L5:
  88 004c C00F0740 		.word	1074204608
  89              		.cfi_endproc
  90              	.LFE34:
  91              		.size	isr_spi_rx, .-isr_spi_rx
  92              		.section	.text.spi_init,"ax",%progbits
  93              		.align	2
  94              		.global	spi_init
  95              		.code	16
  96              		.thumb_func
  97              		.type	spi_init, %function
  98              	spi_init:
  99              	.LFB35:
  47:.\spi.c       **** 
  48:.\spi.c       **** void spi_init()
  49:.\spi.c       **** {
 100              		.loc 1 49 0
 101              		.cfi_startproc
 102 0000 08B5     		push	{r3, lr}
 103              		.cfi_def_cfa_offset 8
 104              		.cfi_offset 3, -8
 105              		.cfi_offset 14, -4
  50:.\spi.c       ****     SPIS_Start();
 106              		.loc 1 50 0
 107 0002 FFF7FEFF 		bl	SPIS_Start
 108              	.LVL7:
  51:.\spi.c       ****     SPIS_SpiUartClearTxBuffer();
 109              		.loc 1 51 0
 110 0006 FFF7FEFF 		bl	SPIS_SpiUartClearTxBuffer
 111              	.LVL8:
  52:.\spi.c       ****     SPIS_SpiUartClearRxBuffer();
 112              		.loc 1 52 0
 113 000a FFF7FEFF 		bl	SPIS_SpiUartClearRxBuffer
 114              	.LVL9:
  53:.\spi.c       ****     SPIS_SetCustomInterruptHandler(isr_spi_rx);
 115              		.loc 1 53 0
 116 000e 0248     		ldr	r0, .L8
 117 0010 FFF7FEFF 		bl	SPIS_SetCustomInterruptHandler
 118              	.LVL10:
ARM GAS  C:\Users\JEPPES~1\AppData\Local\Temp\ccvsjDMw.s 			page 4


  54:.\spi.c       **** }
 119              		.loc 1 54 0
 120              		@ sp needed
 121 0014 08BD     		pop	{r3, pc}
 122              	.L9:
 123 0016 C046     		.align	2
 124              	.L8:
 125 0018 00000000 		.word	isr_spi_rx
 126              		.cfi_endproc
 127              	.LFE35:
 128              		.size	spi_init, .-spi_init
 129              		.section	.text.spi_rx,"ax",%progbits
 130              		.align	2
 131              		.global	spi_rx
 132              		.code	16
 133              		.thumb_func
 134              		.type	spi_rx, %function
 135              	spi_rx:
 136              	.LFB36:
  55:.\spi.c       **** 
  56:.\spi.c       **** void spi_rx()
  57:.\spi.c       **** {
 137              		.loc 1 57 0
 138              		.cfi_startproc
 139 0000 00B5     		push	{lr}
 140              		.cfi_def_cfa_offset 4
 141              		.cfi_offset 14, -4
 142 0002 85B0     		sub	sp, sp, #20
 143              		.cfi_def_cfa_offset 24
 144              	.L11:
  58:.\spi.c       ****     uint16 spiRxBuffer[SPI_PACKET_SIZE];
  59:.\spi.c       ****     struct Data spiRxAction;
  60:.\spi.c       **** 
  61:.\spi.c       ****     while (SPI_PACKET_SIZE != SPIS_SpiUartGetRxBufferSize())
 145              		.loc 1 61 0 discriminator 1
 146 0004 FFF7FEFF 		bl	SPIS_SpiUartGetRxBufferSize
 147              	.LVL11:
 148 0008 0128     		cmp	r0, #1
 149 000a FBD1     		bne	.L11
  62:.\spi.c       ****     {
  63:.\spi.c       ****     }
  64:.\spi.c       ****     
  65:.\spi.c       ****     if (0u != SPIS_SpiUartGetRxBufferSize())
 150              		.loc 1 65 0
 151 000c FFF7FEFF 		bl	SPIS_SpiUartGetRxBufferSize
 152              	.LVL12:
 153 0010 0028     		cmp	r0, #0
 154 0012 07D0     		beq	.L12
  66:.\spi.c       ****     {
  67:.\spi.c       ****         spiRxBuffer[SPI_PACKET_DATA_POS] = SPIS_SpiUartReadRxData();
 155              		.loc 1 67 0
 156 0014 FFF7FEFF 		bl	SPIS_SpiUartReadRxData
 157              	.LVL13:
 158 0018 80B2     		uxth	r0, r0
  68:.\spi.c       ****         spiRxAction.val_ = spiRxBuffer[SPI_PACKET_DATA_POS] & 0xff;
 159              		.loc 1 68 0
 160 001a FF21     		mov	r1, #255
ARM GAS  C:\Users\JEPPES~1\AppData\Local\Temp\ccvsjDMw.s 			page 5


 161 001c 0140     		and	r1, r0
  69:.\spi.c       ****         spiRxAction.cmd_ = (spiRxBuffer[SPI_PACKET_DATA_POS] >> 8);
 162              		.loc 1 69 0
 163 001e 000A     		lsr	r0, r0, #8
  70:.\spi.c       ****         pushQueue(spiRxAction);
 164              		.loc 1 70 0
 165 0020 FFF7FEFF 		bl	pushQueue
 166              	.LVL14:
 167              	.L12:
  71:.\spi.c       ****     }
  72:.\spi.c       ****     
  73:.\spi.c       ****     uint16 dummyBuffer[1] = {SPI_STS_CMD_FAIL};
 168              		.loc 1 73 0
 169 0024 EE22     		mov	r2, #238
 170 0026 01AB     		add	r3, sp, #4
 171 0028 1A80     		strh	r2, [r3]
  74:.\spi.c       ****     if (SPI_PACKET_SIZE == SPIS_SpiUartGetRxBufferSize())
 172              		.loc 1 74 0
 173 002a FFF7FEFF 		bl	SPIS_SpiUartGetRxBufferSize
 174              	.LVL15:
 175 002e 0128     		cmp	r0, #1
 176 0030 05D1     		bne	.L10
  75:.\spi.c       ****     {
  76:.\spi.c       ****         SPIS_SpiUartClearRxBuffer();
 177              		.loc 1 76 0
 178 0032 FFF7FEFF 		bl	SPIS_SpiUartClearRxBuffer
 179              	.LVL16:
  77:.\spi.c       **** 
  78:.\spi.c       ****         SPIS_SpiUartPutArray(dummyBuffer, SPI_PACKET_SIZE);
 180              		.loc 1 78 0
 181 0036 01A8     		add	r0, sp, #4
 182 0038 0121     		mov	r1, #1
 183 003a FFF7FEFF 		bl	SPIS_SpiUartPutArray
 184              	.LVL17:
 185              	.L10:
  79:.\spi.c       ****     }
  80:.\spi.c       **** }
 186              		.loc 1 80 0
 187 003e 05B0     		add	sp, sp, #20
 188              		@ sp needed
 189 0040 00BD     		pop	{pc}
 190              		.cfi_endproc
 191              	.LFE36:
 192              		.size	spi_rx, .-spi_rx
 193 0042 C046     		.section	.text.spi_cleanup,"ax",%progbits
 194              		.align	2
 195              		.global	spi_cleanup
 196              		.code	16
 197              		.thumb_func
 198              		.type	spi_cleanup, %function
 199              	spi_cleanup:
 200              	.LFB37:
  81:.\spi.c       **** 
  82:.\spi.c       **** void spi_cleanup()
  83:.\spi.c       **** {
 201              		.loc 1 83 0
 202              		.cfi_startproc
ARM GAS  C:\Users\JEPPES~1\AppData\Local\Temp\ccvsjDMw.s 			page 6


 203 0000 00B5     		push	{lr}
 204              		.cfi_def_cfa_offset 4
 205              		.cfi_offset 14, -4
 206 0002 83B0     		sub	sp, sp, #12
 207              		.cfi_def_cfa_offset 16
  84:.\spi.c       ****     uint16 dummyBuffer[1] = {SPI_STS_CMD_FAIL};
 208              		.loc 1 84 0
 209 0004 EE22     		mov	r2, #238
 210 0006 01AB     		add	r3, sp, #4
 211 0008 1A80     		strh	r2, [r3]
  85:.\spi.c       ****     if (SPI_PACKET_SIZE == SPIS_SpiUartGetRxBufferSize())
 212              		.loc 1 85 0
 213 000a FFF7FEFF 		bl	SPIS_SpiUartGetRxBufferSize
 214              	.LVL18:
 215 000e 0128     		cmp	r0, #1
 216 0010 05D1     		bne	.L14
  86:.\spi.c       ****     {
  87:.\spi.c       ****         SPIS_SpiUartClearRxBuffer();
 217              		.loc 1 87 0
 218 0012 FFF7FEFF 		bl	SPIS_SpiUartClearRxBuffer
 219              	.LVL19:
  88:.\spi.c       **** 
  89:.\spi.c       ****         SPIS_SpiUartPutArray(dummyBuffer, SPI_PACKET_SIZE);
 220              		.loc 1 89 0
 221 0016 01A8     		add	r0, sp, #4
 222 0018 0121     		mov	r1, #1
 223 001a FFF7FEFF 		bl	SPIS_SpiUartPutArray
 224              	.LVL20:
 225              	.L14:
  90:.\spi.c       ****     }
  91:.\spi.c       **** }
 226              		.loc 1 91 0
 227 001e 03B0     		add	sp, sp, #12
 228              		@ sp needed
 229 0020 00BD     		pop	{pc}
 230              		.cfi_endproc
 231              	.LFE37:
 232              		.size	spi_cleanup, .-spi_cleanup
 233 0022 C046     		.section	.text.spi_tx,"ax",%progbits
 234              		.align	2
 235              		.global	spi_tx
 236              		.code	16
 237              		.thumb_func
 238              		.type	spi_tx, %function
 239              	spi_tx:
 240              	.LFB38:
  92:.\spi.c       **** 
  93:.\spi.c       **** void spi_tx(uint8 data)
  94:.\spi.c       **** {
 241              		.loc 1 94 0
 242              		.cfi_startproc
 243              	.LVL21:
 244 0000 10B5     		push	{r4, lr}
 245              		.cfi_def_cfa_offset 8
 246              		.cfi_offset 4, -8
 247              		.cfi_offset 14, -4
 248 0002 82B0     		sub	sp, sp, #8
ARM GAS  C:\Users\JEPPES~1\AppData\Local\Temp\ccvsjDMw.s 			page 7


 249              		.cfi_def_cfa_offset 16
 250 0004 041C     		mov	r4, r0
  95:.\spi.c       ****     SPIS_SpiUartClearTxBuffer();
 251              		.loc 1 95 0
 252 0006 FFF7FEFF 		bl	SPIS_SpiUartClearTxBuffer
 253              	.LVL22:
  96:.\spi.c       ****     
  97:.\spi.c       ****     uint16 spiTxBuffer[SPI_PACKET_SIZE] = {SPI_STS_CMD_FAIL};
 254              		.loc 1 97 0
 255 000a 01A8     		add	r0, sp, #4
  98:.\spi.c       **** 
  99:.\spi.c       ****     spiTxBuffer[SPI_PACKET_DATA_POS] = (uint16) data;
 256              		.loc 1 99 0
 257 000c 0480     		strh	r4, [r0]
 100:.\spi.c       **** 
 101:.\spi.c       ****     SPIS_SpiUartPutArray(spiTxBuffer, SPI_PACKET_SIZE);
 258              		.loc 1 101 0
 259 000e 0121     		mov	r1, #1
 260 0010 FFF7FEFF 		bl	SPIS_SpiUartPutArray
 261              	.LVL23:
 102:.\spi.c       **** }
 262              		.loc 1 102 0
 263 0014 02B0     		add	sp, sp, #8
 264              		@ sp needed
 265 0016 10BD     		pop	{r4, pc}
 266              		.cfi_endproc
 267              	.LFE38:
 268              		.size	spi_tx, .-spi_tx
 269              		.comm	rxValZ,1,1
 270              		.comm	rxValY,1,1
 271              		.comm	rxValX,1,1
 272              		.comm	backOfQueuePtr,4,4
 273              		.comm	frontOfQueuePtr,4,4
 274              		.text
 275              	.Letext0:
 276              		.file 2 "Generated_Source\\PSoC4/cytypes.h"
 277              		.file 3 ".\\queue.h"
 278              		.file 4 ".\\handler.h"
 279              		.file 5 "Generated_Source\\PSoC4/SPIS_SPI_UART.h"
 280              		.file 6 "Generated_Source\\PSoC4/SPIS.h"