ARM GAS  C:\Users\JEPPES~1\AppData\Local\Temp\cceMOyqQ.s 			page 1


   1              		.cpu cortex-m0
   2              		.fpu softvfp
   3              		.eabi_attribute 20, 1
   4              		.eabi_attribute 21, 1
   5              		.eabi_attribute 23, 3
   6              		.eabi_attribute 24, 1
   7              		.eabi_attribute 25, 1
   8              		.eabi_attribute 26, 1
   9              		.eabi_attribute 30, 1
  10              		.eabi_attribute 34, 0
  11              		.eabi_attribute 18, 4
  12              		.code	16
  13              		.file	"tester.c"
  14              		.text
  15              	.Ltext0:
  16              		.cfi_sections	.debug_frame
  17              		.section	.text.setTest,"ax",%progbits
  18              		.align	2
  19              		.global	setTest
  20              		.code	16
  21              		.thumb_func
  22              		.type	setTest, %function
  23              	setTest:
  24              	.LFB34:
  25              		.file 1 ".\\tester.c"
   1:.\tester.c    **** /* ========================================
   2:.\tester.c    ****  *
   3:.\tester.c    ****  * File: tester.c
   4:.\tester.c    ****  * Description: 
   5:.\tester.c    ****  *
   6:.\tester.c    ****  * University: AARHUS UNIVERSITY SCHOOL OF ENGINEERING
   7:.\tester.c    ****  * Project: F16 - E3PRJ3-02 Semesterprojekt 3 [240501U178]
   8:.\tester.c    ****  * Group: 1
   9:.\tester.c    ****  * 
  10:.\tester.c    ****  * Author: Jeppe Stærk
  11:.\tester.c    ****  * Matriculation number: 201271201
  12:.\tester.c    ****  *
  13:.\tester.c    ****  * Version: 1.0
  14:.\tester.c    ****  * Date: 13-05-2016
  15:.\tester.c    ****  *
  16:.\tester.c    ****  * ========================================
  17:.\tester.c    **** */
  18:.\tester.c    **** 
  19:.\tester.c    **** #include "tester.h"
  20:.\tester.c    **** 
  21:.\tester.c    **** void setTest(uint8 testVal)
  22:.\tester.c    **** {
  26              		.loc 1 22 0
  27              		.cfi_startproc
  28              	.LVL0:
  29 0000 38B5     		push	{r3, r4, r5, lr}
  30              		.cfi_def_cfa_offset 16
  31              		.cfi_offset 3, -16
  32              		.cfi_offset 4, -12
  33              		.cfi_offset 5, -8
  34              		.cfi_offset 14, -4
  35 0002 051C     		mov	r5, r0
ARM GAS  C:\Users\JEPPES~1\AppData\Local\Temp\cceMOyqQ.s 			page 2


  36              	.LVL1:
  23:.\tester.c    ****     uint8 i;
  24:.\tester.c    ****     
  25:.\tester.c    ****     for(i = 0; i < testVal; i++)
  37              		.loc 1 25 0
  38 0004 0024     		mov	r4, #0
  39 0006 11E0     		b	.L2
  40              	.LVL2:
  41              	.L3:
  26:.\tester.c    ****     {
  27:.\tester.c    ****         setMasterLed(1,0,0);
  42              		.loc 1 27 0 discriminator 3
  43 0008 0120     		mov	r0, #1
  44 000a 0021     		mov	r1, #0
  45 000c 0022     		mov	r2, #0
  46 000e FFF7FEFF 		bl	setMasterLed
  47              	.LVL3:
  28:.\tester.c    ****         CyDelay(25);
  48              		.loc 1 28 0 discriminator 3
  49 0012 1920     		mov	r0, #25
  50 0014 FFF7FEFF 		bl	CyDelay
  51              	.LVL4:
  29:.\tester.c    ****         setMasterLed(0,0,0);
  52              		.loc 1 29 0 discriminator 3
  53 0018 0020     		mov	r0, #0
  54 001a 0021     		mov	r1, #0
  55 001c 0022     		mov	r2, #0
  56 001e FFF7FEFF 		bl	setMasterLed
  57              	.LVL5:
  30:.\tester.c    ****         CyDelay(25);
  58              		.loc 1 30 0 discriminator 3
  59 0022 1920     		mov	r0, #25
  60 0024 FFF7FEFF 		bl	CyDelay
  61              	.LVL6:
  25:.\tester.c    ****     {
  62              		.loc 1 25 0 discriminator 3
  63 0028 0134     		add	r4, r4, #1
  64              	.LVL7:
  65 002a E4B2     		uxtb	r4, r4
  66              	.LVL8:
  67              	.L2:
  25:.\tester.c    ****     {
  68              		.loc 1 25 0 is_stmt 0 discriminator 1
  69 002c AC42     		cmp	r4, r5
  70 002e EBD3     		bcc	.L3
  31:.\tester.c    ****     }
  32:.\tester.c    ****     
  33:.\tester.c    ****     bufCmd = 0x98;
  71              		.loc 1 33 0 is_stmt 1
  72 0030 9822     		mov	r2, #152
  73 0032 044B     		ldr	r3, .L4
  74 0034 1A70     		strb	r2, [r3]
  34:.\tester.c    ****     bufVal = testVal;
  75              		.loc 1 34 0
  76 0036 044B     		ldr	r3, .L4+4
  77 0038 1D70     		strb	r5, [r3]
  35:.\tester.c    ****     bufFlag = 1;
ARM GAS  C:\Users\JEPPES~1\AppData\Local\Temp\cceMOyqQ.s 			page 3


  78              		.loc 1 35 0
  79 003a 973A     		sub	r2, r2, #151
  80 003c 034B     		ldr	r3, .L4+8
  81 003e 1A70     		strb	r2, [r3]
  36:.\tester.c    **** }
  82              		.loc 1 36 0
  83              		@ sp needed
  84              	.LVL9:
  85 0040 38BD     		pop	{r3, r4, r5, pc}
  86              	.L5:
  87 0042 C046     		.align	2
  88              	.L4:
  89 0044 00000000 		.word	bufCmd
  90 0048 00000000 		.word	bufVal
  91 004c 00000000 		.word	bufFlag
  92              		.cfi_endproc
  93              	.LFE34:
  94              		.size	setTest, .-setTest
  95              		.section	.text.getTest,"ax",%progbits
  96              		.align	2
  97              		.global	getTest
  98              		.code	16
  99              		.thumb_func
 100              		.type	getTest, %function
 101              	getTest:
 102              	.LFB35:
  37:.\tester.c    **** 
  38:.\tester.c    **** void getTest(uint16* testVal)
  39:.\tester.c    **** {
 103              		.loc 1 39 0
 104              		.cfi_startproc
 105              	.LVL10:
 106 0000 30B5     		push	{r4, r5, lr}
 107              		.cfi_def_cfa_offset 12
 108              		.cfi_offset 4, -12
 109              		.cfi_offset 5, -8
 110              		.cfi_offset 14, -4
 111 0002 83B0     		sub	sp, sp, #12
 112              		.cfi_def_cfa_offset 24
 113 0004 051C     		mov	r5, r0
  40:.\tester.c    ****     uint8 i2cCmd = 0x99;
 114              		.loc 1 40 0
 115 0006 6B46     		mov	r3, sp
 116 0008 D81D     		add	r0, r3, #7
 117              	.LVL11:
 118 000a 9923     		mov	r3, #153
 119 000c 0370     		strb	r3, [r0]
  41:.\tester.c    ****     uint8 i2cVal = 0;
 120              		.loc 1 41 0
 121 000e 6B46     		mov	r3, sp
 122 0010 9C1D     		add	r4, r3, #6
 123 0012 0023     		mov	r3, #0
 124 0014 2370     		strb	r3, [r4]
  42:.\tester.c    ****     
  43:.\tester.c    ****     i2c_handler(&i2cCmd, &i2cVal);
 125              		.loc 1 43 0
 126 0016 C0B2     		uxtb	r0, r0
ARM GAS  C:\Users\JEPPES~1\AppData\Local\Temp\cceMOyqQ.s 			page 4


 127 0018 211C     		mov	r1, r4
 128 001a FFF7FEFF 		bl	i2c_handler
 129              	.LVL12:
  44:.\tester.c    ****     
  45:.\tester.c    ****     *testVal = (uint16)i2cVal;
 130              		.loc 1 45 0
 131 001e 2378     		ldrb	r3, [r4]
 132 0020 2B80     		strh	r3, [r5]
  46:.\tester.c    **** }
 133              		.loc 1 46 0
 134 0022 03B0     		add	sp, sp, #12
 135              		@ sp needed
 136              	.LVL13:
 137 0024 30BD     		pop	{r4, r5, pc}
 138              		.cfi_endproc
 139              	.LFE35:
 140              		.size	getTest, .-getTest
 141 0026 C046     		.text
 142              	.Letext0:
 143              		.file 2 "Generated_Source\\PSoC4/cytypes.h"
 144              		.file 3 ".\\buffer.h"
 145              		.file 4 ".\\master.h"
 146              		.file 5 "Generated_Source\\PSoC4/CyLib.h"
 147              		.file 6 ".\\i2c.h"